 HVDService

 Timestamp is 4b39c1b0 (Tue Dec 29 16:45:36 2009)

 Preferred load address is 10000000

 Start         Length     Name                   Class
 0001:00000000 00027c59H .textbss                DATA
 0002:00000000 000509a9H .text                   CODE
 0002:000509b0 00002e75H .text$x                 CODE
 0002:00053830 00001dd0H .text$yc                CODE
 0002:00055600 00001037H .text$yd                CODE
 0003:00000000 00000104H .CRT$XCA                DATA
 0003:00000104 0000010eH .CRT$XCC                DATA
 0003:00000214 00000181H .CRT$XCL                DATA
 0003:00000398 0000013eH .CRT$XCU                DATA
 0003:000004d8 00000104H .CRT$XCZ                DATA
 0003:000005dc 00000104H .CRT$XIA                DATA
 0003:000006e0 00000104H .CRT$XIAA               DATA
 0003:000007e4 00000104H .CRT$XIC                DATA
 0003:000008e8 00000104H .CRT$XIZ                DATA
 0003:000009f0 0001654cH .rdata                  DATA
 0003:00016f3c 0000016fH .rdata$debug            DATA
 0003:000170ac 00001925H .rdata$r                DATA
 0003:000189d4 00000104H .rtc$IAA                DATA
 0003:00018ad8 00000169H .rtc$IMZ                DATA
 0003:00018c44 00000104H .rtc$IZZ                DATA
 0003:00018d48 00000104H .rtc$TAA                DATA
 0003:00018e4c 00000169H .rtc$TMZ                DATA
 0003:00018fb8 00000104H .rtc$TZZ                DATA
 0003:000190c0 000020aeH .xdata$x                DATA
 0003:0001b170 00000104H ATL$__a                 DATA
 0003:0001b274 00000104H ATL$__z                 DATA
 0003:0001b380 00000162H .edata                  DATA
 0004:00000000 00003bedH .data                   DATA
 0004:00003bf0 00003fc8H .bss                    DATA
 0005:00000000 000000dcH .idata$2                DATA
 0005:000000dc 00000014H .idata$3                DATA
 0005:000000f0 0000057cH .idata$4                DATA
 0005:0000066c 0000057cH .idata$5                DATA
 0005:00000be8 00001193H .idata$6                DATA
 0006:00000000 000001c0H .rsrc$01                DATA
 0006:000001c0 00000eccH .rsrc$02                DATA

  Address         Publics by Value              Rva+Base       Lib:Object

 0000:00000000       ___safe_se_handler_count   00000000     <absolute>
 0000:00000000       ___safe_se_handler_table   00000000     <absolute>
 0000:00000000       __except_list              00000000     <absolute>
 0000:00009876       __ldused                   00009876     <absolute>
 0000:00009876       __fltused                  00009876     <absolute>
 0000:00000000       ___ImageBase               10000000     <linker-defined>
 0001:00000000       __enc$textbss$begin        10001000     <linker-defined>
 0001:00027c59       __enc$textbss$end          10028c59     <linker-defined>
 0002:000035b0       ??0CFastCompositingDevice@@QAE@PAUHINSTANCE__@@PAUIDirect3DDevice9@@W4_FASTCOMP_MODE@@@Z 1002c5b0 f   FastCompositingDevice.obj
 0002:00003b10       _IsEqualGUID               1002cb10 f i FastCompositingDevice.obj
 0002:00003b70       ??1CFastCompositingDevice@@QAE@XZ 1002cb70 f   FastCompositingDevice.obj
 0002:00003ce0       ?CreateSurface@CFastCompositingDevice@@QAEJIIIW4_D3DFORMAT@@W4_D3DPOOL@@KKPAPAUIDirect3DSurface9@@PAPAX@Z 1002cce0 f   FastCompositingDevice.obj
 0002:00003da0       ?QueryCaps@CFastCompositingDevice@@QAEJPAPAU_FASTCOMP_CAPS@@@Z 1002cda0 f   FastCompositingDevice.obj
 0002:00003f40       ?QueryCaps2@CFastCompositingDevice@@QAEJPAPAU_FASTCOMP_CAPS2@@@Z 1002cf40 f   FastCompositingDevice.obj
 0002:00004110       ?QueryFormats@CFastCompositingDevice@@QAEJPAPAU_FASTCOMP_SAMPLE_FORMATS@@@Z 1002d110 f   FastCompositingDevice.obj
 0002:000046e0       ?QueryFrameRate@CFastCompositingDevice@@QAEHHHHHH@Z 1002d6e0 f   FastCompositingDevice.obj
 0002:00004810       ?CreateServiceA@CFastCompositingDevice@@QAEJPAU_DXVA2_VideoDesc@@W4_D3DFORMAT@@I@Z 1002d810 f   FastCompositingDevice.obj
 0002:00004a20       ?Register@CFastCompositingDevice@@QAEJPAPAUIDirect3DSurface9@@HH@Z 1002da20 f   FastCompositingDevice.obj
 0002:00004e30       ?ResetBltParams@CFastCompositingDevice@@SAXPAU_FASTCOMP_BLT_PARAMS@@@Z 1002de30 f   FastCompositingDevice.obj
 0002:00004e80       ?FastCopy@CFastCompositingDevice@@QAEJPAUIDirect3DSurface9@@0PAUtagRECT@@1HHK@Z 1002de80 f   FastCompositingDevice.obj
 0002:000054b0       ?FastCompositingBlt@CFastCompositingDevice@@QAEJPAU_FASTCOMP_BLT_PARAMS@@@Z 1002e4b0 f   FastCompositingDevice.obj
 0002:000055e0       ??0CHVDDSAMVANotify@HVDService@@QAE@PAVCBasePin@@PAUIUnknown@@@Z 1002e5e0 f   HVDDSAMVANotify.obj
 0002:000056a0       ?QueryInterface@CHVDDSAMVANotify@HVDService@@UAGJABU_GUID@@PAPAX@Z 1002e6a0 f i HVDDSAMVANotify.obj
 0002:00005730       ?GetOwner@CUnknown@@QBEPAUIUnknown@@XZ 1002e730 f i HVDDSAMVANotify.obj
 0002:00005770       ?AddRef@CHVDDSAMVANotify@HVDService@@UAGKXZ 1002e770 f i HVDDSAMVANotify.obj
 0002:000057f0       ?Release@CHVDDSAMVANotify@HVDService@@UAGKXZ 1002e7f0 f i HVDDSAMVANotify.obj
 0002:00005870       ??0IHVDDXVA1AMVANofityConfig@@QAE@XZ 1002e870 f i HVDDSAMVANotify.obj
 0002:000058d0       ??0IiviVideoAcceleratorNotify2@@QAE@XZ 1002e8d0 f i HVDDSAMVANotify.obj
 0002:00005930       ??0IiviVideoAcceleratorNotify@@QAE@XZ 1002e930 f i HVDDSAMVANotify.obj
 0002:00005990       ??0IAMVideoAcceleratorNotify@@QAE@XZ 1002e990 f i HVDDSAMVANotify.obj
 0002:000059f0       ??0IUnknown@@QAE@XZ        1002e9f0 f i HVDDSAMVANotify.obj
 0002:00005a30       ?NonDelegatingQueryInterface@CHVDDSAMVANotify@HVDService@@UAGJABU_GUID@@PAPAX@Z 1002ea30 f   HVDDSAMVANotify.obj
 0002:00005b70       _==                        1002eb70 f i HVDDSAMVANotify.obj
 0002:00005bd0       ?GetUncompSurfacesInfo@CHVDDSAMVANotify@HVDService@@UAGJPBU_GUID@@PAU_tag_AMVAUncompBufferInfo@@@Z 1002ebd0 f   HVDDSAMVANotify.obj
 0002:00005f10       ?GetConnected@CBasePin@@QAEPAUIPin@@XZ 1002ef10 f i HVDDSAMVANotify.obj
 0002:00005f50       ?SetUncompSurfacesInfo@CHVDDSAMVANotify@HVDService@@UAGJK@Z 1002ef50 f   HVDDSAMVANotify.obj
 0002:00005f90       ?GetUncompSurfacesAllocated@CHVDDSAMVANotify@HVDService@@UAGJPAK@Z 1002ef90 f   HVDDSAMVANotify.obj
 0002:00005fe0       ?GetUncompSurfacesRequired@CHVDDSAMVANotify@HVDService@@UAGJPAU_GUID@@PAK1@Z 1002efe0 f   HVDDSAMVANotify.obj
 0002:00006040       ?GetCreateVideoAcceleratorData@CHVDDSAMVANotify@HVDService@@UAGJPBU_GUID@@PAKPAPAX@Z 1002f040 f   HVDDSAMVANotify.obj
 0002:00006370       ?SetUncompSurfNum@CHVDDSAMVANotify@HVDService@@AAEXPBU_GUID@@PAK1@Z 1002f370 f   HVDDSAMVANotify.obj
 0002:00006df0       ?SetUncompSurfacesConfig@CHVDDSAMVANotify@HVDService@@UAGJPAUHVDDxva1UncompSurfConfig@2@@Z 1002fdf0 f   HVDDSAMVANotify.obj
 0002:00006e50       ??_ECHVDDSAMVANotify@HVDService@@W3AEPAXI@Z 1002fe50 f i HVDDSAMVANotify.obj
 0002:00006e60       ??_ECHVDDSAMVANotify@HVDService@@UAEPAXI@Z 1002fe60 f i HVDDSAMVANotify.obj
 0002:00006e60       ??_GCHVDDSAMVANotify@HVDService@@UAEPAXI@Z 1002fe60 f i HVDDSAMVANotify.obj
 0002:00006ed0       ??1CHVDDSAMVANotify@HVDService@@UAE@XZ 1002fed0 f i HVDDSAMVANotify.obj
 0002:00006f50       ??1CUnknown@@UAE@XZ        1002ff50 f i HVDDSAMVANotify.obj
 0002:00006fd0       ?AddIntoROT@HVDService@@YGJPAUIUnknown@@PAKPB_W@Z 1002ffd0 f   HVDDSHelper.obj
 0002:00007350       ?RemoveFromROT@HVDService@@YGXK@Z 10030350 f   HVDDSHelper.obj
 0002:00007430       ??0CHVDDSHelper@HVDService@@QAE@PAUIGraphBuilder@@@Z 10030430 f   HVDDSHelper.obj
 0002:00007480       ??1CHVDDSHelper@HVDService@@QAE@XZ 10030480 f   HVDDSHelper.obj
 0002:000074c0       ?FindPin@CHVDDSHelper@HVDService@@QAGJPAUIBaseFilter@@PAPAUIPin@@U_GUID@@H@Z 100304c0 f   HVDDSHelper.obj
 0002:00007950       ?FindPin@CHVDDSHelper@HVDService@@QAGJPAUIBaseFilter@@PAPAUIPin@@U_GUID@@W4_PinDirection@@H@Z 10030950 f   HVDDSHelper.obj
 0002:00007f30       ?FindPin@CHVDDSHelper@HVDService@@QAGJPAUIBaseFilter@@PAPAUIPin@@W4_PinDirection@@PA_WHW4PINCONNECTED@@@Z 10030f30 f   HVDDSHelper.obj
 0002:00008470       ?wcsstr@@YAPA_WPA_WPB_W@Z  10031470 f i HVDDSHelper.obj
 0002:000084d0       ?FindPin@CHVDDSHelper@HVDService@@QAGJPAUIBaseFilter@@PAPAUIPin@@U_GUID@@2H@Z 100314d0 f   HVDDSHelper.obj
 0002:00008b50       ?ConnectPins@CHVDDSHelper@HVDService@@QAGJPAUIBaseFilter@@PA_W01HH@Z 10031b50 f   HVDDSHelper.obj
 0002:00008da0       ?ConnectPins@CHVDDSHelper@HVDService@@QAGJPAUIBaseFilter@@U_GUID@@0PA_WHH@Z 10031da0 f   HVDDSHelper.obj
 0002:00009030       ?FindFilter@CHVDDSHelper@HVDService@@QAGJPAPAXABU_GUID@@1@Z 10032030 f   HVDDSHelper.obj
 0002:00009400       _!=                        10032400 f i HVDDSHelper.obj
 0002:00009460       ?FindFilterByClsid@CHVDDSHelper@HVDService@@QAGJPAPAUIBaseFilter@@ABU_GUID@@@Z 10032460 f   HVDDSHelper.obj
 0002:000094c0       ?FindFilterByName@CHVDDSHelper@HVDService@@QAGJPAPAUIBaseFilter@@PB_W@Z 100324c0 f   HVDDSHelper.obj
 0002:00009550       ?GetFilterClsid@CHVDDSHelper@HVDService@@QAGJPAUIBaseFilter@@PAU_GUID@@@Z 10032550 f   HVDDSHelper.obj
 0002:00009680       ?AddFilter@CHVDDSHelper@HVDService@@QAGJABU_GUID@@PAPAUIBaseFilter@@PB_W@Z 10032680 f   HVDDSHelper.obj
 0002:00009750       ?AddProxyServiceByIndex@CHVDDSHelper@HVDService@@QAGJABU_GUID@@PAHPAPAUIBaseFilter@@PAD@Z 10032750 f   HVDDSHelper.obj
 0002:000098f0       ?AddProxyService@CHVDDSHelper@HVDService@@QAGJABU_GUID@@PBDPAPAUIBaseFilter@@@Z 100328f0 f   HVDDSHelper.obj
 0002:00009a70       ?WdmProxyService@CHVDDSHelper@HVDService@@QAGJPAHABU_GUID@@PBDPAPAUIBaseFilter@@PAD@Z 10032a70 f   HVDDSHelper.obj
 0002:0000a1e0       _HRESULT_FROM_WIN32        100331e0 f i HVDDSHelper.obj
 0002:0000a250       ?_tcsstr@@YAPADPADPBD@Z    10033250 f i HVDDSHelper.obj
 0002:0000a2b0       __tcsstr                   100332b0 f i HVDDSHelper.obj
 0002:0000a310       ?DisconnectPin@CHVDDSHelper@HVDService@@QAGJPAUIPin@@@Z 10033310 f   HVDDSHelper.obj
 0002:0000a530       ?DisconnectAllPins@CHVDDSHelper@HVDService@@QAGJPAUIBaseFilter@@@Z 10033530 f   HVDDSHelper.obj
 0002:0000a790       ?ConnectFilters@CHVDDSHelper@HVDService@@QAGJPAUIBaseFilter@@0@Z 10033790 f   HVDDSHelper.obj
 0002:0000aaa0       ?CountSystemDevices@CHVDDSHelper@HVDService@@QAGIABU_GUID@@@Z 10033aa0 f   HVDDSHelper.obj
 0002:0000add0       ?RemoveAllFilters@CHVDDSHelper@HVDService@@QAGJXZ 10033dd0 f   HVDDSHelper.obj
 0002:0000b020       ??1?$CGenericList@UIBaseFilter@@@@QAE@XZ 10034020 f i HVDDSHelper.obj
 0002:0000b070       ?RemoveFilter@CHVDDSHelper@HVDService@@QAGJPAPAUIBaseFilter@@@Z 10034070 f   HVDDSHelper.obj
 0002:0000b290       ?FindEnumeratedDevice@CHVDDSHelper@HVDService@@QAGJABU_GUID@@PAPAUIBaseFilter@@IPAD@Z 10034290 f   HVDDSHelper.obj
 0002:0000b8e0       ?GetIKsPropertySetSupport@CHVDDSHelper@HVDService@@QAGHABU_GUID@@KPAPAUIBaseFilter@@PAPAUIKsPropertySet@@@Z 100348e0 f   HVDDSHelper.obj
 0002:0000bfa0       ?AddFilterInRegistry@CHVDDSHelper@HVDService@@QAGPAUIBaseFilter@@ABU_GUID@@PBDPAPAU3@@Z 10034fa0 f   HVDDSHelper.obj
 0002:0000c650       ?CountFilterPins@CHVDDSHelper@HVDService@@QAGJPAUIBaseFilter@@PAI1@Z 10035650 f   HVDDSHelper.obj
 0002:0000c8c0       ?RemoveDownStream@CHVDDSHelper@HVDService@@QAGXPAUIBaseFilter@@@Z 100358c0 f   HVDDSHelper.obj
 0002:0000ce20       ?RemoveDownStream@CHVDDSHelper@HVDService@@QAGJPAUIPin@@@Z 10035e20 f   HVDDSHelper.obj
 0002:0000d070       ?RemoveDownStream@CHVDDSHelper@HVDService@@QAGJPAUIBaseFilter@@U_GUID@@@Z 10036070 f   HVDDSHelper.obj
 0002:0000d1c0       ?FindConnectedToFilter@CHVDDSHelper@HVDService@@QAGJPAUIPin@@PAU_FilterInfo@@PAU_PinInfo@@@Z 100361c0 f   HVDDSHelper.obj
 0002:0000d370       ??0?$CGenericList@UIBaseFilter@@@@QAE@PBD@Z 10036370 f i HVDDSHelper.obj
 0002:0000d3d0       ?RemoveHead@?$CGenericList@UIBaseFilter@@@@QAEPAUIBaseFilter@@XZ 100363d0 f i HVDDSHelper.obj
 0002:0000d420       ?AddTail@?$CGenericList@UIBaseFilter@@@@QAEPAU__POSITION@@PAUIBaseFilter@@@Z 10036420 f i HVDDSHelper.obj
 0002:0000d480       ?GetMediaPtrs@CHVDDSMedia@HVDService@@SGHPBU_AMMediaType@@PAPAUtagBITMAPINFOHEADER@@PAPAUtagRECT@@2@Z 10036480 f   HVDDSMedia.obj
 0002:0000d6f0       ?IsFourCC@CHVDDSMedia@HVDService@@SGHABU_GUID@@@Z 100366f0 f   HVDDSMedia.obj
 0002:0000d760       ?IsRGB@CHVDDSMedia@HVDService@@SGHABU_GUID@@@Z 10036760 f   HVDDSMedia.obj
 0002:0000d850       ?IsYUV@CHVDDSMedia@HVDService@@SGHABU_GUID@@@Z 10036850 f   HVDDSMedia.obj
 0002:0000d910       ?IsDXVA@CHVDDSMedia@HVDService@@SGHABU_GUID@@@Z 10036910 f   HVDDSMedia.obj
 0002:0000da20       ?IsDXVA2Exclusive@CHVDDSMedia@HVDService@@SGHABU_GUID@@@Z 10036a20 f   HVDDSMedia.obj
 0002:0000dae0       ?IsDXVAH264@CHVDDSMedia@HVDService@@SGHABU_GUID@@@Z 10036ae0 f   HVDDSMedia.obj
 0002:0000dbf0       ?IsDXVAVC1@CHVDDSMedia@HVDService@@SGHABU_GUID@@@Z 10036bf0 f   HVDDSMedia.obj
 0002:0000dcc0       ?IsMPEG2@CHVDDSMedia@HVDService@@SGHABU_GUID@@@Z 10036cc0 f   HVDDSMedia.obj
 0002:0000dd20       ?IsMPEG4@CHVDDSMedia@HVDService@@SGHABU_GUID@@@Z 10036d20 f   HVDDSMedia.obj
 0002:0000dd80       ?IsVC1@CHVDDSMedia@HVDService@@SGHABU_GUID@@@Z 10036d80 f   HVDDSMedia.obj
 0002:0000dde0       ?IsH264@CHVDDSMedia@HVDService@@SGHABU_GUID@@@Z 10036de0 f   HVDDSMedia.obj
 0002:0000deb0       ??0CHVDDSOutPin@HVDService@@QAE@PADPAVCHVDDxva1Binder@1@PBU__MIDL___MIDL_itf_strmif_0000_0022_0002@@PA_W@Z 10036eb0 f   HVDDSOutPin.obj
 0002:0000e130       ?QueryInternalConnections@CBasePin@@UAGJPAPAUIPin@@PAK@Z 10037130 f i HVDDSOutPin.obj
 0002:0000e170       ?QueryInterface@CHVDDSOutPin@HVDService@@UAGJABU_GUID@@PAPAX@Z 10037170 f i HVDDSOutPin.obj
 0002:0000e200       ?AddRef@CHVDDSOutPin@HVDService@@UAGKXZ 10037200 f i HVDDSOutPin.obj
 0002:0000e280       ?Release@CHVDDSOutPin@HVDService@@UAGKXZ 10037280 f i HVDDSOutPin.obj
 0002:0000e300       ??_ECHVDDSOutPin@HVDService@@UAEPAXI@Z 10037300 f i HVDDSOutPin.obj
 0002:0000e300       ??_GCHVDDSOutPin@HVDService@@UAEPAXI@Z 10037300 f i HVDDSOutPin.obj
 0002:0000e370       ??1CBaseOutputPin@@UAE@XZ  10037370 f i HVDDSOutPin.obj
 0002:0000e3c0       ??1?$CGenericList@VCMediaType@@@@QAE@XZ 100373c0 f i HVDDSOutPin.obj
 0002:0000e410       ??1?$CGenericList@UINonDelegatingUnknown@@@@QAE@XZ 10037410 f i HVDDSOutPin.obj
 0002:0000e460       ??1CHVDDSOutPin@HVDService@@UAE@XZ 10037460 f   HVDDSOutPin.obj
 0002:0000e5c0       ??_GCMediaType@@QAEPAXI@Z  100375c0 f i HVDDSOutPin.obj
 0002:0000e630       ?NonDelegatingQueryInterface@CHVDDSOutPin@HVDService@@UAGJABU_GUID@@PAPAX@Z 10037630 f   HVDDSOutPin.obj
 0002:0000e790       ?Notify@CHVDDSOutPin@HVDService@@UAGJPAUIBaseFilter@@UtagQuality@@@Z 10037790 f   HVDDSOutPin.obj
 0002:0000e800       ?Inactive@CHVDDSOutPin@HVDService@@UAEJXZ 10037800 f   HVDDSOutPin.obj
 0002:0000e920       ??0CAutoLock@@QAE@PAVCCritSec@@@Z 10037920 f i HVDDSOutPin.obj
 0002:0000e990       ??1CAutoLock@@QAE@XZ       10037990 f i HVDDSOutPin.obj
 0002:0000e9f0       ?CheckMediaType@CHVDDSOutPin@HVDService@@UAEJPBVCMediaType@@@Z 100379f0 f   HVDDSOutPin.obj
 0002:0000eb20       ?Type@CMediaType@@QBEPBU_GUID@@XZ 10037b20 f i HVDDSOutPin.obj
 0002:0000eb60       ?Subtype@CMediaType@@QBEPBU_GUID@@XZ 10037b60 f i HVDDSOutPin.obj
 0002:0000eba0       ?GetMediaType@CHVDDSOutPin@HVDService@@UAEJHPAVCMediaType@@@Z 10037ba0 f   HVDDSOutPin.obj
 0002:0000edb0       ?DecideBufferSize@CHVDDSOutPin@HVDService@@UAEJPAUIMemAllocator@@PAU_AllocatorProperties@@@Z 10037db0 f   HVDDSOutPin.obj
 0002:0000ef00       ?AddObject@CHVDDSOutPin@HVDService@@QAEJPAUINonDelegatingUnknown@@@Z 10037f00 f   HVDDSOutPin.obj
 0002:0000efa0       ?RemoveAllObject@CHVDDSOutPin@HVDService@@QAEJXZ 10037fa0 f   HVDDSOutPin.obj
 0002:0000f0b0       ?AddMediaType@CHVDDSOutPin@HVDService@@IAEJPBVCMediaType@@@Z 100380b0 f   HVDDSOutPin.obj
 0002:0000f220       ??0?$CGenericList@VCMediaType@@@@QAE@PBD@Z 10038220 f i HVDDSOutPin.obj
 0002:0000f280       ?GetHeadPosition@?$CGenericList@VCMediaType@@@@QBEPAU__POSITION@@XZ 10038280 f i HVDDSOutPin.obj
 0002:0000f2c0       ?GetCount@?$CGenericList@VCMediaType@@@@QBEHXZ 100382c0 f i HVDDSOutPin.obj
 0002:0000f300       ?GetNext@?$CGenericList@VCMediaType@@@@QBEPAVCMediaType@@AAPAU__POSITION@@@Z 10038300 f i HVDDSOutPin.obj
 0002:0000f360       ?RemoveHead@?$CGenericList@VCMediaType@@@@QAEPAVCMediaType@@XZ 10038360 f i HVDDSOutPin.obj
 0002:0000f3b0       ?AddTail@?$CGenericList@VCMediaType@@@@QAEPAU__POSITION@@PAVCMediaType@@@Z 100383b0 f i HVDDSOutPin.obj
 0002:0000f410       ??0?$CGenericList@UINonDelegatingUnknown@@@@QAE@PBD@Z 10038410 f i HVDDSOutPin.obj
 0002:0000f470       ?GetHeadPosition@?$CGenericList@UINonDelegatingUnknown@@@@QBEPAU__POSITION@@XZ 10038470 f i HVDDSOutPin.obj
 0002:0000f4b0       ?GetCount@?$CGenericList@UINonDelegatingUnknown@@@@QBEHXZ 100384b0 f i HVDDSOutPin.obj
 0002:0000f4f0       ?GetNext@?$CGenericList@UINonDelegatingUnknown@@@@QBEPAUINonDelegatingUnknown@@AAPAU__POSITION@@@Z 100384f0 f i HVDDSOutPin.obj
 0002:0000f550       ?AddTail@?$CGenericList@UINonDelegatingUnknown@@@@QAEPAU__POSITION@@PAUINonDelegatingUnknown@@@Z 10038550 f i HVDDSOutPin.obj
 0002:0000f5b0       ?QueryInterface@CHVDDSOutPin@HVDService@@W3AGJABU_GUID@@PAPAX@Z 100385b0 f i HVDDSOutPin.obj
 0002:0000f5c0       ?Release@CHVDDSOutPin@HVDService@@W3AGKXZ 100385c0 f i HVDDSOutPin.obj
 0002:0000f5d0       ?AddRef@CHVDDSOutPin@HVDService@@W3AGKXZ 100385d0 f i HVDDSOutPin.obj
 0002:0000f5e0       ??0CHVDDSVPConfig@HVDService@@QAE@PAVCCritSec@@PAUIUnknown@@@Z 100385e0 f   HVDDSVPConfig.obj
 0002:0000f680       ?QueryInterface@CHVDDSVPConfig@HVDService@@UAGJABU_GUID@@PAPAX@Z 10038680 f i HVDDSVPConfig.obj
 0002:0000f710       ?AddRef@CHVDDSVPConfig@HVDService@@UAGKXZ 10038710 f i HVDDSVPConfig.obj
 0002:0000f790       ?Release@CHVDDSVPConfig@HVDService@@UAGKXZ 10038790 f i HVDDSVPConfig.obj
 0002:0000f810       ??0IVPConfig@@QAE@XZ       10038810 f i HVDDSVPConfig.obj
 0002:0000f870       ??0IVPBaseConfig@@QAE@XZ   10038870 f i HVDDSVPConfig.obj
 0002:0000f8d0       ?NonDelegatingQueryInterface@CHVDDSVPConfig@HVDService@@UAGJABU_GUID@@PAPAX@Z 100388d0 f   HVDDSVPConfig.obj
 0002:0000f980       ?GetConnectInfo@CHVDDSVPConfig@HVDService@@UAGJPAKPAU_DDVIDEOPORTCONNECT@@@Z 10038980 f   HVDDSVPConfig.obj
 0002:0000fac0       ?GetMaxPixelRate@CHVDDSVPConfig@HVDService@@UAGJPAU_AMVPSIZE@@PAK@Z 10038ac0 f   HVDDSVPConfig.obj
 0002:0000fb30       ?GetOverlaySurface@CHVDDSVPConfig@HVDService@@UAGJPAPAUIDirectDrawSurface@@@Z 10038b30 f   HVDDSVPConfig.obj
 0002:0000fb70       ?GetVideoFormats@CHVDDSVPConfig@HVDService@@UAGJPAKPAU_DDPIXELFORMAT@@@Z 10038b70 f   HVDDSVPConfig.obj
 0002:0000fc80       ?GetVPDataInfo@CHVDDSVPConfig@HVDService@@UAGJPAU_AMVPDATAINFO@@@Z 10038c80 f   HVDDSVPConfig.obj
 0002:0000fdd0       ?IsVPDecimationAllowed@CHVDDSVPConfig@HVDService@@UAGJPAH@Z 10038dd0 f   HVDDSVPConfig.obj
 0002:0000fe10       ?InformVPInputFormats@CHVDDSVPConfig@HVDService@@UAGJKPAU_DDPIXELFORMAT@@@Z 10038e10 f   HVDDSVPConfig.obj
 0002:0000fe50       ?SetConnectInfo@CHVDDSVPConfig@HVDService@@UAGJK@Z 10038e50 f   HVDDSVPConfig.obj
 0002:0000fe90       ?SetDDSurfaceKernelHandle@CHVDDSVPConfig@HVDService@@QAGJK@Z 10038e90 f   HVDDSVPConfig.obj
 0002:0000fed0       ?SetDDSurfaceKernelHandles@CHVDDSVPConfig@HVDService@@UAGJKPAK@Z 10038ed0 f   HVDDSVPConfig.obj
 0002:0000ff10       ?SetDirectDrawKernelHandle@CHVDDSVPConfig@HVDService@@UAGJK@Z 10038f10 f   HVDDSVPConfig.obj
 0002:0000ff50       ?SetInvertPolarity@CHVDDSVPConfig@HVDService@@UAGJXZ 10038f50 f   HVDDSVPConfig.obj
 0002:0000ff90       ?SetSurfaceParameters@CHVDDSVPConfig@HVDService@@UAGJKKK@Z 10038f90 f   HVDDSVPConfig.obj
 0002:0000ffd0       ?SetVideoPortID@CHVDDSVPConfig@HVDService@@UAGJK@Z 10038fd0 f   HVDDSVPConfig.obj
 0002:00010010       ?SetVideoFormat@CHVDDSVPConfig@HVDService@@UAGJK@Z 10039010 f   HVDDSVPConfig.obj
 0002:00010050       ?SetScalingFactors@CHVDDSVPConfig@HVDService@@UAGJPAU_AMVPSIZE@@@Z 10039050 f   HVDDSVPConfig.obj
 0002:00010090       ??_ECHVDDSVPConfig@HVDService@@W3AEPAXI@Z 10039090 f i HVDDSVPConfig.obj
 0002:000100a0       ??_ECHVDDSVPConfig@HVDService@@UAEPAXI@Z 100390a0 f i HVDDSVPConfig.obj
 0002:000100a0       ??_GCHVDDSVPConfig@HVDService@@UAEPAXI@Z 100390a0 f i HVDDSVPConfig.obj
 0002:00010110       ??1CHVDDSVPConfig@HVDService@@UAE@XZ 10039110 f i HVDDSVPConfig.obj
 0002:00010190       ??0CHVDDxva1Binder@HVDService@@QAE@XZ 10039190 f   HVDDxva1Binder.obj
 0002:00010640       ?GetSetupData@CBaseFilter@@UAEPAU_AMOVIESETUP_FILTER@@XZ 10039640 f i HVDDxva1Binder.obj
 0002:00010680       ?QueryInterface@CHVDDxva1Binder@HVDService@@UAGJABU_GUID@@PAPAX@Z 10039680 f i HVDDxva1Binder.obj
 0002:00010710       ?AddRef@CHVDDxva1Binder@HVDService@@UAGKXZ 10039710 f i HVDDxva1Binder.obj
 0002:00010790       ?Release@CHVDDxva1Binder@HVDService@@UAGKXZ 10039790 f i HVDDxva1Binder.obj
 0002:00010810       ??1?$CComPtr@UIUnknown@@@ATL@@QAE@XZ 10039810 f i HVDDxva1Binder.obj
 0002:00010860       ??_GCHVDDxva1Binder@HVDService@@UAEPAXI@Z 10039860 f i HVDDxva1Binder.obj
 0002:00010860       ??_ECHVDDxva1Binder@HVDService@@UAEPAXI@Z 10039860 f i HVDDxva1Binder.obj
 0002:000108d0       ??1?$CGenericList@VCHVDDSOutPin@HVDService@@@@QAE@XZ 100398d0 f i HVDDxva1Binder.obj
 0002:00010920       ??1CHVDDxva1Binder@HVDService@@UAE@XZ 10039920 f   HVDDxva1Binder.obj
 0002:00010a10       ?GetMediaType@CHVDDxva1Binder@HVDService@@UAEJPAVCBasePin@@HPAVCMediaType@@@Z 10039a10 f   HVDDxva1Binder.obj
 0002:00010c30       ?DecideBufferSize@CHVDDxva1Binder@HVDService@@UAEJPAVCBasePin@@PAUIMemAllocator@@PAU_AllocatorProperties@@@Z 10039c30 f   HVDDxva1Binder.obj
 0002:00010f10       ?CompleteConnect@CHVDDxva1Binder@HVDService@@UAEJPAVCBasePin@@PAUIPin@@@Z 10039f10 f   HVDDxva1Binder.obj
 0002:00010f50       ?BreakConnect@CHVDDxva1Binder@HVDService@@UAEJPAVCBasePin@@@Z 10039f50 f   HVDDxva1Binder.obj
 0002:00010f90       ?GetPinCount@CHVDDxva1Binder@HVDService@@UAEHXZ 10039f90 f   HVDDxva1Binder.obj
 0002:00010fd0       ?GetPin@CHVDDxva1Binder@HVDService@@UAEPAVCBasePin@@H@Z 10039fd0 f   HVDDxva1Binder.obj
 0002:00011040       ?Run@CHVDDxva1Binder@HVDService@@UAGJ_J@Z 1003a040 f   HVDDxva1Binder.obj
 0002:000110c0       ?Pause@CHVDDxva1Binder@HVDService@@UAGJXZ 1003a0c0 f   HVDDxva1Binder.obj
 0002:00011120       ?Stop@CHVDDxva1Binder@HVDService@@UAGJXZ 1003a120 f   HVDDxva1Binder.obj
 0002:000111a0       ?CreateNextOutputPin@CHVDDxva1Binder@HVDService@@QAEPAVCHVDDSOutPin@2@PADPBU__MIDL___MIDL_itf_strmif_0000_0022_0002@@PA_W@Z 1003a1a0 f   HVDDxva1Binder.obj
 0002:00011430       ?GetOutputPin@CHVDDxva1Binder@HVDService@@QAEPAVCHVDDSOutPin@2@H@Z 1003a430 f   HVDDxva1Binder.obj
 0002:000114a0       ?GetStartTime@CHVDDxva1Binder@HVDService@@QAEJPA_J@Z 1003a4a0 f   HVDDxva1Binder.obj
 0002:00011540       ?SetVideoDecodeInfo@CHVDDxva1Binder@HVDService@@QAEXHHW4HVD_MODE@2@@Z 1003a540 f   HVDDxva1Binder.obj
 0002:000115d0       ?SetVideoRender@CHVDDxva1Binder@HVDService@@QAEJPAUIBaseFilter@@@Z 1003a5d0 f   HVDDxva1Binder.obj
 0002:000116c0       ?SetUncompSurfacesConfig@CHVDDxva1Binder@HVDService@@QAEJPAUHVDDxva1UncompSurfConfig@2@@Z 1003a6c0 f   HVDDxva1Binder.obj
 0002:000117d0       ?SetOutputPinBufferCount@CHVDDxva1Binder@HVDService@@QAEJHK@Z 1003a7d0 f   HVDDxva1Binder.obj
 0002:00011870       ?Destroy@CHVDDxva1Binder@HVDService@@QAEJXZ 1003a870 f   HVDDxva1Binder.obj
 0002:00011a80       ?SetVideoInfo@CHVDDxva1Binder@HVDService@@AAEJHHPAVCMediaType@@PAVCBasePin@@H@Z 1003aa80 f   HVDDxva1Binder.obj
 0002:00012380       ?Format@CMediaType@@QBEPAEXZ 1003b380 f i HVDDxva1Binder.obj
 0002:000123c0       ?FormatType@CMediaType@@QBEPBU_GUID@@XZ 1003b3c0 f i HVDDxva1Binder.obj
 0002:00012400       ??0FOURCCMap@@QAE@PBU_GUID@@@Z 1003b400 f i HVDDxva1Binder.obj
 0002:00012470       ?InitGUID@FOURCCMap@@AAEXXZ 1003b470 f i HVDDxva1Binder.obj
 0002:000124e0       ?SetFOURCC@FOURCCMap@@QAEXPBU_GUID@@@Z 1003b4e0 f i HVDDxva1Binder.obj
 0002:00012550       ?SetFOURCC@FOURCCMap@@QAEXK@Z 1003b550 f i HVDDxva1Binder.obj
 0002:000125a0       ?GetFOURCC@FOURCCMap@@QAEKXZ 1003b5a0 f i HVDDxva1Binder.obj
 0002:000125e0       ?SetDeinterlaceMode@CHVDDxva1Binder@HVDService@@AAEJPAUtagVIDEOINFOHEADER2@@@Z 1003b5e0 f   HVDDxva1Binder.obj
 0002:00012b70       ??1?$CComPtr@UIVMRDeinterlaceControl9@@@ATL@@QAE@XZ 1003bb70 f i HVDDxva1Binder.obj
 0002:00012bc0       ??0?$CGenericList@VCHVDDSOutPin@HVDService@@@@QAE@PBD@Z 1003bbc0 f i HVDDxva1Binder.obj
 0002:00012c20       ??0?$CComPtr@UIUnknown@@@ATL@@QAE@XZ 1003bc20 f i HVDDxva1Binder.obj
 0002:00012c80       ??1?$CComPtrBase@UIUnknown@@@ATL@@QAE@XZ 1003bc80 f i HVDDxva1Binder.obj
 0002:00012cf0       ??B?$CComPtrBase@UIUnknown@@@ATL@@QBEPAUIUnknown@@XZ 1003bcf0 f i HVDDxva1Binder.obj
 0002:00012d30       ??I?$CComPtrBase@UIUnknown@@@ATL@@QAEPAPAUIUnknown@@XZ 1003bd30 f i HVDDxva1Binder.obj
 0002:00012dc0       ??0?$CComPtr@UIVMRDeinterlaceControl9@@@ATL@@QAE@XZ 1003bdc0 f i HVDDxva1Binder.obj
 0002:00012e20       ??1?$CComPtrBase@UIVMRDeinterlaceControl9@@@ATL@@QAE@XZ 1003be20 f i HVDDxva1Binder.obj
 0002:00012e90       ??I?$CComPtrBase@UIVMRDeinterlaceControl9@@@ATL@@QAEPAPAUIVMRDeinterlaceControl9@@XZ 1003be90 f i HVDDxva1Binder.obj
 0002:00012f20       ??C?$CComPtrBase@UIVMRDeinterlaceControl9@@@ATL@@QBEPAV?$_NoAddRefReleaseOnCComPtr@UIVMRDeinterlaceControl9@@@1@XZ 1003bf20 f i HVDDxva1Binder.obj
 0002:00012fb0       ??0?$CComPtrBase@UIUnknown@@@ATL@@IAE@XZ 1003bfb0 f i HVDDxva1Binder.obj
 0002:00013000       ??0?$CComPtrBase@UIVMRDeinterlaceControl9@@@ATL@@IAE@XZ 1003c000 f i HVDDxva1Binder.obj
 0002:00013050       ?AddRef@CHVDDxva1Binder@HVDService@@W3AGKXZ 1003c050 f i HVDDxva1Binder.obj
 0002:00013060       ?QueryInterface@CHVDDxva1Binder@HVDService@@W3AGJABU_GUID@@PAPAX@Z 1003c060 f i HVDDxva1Binder.obj
 0002:00013070       ?Release@CHVDDxva1Binder@HVDService@@W3AGKXZ 1003c070 f i HVDDxva1Binder.obj
 0002:00013080       ??0Thank_you@Define_the_symbol__ATL_MIXED@@QAE@XZ 1003c080 f i HVDDxva1Binder.obj
 0002:000130d0       ?one@Thank_you@Define_the_symbol__ATL_MIXED@@UAEXXZ 1003c0d0 f i HVDDxva1Binder.obj
 0002:00013110       ??0CFastReadback@HVDService@@QAE@XZ 1003c110 f   HVDFastReadback.obj
 0002:000131b0       ??_GCFastReadback@HVDService@@UAEPAXI@Z 1003c1b0 f i HVDFastReadback.obj
 0002:000131b0       ??_ECFastReadback@HVDService@@UAEPAXI@Z 1003c1b0 f i HVDFastReadback.obj
 0002:00013220       ??1CFastReadback@HVDService@@UAE@XZ 1003c220 f   HVDFastReadback.obj
 0002:00013280       ?Open@CFastReadback@HVDService@@UAEJPAUFastReadbackInit@2@@Z 1003c280 f   HVDFastReadback.obj
 0002:000132c0       ?Readback@CFastReadback@HVDService@@UAEJPAUIDirect3DSurface9@@KPAUHVDDxva2UncompBufLockInfo@2@PAUHVDFastReadbackOption@2@@Z 1003c2c0 f   HVDFastReadback.obj
 0002:00013300       ?Close@CFastReadback@HVDService@@UAEJXZ 1003c300 f   HVDFastReadback.obj
 0002:00013340       ?GetID@CFastReadback@HVDService@@UAEHXZ 1003c340 f   HVDFastReadback.obj
 0002:00013380       ??0CD3DFastReadback@HVDService@@QAE@XZ 1003c380 f   HVDFastReadback.obj
 0002:00013420       ?GetID@CD3DFastReadback@HVDService@@UAEHXZ 1003c420 f i HVDFastReadback.obj
 0002:00013460       ??_GCD3DFastReadback@HVDService@@UAEPAXI@Z 1003c460 f i HVDFastReadback.obj
 0002:00013460       ??_ECD3DFastReadback@HVDService@@UAEPAXI@Z 1003c460 f i HVDFastReadback.obj
 0002:000134d0       ??1CD3DFastReadback@HVDService@@UAE@XZ 1003c4d0 f   HVDFastReadback.obj
 0002:00013570       ??1?$CComPtr@UIDirect3DSurface9@@@ATL@@QAE@XZ 1003c570 f i HVDFastReadback.obj
 0002:000135c0       ??1?$CComPtr@UIDirect3DTexture9@@@ATL@@QAE@XZ 1003c5c0 f i HVDFastReadback.obj
 0002:00013610       ?Open@CD3DFastReadback@HVDService@@UAEJPAUFastReadbackInit@2@@Z 1003c610 f   HVDFastReadback.obj
 0002:00013740       ?Readback@CD3DFastReadback@HVDService@@UAEJPAUIDirect3DSurface9@@KPAUHVDDxva2UncompBufLockInfo@2@PAUHVDFastReadbackOption@2@@Z 1003c740 f   HVDFastReadback.obj
 0002:00014220       ?Close@CD3DFastReadback@HVDService@@UAEJXZ 1003d220 f   HVDFastReadback.obj
 0002:00014280       ??0CNVFastReadback@HVDService@@QAE@XZ 1003d280 f   HVDFastReadback.obj
 0002:000142e0       ?GetID@CNVFastReadback@HVDService@@UAEHXZ 1003d2e0 f i HVDFastReadback.obj
 0002:00014320       ??_GCNVFastReadback@HVDService@@UAEPAXI@Z 1003d320 f i HVDFastReadback.obj
 0002:00014320       ??_ECNVFastReadback@HVDService@@UAEPAXI@Z 1003d320 f i HVDFastReadback.obj
 0002:00014390       ??1CNVFastReadback@HVDService@@UAE@XZ 1003d390 f   HVDFastReadback.obj
 0002:00014430       ?Open@CNVFastReadback@HVDService@@UAEJPAUFastReadbackInit@2@@Z 1003d430 f   HVDFastReadback.obj
 0002:000146d0       ?Readback@CNVFastReadback@HVDService@@UAEJPAUIDirect3DSurface9@@KPAUHVDDxva2UncompBufLockInfo@2@PAUHVDFastReadbackOption@2@@Z 1003d6d0 f   HVDFastReadback.obj
 0002:00014830       ?Close@CNVFastReadback@HVDService@@UAEJXZ 1003d830 f   HVDFastReadback.obj
 0002:00014940       ??0CIntelFastReadback@HVDService@@QAE@XZ 1003d940 f   HVDFastReadback.obj
 0002:00014ac0       ?GetID@CIntelFastReadback@HVDService@@UAEHXZ 1003dac0 f i HVDFastReadback.obj
 0002:00014b00       ??_ECIntelFastReadback@HVDService@@UAEPAXI@Z 1003db00 f i HVDFastReadback.obj
 0002:00014b00       ??_GCIntelFastReadback@HVDService@@UAEPAXI@Z 1003db00 f i HVDFastReadback.obj
 0002:00014b70       ??1CIntelFastReadback@HVDService@@UAE@XZ 1003db70 f   HVDFastReadback.obj
 0002:00014f00       ?CreateRenderTarget@CIntelFastReadback@HVDService@@IAEJW4_D3DFORMAT@@@Z 1003df00 f   HVDFastReadback.obj
 0002:00014fe0       ?Open@CIntelFastReadback@HVDService@@UAEJPAUFastReadbackInit@2@@Z 1003dfe0 f   HVDFastReadback.obj
 0002:00015450       ?IsPresent@CFastCompositingDevice@@QAEHXZ 1003e450 f i HVDFastReadback.obj
 0002:00015490       ?Readback@CIntelFastReadback@HVDService@@UAEJPAUIDirect3DSurface9@@KPAUHVDDxva2UncompBufLockInfo@2@PAUHVDFastReadbackOption@2@@Z 1003e490 f   HVDFastReadback.obj
 0002:00015900       ?Close@CIntelFastReadback@HVDService@@UAEJXZ 1003e900 f   HVDFastReadback.obj
 0002:00015bb0       ??_GCFastCompositingDevice@@QAEPAXI@Z 1003ebb0 f i HVDFastReadback.obj
 0002:00015c20       ?Intel_Init@CIntelFastReadback@HVDService@@IAEJXZ 1003ec20 f   HVDFastReadback.obj
 0002:00015d10       ?CreateAuxiliaryDevice@CIntelFastReadback@HVDService@@IAEJXZ 1003ed10 f   HVDFastReadback.obj
 0002:00016250       ?QueryFastcopy@CIntelFastReadback@HVDService@@IAEJXZ 1003f250 f   HVDFastReadback.obj
 0002:00016520       ?CreateFastCopyDevice@CIntelFastReadback@HVDService@@IAEJXZ 1003f520 f   HVDFastReadback.obj
 0002:00016750       ?QueryAccelRTFormats@CIntelFastReadback@HVDService@@IAEJPAPAW4_D3DFORMAT@@PAI@Z 1003f750 f   HVDFastReadback.obj
 0002:00016990       ?Intel_CreateService@CIntelFastReadback@HVDService@@IAEJXZ 1003f990 f   HVDFastReadback.obj
 0002:00016ba0       ?CreateAccelService@CIntelFastReadback@HVDService@@IAEJPBU_GUID@@PAXPAI@Z 1003fba0 f   HVDFastReadback.obj
 0002:00016cc0       ?QueryAccelCaps@CIntelFastReadback@HVDService@@IAEJPAXPAI@Z 1003fcc0 f   HVDFastReadback.obj
 0002:00016de0       ?FastCopyRegister@CIntelFastReadback@HVDService@@IAAJHPAUIDirect3DSurface9@@ZZ 1003fde0 f   HVDFastReadback.obj
 0002:00016f50       ?FastCopyRegister@CIntelFastReadback@HVDService@@IAEJHPAPAUIDirect3DSurface9@@@Z 1003ff50 f   HVDFastReadback.obj
 0002:00017480       ?FastCopyBlt@CIntelFastReadback@HVDService@@IAEJPAUIDirect3DSurface9@@0@Z 10040480 f   HVDFastReadback.obj
 0002:00017600       ??0CATIFastReadback@HVDService@@QAE@XZ 10040600 f   HVDFastReadback.obj
 0002:00017720       ?GetID@CATIFastReadback@HVDService@@UAEHXZ 10040720 f i HVDFastReadback.obj
 0002:00017760       ??_GCATIFastReadback@HVDService@@UAEPAXI@Z 10040760 f i HVDFastReadback.obj
 0002:00017760       ??_ECATIFastReadback@HVDService@@UAEPAXI@Z 10040760 f i HVDFastReadback.obj
 0002:000177d0       ??1CATIFastReadback@HVDService@@UAE@XZ 100407d0 f   HVDFastReadback.obj
 0002:00017830       ?Open@CATIFastReadback@HVDService@@UAEJPAUFastReadbackInit@2@@Z 10040830 f   HVDFastReadback.obj
 0002:00017c80       ?Readback@CATIFastReadback@HVDService@@UAEJPAUIDirect3DSurface9@@KPAUHVDDxva2UncompBufLockInfo@2@PAUHVDFastReadbackOption@2@@Z 10040c80 f   HVDFastReadback.obj
 0002:00017f90       ?Close@CATIFastReadback@HVDService@@UAEJXZ 10040f90 f   HVDFastReadback.obj
 0002:00018100       ??0?$CComPtr@UIDirect3DSurface9@@@ATL@@QAE@XZ 10041100 f i HVDFastReadback.obj
 0002:00018160       ??4?$CComPtr@UIDirect3DSurface9@@@ATL@@QAEPAUIDirect3DSurface9@@PAU2@@Z 10041160 f i HVDFastReadback.obj
 0002:000181e0       ?AtlComPtrAssign@ATL@@YGPAUIUnknown@@PAPAU2@PAU2@@Z 100411e0 f i HVDFastReadback.obj
 0002:00018290       ??1?$CComPtrBase@UIDirect3DSurface9@@@ATL@@QAE@XZ 10041290 f i HVDFastReadback.obj
 0002:00018300       ??B?$CComPtrBase@UIDirect3DSurface9@@@ATL@@QBEPAUIDirect3DSurface9@@XZ 10041300 f i HVDFastReadback.obj
 0002:00018340       ??I?$CComPtrBase@UIDirect3DSurface9@@@ATL@@QAEPAPAUIDirect3DSurface9@@XZ 10041340 f i HVDFastReadback.obj
 0002:000183d0       ??C?$CComPtrBase@UIDirect3DSurface9@@@ATL@@QBEPAV?$_NoAddRefReleaseOnCComPtr@UIDirect3DSurface9@@@1@XZ 100413d0 f i HVDFastReadback.obj
 0002:00018460       ??7?$CComPtrBase@UIDirect3DSurface9@@@ATL@@QBE_NXZ 10041460 f i HVDFastReadback.obj
 0002:000184b0       ??8?$CComPtrBase@UIDirect3DSurface9@@@ATL@@QBE_NPAUIDirect3DSurface9@@@Z 100414b0 f i HVDFastReadback.obj
 0002:00018500       ?Release@?$CComPtrBase@UIDirect3DSurface9@@@ATL@@QAEXXZ 10041500 f i HVDFastReadback.obj
 0002:00018580       ??0?$CComPtr@UIDirect3DTexture9@@@ATL@@QAE@XZ 10041580 f i HVDFastReadback.obj
 0002:000185e0       ??1?$CComPtrBase@UIDirect3DTexture9@@@ATL@@QAE@XZ 100415e0 f i HVDFastReadback.obj
 0002:00018650       ??B?$CComPtrBase@UIDirect3DTexture9@@@ATL@@QBEPAUIDirect3DTexture9@@XZ 10041650 f i HVDFastReadback.obj
 0002:00018690       ??I?$CComPtrBase@UIDirect3DTexture9@@@ATL@@QAEPAPAUIDirect3DTexture9@@XZ 10041690 f i HVDFastReadback.obj
 0002:00018720       ??C?$CComPtrBase@UIDirect3DTexture9@@@ATL@@QBEPAV?$_NoAddRefReleaseOnCComPtr@UIDirect3DTexture9@@@1@XZ 10041720 f i HVDFastReadback.obj
 0002:000187b0       ??8?$CComPtrBase@UIDirect3DTexture9@@@ATL@@QBE_NPAUIDirect3DTexture9@@@Z 100417b0 f i HVDFastReadback.obj
 0002:00018800       ??0?$CComPtrBase@UIDirect3DSurface9@@@ATL@@IAE@XZ 10041800 f i HVDFastReadback.obj
 0002:00018850       ??9?$CComPtrBase@UIDirect3DSurface9@@@ATL@@QBE_NPAUIDirect3DSurface9@@@Z 10041850 f i HVDFastReadback.obj
 0002:000188c0       ??0?$CComPtrBase@UIDirect3DTexture9@@@ATL@@IAE@XZ 100418c0 f i HVDFastReadback.obj
 0002:00018910       ?GetHVDGuids@CHVDSelector@HVDService@@SAJKKKPAPBU_GUID@@PAK@Z 10041910 f   HVDSelector.obj
 0002:00018b40       ?RecommendSurfaceCount@CHVDSelector@HVDService@@SAJKKKPAK0@Z 10041b40 f   HVDSelector.obj
 0002:00018ce0       _DllMain@12                10041ce0 f   HVDService.obj
 0002:00018d60       _CreateHVDService          10041d60 f   HVDService.obj
 0002:00018fc0       ??0CHVDServiceBase@HVDService@@QAE@XZ 10041fc0 f   HVDServiceBase.obj
 0002:00019180       ??_ECHVDServiceBase@HVDService@@UAEPAXI@Z 10042180 f i HVDServiceBase.obj
 0002:00019180       ??_GCHVDServiceBase@HVDService@@UAEPAXI@Z 10042180 f i HVDServiceBase.obj
 0002:000191f0       ??0IHVDService@@QAE@XZ     100421f0 f i HVDServiceBase.obj
 0002:00019250       ??1CHVDServiceBase@HVDService@@UAE@XZ 10042250 f   HVDServiceBase.obj
 0002:00019340       ?QueryInterface@CHVDServiceBase@HVDService@@UAGJABU_GUID@@PAPAX@Z 10042340 f   HVDServiceBase.obj
 0002:000193f0       ?AddRef@CHVDServiceBase@HVDService@@UAGKXZ 100423f0 f   HVDServiceBase.obj
 0002:00019480       ?Release@CHVDServiceBase@HVDService@@UAGKXZ 10042480 f   HVDServiceBase.obj
 0002:00019580       ?Initialize@CHVDServiceBase@HVDService@@UAGJPAUHVDInitConfig@2@@Z 10042580 f   HVDServiceBase.obj
 0002:00019710       ?Uninitialize@CHVDServiceBase@HVDService@@UAGJXZ 10042710 f   HVDServiceBase.obj
 0002:00019790       ?StartServiceA@CHVDServiceBase@HVDService@@UAGJPAUHVDDecodeConfig@2@@Z 10042790 f   HVDServiceBase.obj
 0002:00019840       ?GetDecoderGuid@CHVDServiceBase@HVDService@@UAGJPAU_GUID@@@Z 10042840 f   HVDServiceBase.obj
 0002:000198b0       ?GetSupportedDecoderCount@CHVDServiceBase@HVDService@@UAGJPAI@Z 100428b0 f   HVDServiceBase.obj
 0002:00019910       ?GetSupportedDecoderGUIDs@CHVDServiceBase@HVDService@@UAGJPAU_GUID@@@Z 10042910 f   HVDServiceBase.obj
 0002:000199c0       ?AdviseEventNotify@CHVDServiceBase@HVDService@@UAGJPAUIHVDServiceNotify@@@Z 100429c0 f   HVDServiceBase.obj
 0002:00019a90       ?UnadviseEventNotify@CHVDServiceBase@HVDService@@UAGJPAUIHVDServiceNotify@@@Z 10042a90 f   HVDServiceBase.obj
 0002:00019c60       ??1?$_Vector_iterator@PAUIHVDServiceNotify@@V?$allocator@PAUIHVDServiceNotify@@@std@@@std@@QAE@XZ 10042c60 f i HVDServiceBase.obj
 0002:00019cb0       ??0?$_Vector_iterator@PAUIHVDServiceNotify@@V?$allocator@PAUIHVDServiceNotify@@@std@@@std@@QAE@ABV01@@Z 10042cb0 f i HVDServiceBase.obj
 0002:00019d10       ??1?$_Vector_const_iterator@PAUIHVDServiceNotify@@V?$allocator@PAUIHVDServiceNotify@@@std@@@std@@QAE@XZ 10042d10 f i HVDServiceBase.obj
 0002:00019d60       ??0?$_Vector_const_iterator@PAUIHVDServiceNotify@@V?$allocator@PAUIHVDServiceNotify@@@std@@@std@@QAE@ABV01@@Z 10042d60 f i HVDServiceBase.obj
 0002:00019dd0       ??1?$_Ranit@PAUIHVDServiceNotify@@HPBQAU1@ABQAU1@@std@@QAE@XZ 10042dd0 f i HVDServiceBase.obj
 0002:00019e20       ??1_Iterator_base@std@@QAE@XZ 10042e20 f i HVDServiceBase.obj
 0002:00019f20       ?_Orphan_me@_Iterator_base@std@@QAEXXZ 10042f20 f i HVDServiceBase.obj
 0002:0001a000       ??0?$_Ranit@PAUIHVDServiceNotify@@HPBQAU1@ABQAU1@@std@@QAE@ABU01@@Z 10043000 f i HVDServiceBase.obj
 0002:0001a060       ??0_Iterator_base@std@@QAE@ABV01@@Z 10043060 f i HVDServiceBase.obj
 0002:0001a0e0       ??4_Iterator_base@std@@QAEAAV01@ABV01@@Z 100430e0 f i HVDServiceBase.obj
 0002:0001a210       ?_Adopt@_Iterator_base@std@@QAEXPBV_Container_base@2@@Z 10043210 f i HVDServiceBase.obj
 0002:0001a350       ?GetHVDDecodeConfig@CHVDServiceBase@HVDService@@UAGJPAUHVDDecodeConfig@2@@Z 10043350 f   HVDServiceBase.obj
 0002:0001a3d0       ?_Initialize@CHVDServiceBase@HVDService@@MAEJPAUHVDInitConfig@2@@Z 100433d0 f   HVDServiceBase.obj
 0002:0001a410       ?_Uninitialize@CHVDServiceBase@HVDService@@MAEJXZ 10043410 f   HVDServiceBase.obj
 0002:0001a450       ?_StartService@CHVDServiceBase@HVDService@@MAEJXZ 10043450 f   HVDServiceBase.obj
 0002:0001a4c0       ?_StopService@CHVDServiceBase@HVDService@@MAEJXZ 100434c0 f   HVDServiceBase.obj
 0002:0001a530       ?_NotifyEvent@CHVDServiceBase@HVDService@@MAEJKKK@Z 10043530 f   HVDServiceBase.obj
 0002:0001a700       ??0?$vector@PAUIHVDServiceNotify@@V?$allocator@PAUIHVDServiceNotify@@@std@@@std@@QAE@XZ 10043700 f i HVDServiceBase.obj
 0002:0001a7c0       ??1?$vector@PAUIHVDServiceNotify@@V?$allocator@PAUIHVDServiceNotify@@@std@@@std@@QAE@XZ 100437c0 f i HVDServiceBase.obj
 0002:0001a860       ?begin@?$vector@PAUIHVDServiceNotify@@V?$allocator@PAUIHVDServiceNotify@@@std@@@std@@QAE?AV?$_Vector_iterator@PAUIHVDServiceNotify@@V?$allocator@PAUIHVDServiceNotify@@@std@@@2@XZ 10043860 f i HVDServiceBase.obj
 0002:0001a8f0       ?end@?$vector@PAUIHVDServiceNotify@@V?$allocator@PAUIHVDServiceNotify@@@std@@@std@@QAE?AV?$_Vector_iterator@PAUIHVDServiceNotify@@V?$allocator@PAUIHVDServiceNotify@@@std@@@2@XZ 100438f0 f i HVDServiceBase.obj
 0002:0001a980       ?push_back@?$vector@PAUIHVDServiceNotify@@V?$allocator@PAUIHVDServiceNotify@@@std@@@std@@QAEXABQAUIHVDServiceNotify@@@Z 10043980 f i HVDServiceBase.obj
 0002:0001aa70       ?erase@?$vector@PAUIHVDServiceNotify@@V?$allocator@PAUIHVDServiceNotify@@@std@@@std@@QAE?AV?$_Vector_iterator@PAUIHVDServiceNotify@@V?$allocator@PAUIHVDServiceNotify@@@std@@@2@V32@@Z 10043a70 f i HVDServiceBase.obj
 0002:0001ac00       ??D?$_Vector_iterator@PAUIHVDServiceNotify@@V?$allocator@PAUIHVDServiceNotify@@@std@@@std@@QBEAAPAUIHVDServiceNotify@@XZ 10043c00 f i HVDServiceBase.obj
 0002:0001ac50       ??E?$_Vector_iterator@PAUIHVDServiceNotify@@V?$allocator@PAUIHVDServiceNotify@@@std@@@std@@QAEAAV01@XZ 10043c50 f i HVDServiceBase.obj
 0002:0001acb0       ??9?$_Vector_const_iterator@PAUIHVDServiceNotify@@V?$allocator@PAUIHVDServiceNotify@@@std@@@std@@QBE_NABV01@@Z 10043cb0 f i HVDServiceBase.obj
 0002:0001ad20       ??1?$_Vector_val@PAUIHVDServiceNotify@@V?$allocator@PAUIHVDServiceNotify@@@std@@@std@@QAE@XZ 10043d20 f i HVDServiceBase.obj
 0002:0001ad80       ?capacity@?$vector@PAUIHVDServiceNotify@@V?$allocator@PAUIHVDServiceNotify@@@std@@@std@@QBEIXZ 10043d80 f i HVDServiceBase.obj
 0002:0001adf0       ?size@?$vector@PAUIHVDServiceNotify@@V?$allocator@PAUIHVDServiceNotify@@@std@@@std@@QBEIXZ 10043df0 f i HVDServiceBase.obj
 0002:0001ae60       ?insert@?$vector@PAUIHVDServiceNotify@@V?$allocator@PAUIHVDServiceNotify@@@std@@@std@@QAE?AV?$_Vector_iterator@PAUIHVDServiceNotify@@V?$allocator@PAUIHVDServiceNotify@@@std@@@2@V32@ABQAUIHVDServiceNotify@@@Z 10043e60 f i HVDServiceBase.obj
 0002:0001b060       ?_Buy@?$vector@PAUIHVDServiceNotify@@V?$allocator@PAUIHVDServiceNotify@@@std@@@std@@IAE_NI@Z 10044060 f i HVDServiceBase.obj
 0002:0001b140       ?_Destroy@?$vector@PAUIHVDServiceNotify@@V?$allocator@PAUIHVDServiceNotify@@@std@@@std@@IAEXPAPAUIHVDServiceNotify@@0@Z 10044140 f i HVDServiceBase.obj
 0002:0001b1b0       ?_Tidy@?$vector@PAUIHVDServiceNotify@@V?$allocator@PAUIHVDServiceNotify@@@std@@@std@@IAEXXZ 100441b0 f i HVDServiceBase.obj
 0002:0001b290       ?_Ufill@?$vector@PAUIHVDServiceNotify@@V?$allocator@PAUIHVDServiceNotify@@@std@@@std@@IAEPAPAUIHVDServiceNotify@@PAPAU3@IABQAU3@@Z 10044290 f i HVDServiceBase.obj
 0002:0001b310       ?_Orphan_range@?$vector@PAUIHVDServiceNotify@@V?$allocator@PAUIHVDServiceNotify@@@std@@@std@@IBEXPAPAUIHVDServiceNotify@@0@Z 10044310 f i HVDServiceBase.obj
 0002:0001b420       ??0?$_Vector_val@PAUIHVDServiceNotify@@V?$allocator@PAUIHVDServiceNotify@@@std@@@std@@IAE@V?$allocator@PAUIHVDServiceNotify@@@1@@Z 10044420 f i HVDServiceBase.obj
 0002:0001b4a0       ??0?$allocator@PAUIHVDServiceNotify@@@std@@QAE@XZ 100444a0 f i HVDServiceBase.obj
 0002:0001b4e0       ??0?$_Vector_iterator@PAUIHVDServiceNotify@@V?$allocator@PAUIHVDServiceNotify@@@std@@@std@@QAE@PAPAUIHVDServiceNotify@@PBV_Container_base@1@@Z 100444e0 f i HVDServiceBase.obj
 0002:0001b540       ??D?$_Vector_const_iterator@PAUIHVDServiceNotify@@V?$allocator@PAUIHVDServiceNotify@@@std@@@std@@QBEABQAUIHVDServiceNotify@@XZ 10044540 f i HVDServiceBase.obj
 0002:0001b650       ??E?$_Vector_const_iterator@PAUIHVDServiceNotify@@V?$allocator@PAUIHVDServiceNotify@@@std@@@std@@QAEAAV01@XZ 10044650 f i HVDServiceBase.obj
 0002:0001b7a0       ??8?$_Vector_const_iterator@PAUIHVDServiceNotify@@V?$allocator@PAUIHVDServiceNotify@@@std@@@std@@QBE_NABV01@@Z 100447a0 f i HVDServiceBase.obj
 0002:0001b810       ?max_size@?$vector@PAUIHVDServiceNotify@@V?$allocator@PAUIHVDServiceNotify@@@std@@@std@@QBEIXZ 10044810 f i HVDServiceBase.obj
 0002:0001b870       ?_Insert_n@?$vector@PAUIHVDServiceNotify@@V?$allocator@PAUIHVDServiceNotify@@@std@@@std@@IAEXV?$_Vector_iterator@PAUIHVDServiceNotify@@V?$allocator@PAUIHVDServiceNotify@@@std@@@2@IABQAUIHVDServiceNotify@@@Z 10044870 f i HVDServiceBase.obj
 0002:0001bda0       ?_Xlen@?$vector@PAUIHVDServiceNotify@@V?$allocator@PAUIHVDServiceNotify@@@std@@@std@@KAXXZ 10044da0 f i HVDServiceBase.obj
 0002:0001be90       ??0length_error@std@@QAE@ABV?$basic_string@DU?$char_traits@D@std@@V?$allocator@D@2@@1@@Z 10044e90 f i HVDServiceBase.obj
 0002:0001bf00       ??0logic_error@std@@QAE@ABV?$basic_string@DU?$char_traits@D@std@@V?$allocator@D@2@@1@@Z 10044f00 f i HVDServiceBase.obj
 0002:0001bfe0       ?what@logic_error@std@@UBEPBDXZ 10044fe0 f i HVDServiceBase.obj
 0002:0001c040       ??_Elogic_error@std@@UAEPAXI@Z 10045040 f i HVDServiceBase.obj
 0002:0001c040       ??_Glogic_error@std@@UAEPAXI@Z 10045040 f i HVDServiceBase.obj
 0002:0001c0b0       ??1logic_error@std@@UAE@XZ 100450b0 f i HVDServiceBase.obj
 0002:0001c130       ??1length_error@std@@UAE@XZ 10045130 f i HVDServiceBase.obj
 0002:0001c190       ??_Glength_error@std@@UAEPAXI@Z 10045190 f i HVDServiceBase.obj
 0002:0001c190       ??_Elength_error@std@@UAEPAXI@Z 10045190 f i HVDServiceBase.obj
 0002:0001c200       ??0?$allocator@PAUIHVDServiceNotify@@@std@@QAE@ABV01@@Z 10045200 f i HVDServiceBase.obj
 0002:0001c240       ?deallocate@?$allocator@PAUIHVDServiceNotify@@@std@@QAEXPAPAUIHVDServiceNotify@@I@Z 10045240 f i HVDServiceBase.obj
 0002:0001c2a0       ?allocate@?$allocator@PAUIHVDServiceNotify@@@std@@QAEPAPAUIHVDServiceNotify@@I@Z 100452a0 f i HVDServiceBase.obj
 0002:0001c300       ??H?$_Vector_iterator@PAUIHVDServiceNotify@@V?$allocator@PAUIHVDServiceNotify@@@std@@@std@@QBE?AV01@H@Z 10045300 f i HVDServiceBase.obj
 0002:0001c420       ??G?$_Vector_iterator@PAUIHVDServiceNotify@@V?$allocator@PAUIHVDServiceNotify@@@std@@@std@@QBEHABV?$_Vector_const_iterator@PAUIHVDServiceNotify@@V?$allocator@PAUIHVDServiceNotify@@@std@@@1@@Z 10045420 f i HVDServiceBase.obj
 0002:0001c480       ??0?$_Vector_const_iterator@PAUIHVDServiceNotify@@V?$allocator@PAUIHVDServiceNotify@@@std@@@std@@QAE@PAPAUIHVDServiceNotify@@PBV_Container_base@1@@Z 10045480 f i HVDServiceBase.obj
 0002:0001c5d0       ?_Compat@?$_Vector_const_iterator@PAUIHVDServiceNotify@@V?$allocator@PAUIHVDServiceNotify@@@std@@@std@@QBEXABV12@@Z 100455d0 f i HVDServiceBase.obj
 0002:0001c6d0       ??0length_error@std@@QAE@ABV01@@Z 100456d0 f i HVDServiceBase.obj
 0002:0001c740       ??0logic_error@std@@QAE@ABV01@@Z 10045740 f i HVDServiceBase.obj
 0002:0001c820       ??0?$_Ranit@PAUIHVDServiceNotify@@HPBQAU1@ABQAU1@@std@@QAE@XZ 10045820 f i HVDServiceBase.obj
 0002:0001c880       ??0_Iterator_base@std@@QAE@XZ 10045880 f i HVDServiceBase.obj
 0002:0001c8d0       ?max_size@?$allocator@PAUIHVDServiceNotify@@@std@@QBEIXZ 100458d0 f i HVDServiceBase.obj
 0002:0001c940       ??Y?$_Vector_iterator@PAUIHVDServiceNotify@@V?$allocator@PAUIHVDServiceNotify@@@std@@@std@@QAEAAV01@H@Z 10045940 f i HVDServiceBase.obj
 0002:0001c9a0       ??G?$_Vector_const_iterator@PAUIHVDServiceNotify@@V?$allocator@PAUIHVDServiceNotify@@@std@@@std@@QBEHABV01@@Z 100459a0 f i HVDServiceBase.obj
 0002:0001ca10       ??Y?$_Vector_const_iterator@PAUIHVDServiceNotify@@V?$allocator@PAUIHVDServiceNotify@@@std@@@std@@QAEAAV01@H@Z 10045a10 f i HVDServiceBase.obj
 0002:0001cba0       ??$unchecked_copy@PAPAUIHVDServiceNotify@@PAPAU1@@stdext@@YAPAPAUIHVDServiceNotify@@PAPAU1@00@Z 10045ba0 f i HVDServiceBase.obj
 0002:0001cc70       ??$_Destroy_range@PAUIHVDServiceNotify@@V?$allocator@PAUIHVDServiceNotify@@@std@@@std@@YAXPAPAUIHVDServiceNotify@@0AAV?$allocator@PAUIHVDServiceNotify@@@0@@Z 10045c70 f i HVDServiceBase.obj
 0002:0001ccf0       ??$unchecked_uninitialized_fill_n@PAPAUIHVDServiceNotify@@IPAU1@V?$allocator@PAUIHVDServiceNotify@@@std@@@stdext@@YAXPAPAUIHVDServiceNotify@@IABQAU1@AAV?$allocator@PAUIHVDServiceNotify@@@std@@@Z 10045cf0 f i HVDServiceBase.obj
 0002:0001cd90       ??$_Umove@PAPAUIHVDServiceNotify@@@?$vector@PAUIHVDServiceNotify@@V?$allocator@PAUIHVDServiceNotify@@@std@@@std@@IAEPAPAUIHVDServiceNotify@@PAPAU2@00@Z 10045d90 f i HVDServiceBase.obj
 0002:0001ce00       ??$fill@PAPAUIHVDServiceNotify@@PAU1@@std@@YAXPAPAUIHVDServiceNotify@@0ABQAU1@@Z 10045e00 f i HVDServiceBase.obj
 0002:0001ce70       ??$_Unchecked_move_backward@PAPAUIHVDServiceNotify@@PAPAU1@@stdext@@YAPAPAUIHVDServiceNotify@@PAPAU1@00@Z 10045e70 f i HVDServiceBase.obj
 0002:0001cf30       ??$_Allocate@PAUIHVDServiceNotify@@@std@@YAPAPAUIHVDServiceNotify@@IPAPAU1@@Z 10045f30 f i HVDServiceBase.obj
 0002:0001cfd0       ??0bad_alloc@std@@QAE@PBD@Z 10045fd0 f i HVDServiceBase.obj
 0002:0001d050       ??1bad_alloc@std@@UAE@XZ   10046050 f i HVDServiceBase.obj
 0002:0001d0c0       ??_Gbad_alloc@std@@UAEPAXI@Z 100460c0 f i HVDServiceBase.obj
 0002:0001d0c0       ??_Ebad_alloc@std@@UAEPAXI@Z 100460c0 f i HVDServiceBase.obj
 0002:0001d130       ??0bad_alloc@std@@QAE@ABV01@@Z 10046130 f i HVDServiceBase.obj
 0002:0001d1b0       ??$_Checked_base@PAPAUIHVDServiceNotify@@@std@@YAPAPAUIHVDServiceNotify@@AAPAPAU1@@Z 100461b0 f i HVDServiceBase.obj
 0002:0001d240       ??$_Iter_random@PAPAUIHVDServiceNotify@@PAPAU1@@std@@YA?AUrandom_access_iterator_tag@0@ABQAPAUIHVDServiceNotify@@0@Z 10046240 f i HVDServiceBase.obj
 0002:0001d2b0       ??$_Ptr_cat@PAPAUIHVDServiceNotify@@PAPAU1@@std@@YA?AU_Scalar_ptr_iterator_tag@0@AAPAPAUIHVDServiceNotify@@0@Z 100462b0 f i HVDServiceBase.obj
 0002:0001d320       ??$_Copy_opt@PAPAUIHVDServiceNotify@@PAPAU1@Urandom_access_iterator_tag@std@@@std@@YAPAPAUIHVDServiceNotify@@PAPAU1@00Urandom_access_iterator_tag@0@U_Scalar_ptr_iterator_tag@0@U_Range_checked_iterator_tag@0@@Z 10046320 f i HVDServiceBase.obj
 0002:0001d400       ??$_Destroy_range@PAUIHVDServiceNotify@@V?$allocator@PAUIHVDServiceNotify@@@std@@@std@@YAXPAPAUIHVDServiceNotify@@0AAV?$allocator@PAUIHVDServiceNotify@@@0@U_Scalar_ptr_iterator_tag@0@@Z 10046400 f i HVDServiceBase.obj
 0002:0001d430       ??$_Uninit_fill_n@PAPAUIHVDServiceNotify@@IPAU1@V?$allocator@PAUIHVDServiceNotify@@@std@@@std@@YAXPAPAUIHVDServiceNotify@@IABQAU1@AAV?$allocator@PAUIHVDServiceNotify@@@0@U_Scalar_ptr_iterator_tag@0@U_Range_checked_iterator_tag@0@@Z 10046430 f i HVDServiceBase.obj
 0002:0001d490       ??$_Unchecked_uninitialized_move@PAPAUIHVDServiceNotify@@PAPAU1@V?$allocator@PAUIHVDServiceNotify@@@std@@@stdext@@YAPAPAUIHVDServiceNotify@@PAPAU1@00AAV?$allocator@PAUIHVDServiceNotify@@@std@@@Z 10046490 f i HVDServiceBase.obj
 0002:0001d540       ??$_Fill@PAPAUIHVDServiceNotify@@PAU1@@std@@YAXPAPAUIHVDServiceNotify@@0ABQAU1@@Z 10046540 f i HVDServiceBase.obj
 0002:0001d5d0       ??$_Move_cat@PAPAUIHVDServiceNotify@@@std@@YA?AU_Undefined_move_tag@0@ABQAPAUIHVDServiceNotify@@@Z 100465d0 f i HVDServiceBase.obj
 0002:0001d640       ??$_Move_backward_opt@PAPAUIHVDServiceNotify@@PAPAU1@Urandom_access_iterator_tag@std@@U_Undefined_move_tag@3@@std@@YAPAPAUIHVDServiceNotify@@PAPAU1@00Urandom_access_iterator_tag@0@U_Undefined_move_tag@0@U_Range_checked_iterator_tag@0@@Z 10046640 f i HVDServiceBase.obj
 0002:0001d6e0       ??$_Checked_base@PAPAUIHVDServiceNotify@@@std@@YAPAPAUIHVDServiceNotify@@AAPAPAU1@U_Unchanged_checked_iterator_base_type_tag@0@@Z 100466e0 f i HVDServiceBase.obj
 0002:0001d720       ??$_Debug_range@PAPAUIHVDServiceNotify@@@std@@YAXPAPAUIHVDServiceNotify@@0PB_WI@Z 10046720 f i HVDServiceBase.obj
 0002:0001d7a0       ??$_Debug_pointer@PAUIHVDServiceNotify@@@std@@YAXPAPAUIHVDServiceNotify@@PB_WI@Z 100467a0 f i HVDServiceBase.obj
 0002:0001d810       ??$unchecked_fill_n@PAPAUIHVDServiceNotify@@IPAU1@@stdext@@YAXPAPAUIHVDServiceNotify@@IABQAU1@@Z 10046810 f i HVDServiceBase.obj
 0002:0001d8a0       ??$_Uninit_move@PAPAUIHVDServiceNotify@@PAPAU1@V?$allocator@PAUIHVDServiceNotify@@@std@@U_Undefined_move_tag@3@@std@@YAPAPAUIHVDServiceNotify@@PAPAU1@00AAV?$allocator@PAUIHVDServiceNotify@@@0@U_Undefined_move_tag@0@U_Range_checked_iterator_tag@0@@Z 100468a0 f i HVDServiceBase.obj
 0002:0001d900       ??$_Copy_backward_opt@PAPAUIHVDServiceNotify@@PAPAU1@Urandom_access_iterator_tag@std@@@std@@YAPAPAUIHVDServiceNotify@@PAPAU1@00Urandom_access_iterator_tag@0@U_Scalar_ptr_iterator_tag@0@U_Range_checked_iterator_tag@0@@Z 10046900 f i HVDServiceBase.obj
 0002:0001d9f0       ??$_Iter_cat@PAPAUIHVDServiceNotify@@@std@@YA?AUrandom_access_iterator_tag@0@ABQAPAUIHVDServiceNotify@@@Z 100469f0 f i HVDServiceBase.obj
 0002:0001da60       ??$_Debug_range2@PAPAUIHVDServiceNotify@@@std@@YAXPAPAUIHVDServiceNotify@@0PB_WIUrandom_access_iterator_tag@0@@Z 10046a60 f i HVDServiceBase.obj
 0002:0001db10       ??$_Fill_n@PAPAUIHVDServiceNotify@@IPAU1@@std@@YAXPAPAUIHVDServiceNotify@@IABQAU1@Urandom_access_iterator_tag@0@U_Range_checked_iterator_tag@0@@Z 10046b10 f i HVDServiceBase.obj
 0002:0001dba0       ??$unchecked_uninitialized_copy@PAPAUIHVDServiceNotify@@PAPAU1@V?$allocator@PAUIHVDServiceNotify@@@std@@@stdext@@YAPAPAUIHVDServiceNotify@@PAPAU1@00AAV?$allocator@PAUIHVDServiceNotify@@@std@@@Z 10046ba0 f i HVDServiceBase.obj
 0002:0001dc50       ??$_Fill_n@PAPAUIHVDServiceNotify@@IPAU1@@std@@YAXPAPAUIHVDServiceNotify@@IABQAU1@U_Range_checked_iterator_tag@0@@Z 10046c50 f i HVDServiceBase.obj
 0002:0001dcb0       ??$_Uninit_copy@PAPAUIHVDServiceNotify@@PAPAU1@V?$allocator@PAUIHVDServiceNotify@@@std@@@std@@YAPAPAUIHVDServiceNotify@@PAPAU1@00AAV?$allocator@PAUIHVDServiceNotify@@@0@U_Scalar_ptr_iterator_tag@0@U_Range_checked_iterator_tag@0@@Z 10046cb0 f i HVDServiceBase.obj
 0002:0001dd80       ??0CHVDServiceDxva1@HVDService@@QAE@XZ 10046d80 f   HVDServiceDxva1.obj
 0002:0001e130       ??_GCHVDServiceDxva1@HVDService@@UAEPAXI@Z 10047130 f i HVDServiceDxva1.obj
 0002:0001e130       ??_ECHVDServiceDxva1@HVDService@@UAEPAXI@Z 10047130 f i HVDServiceDxva1.obj
 0002:0001e1a0       ??0IHVDServiceDxva1@@QAE@XZ 100471a0 f i HVDServiceDxva1.obj
 0002:0001e200       ??0IHVDServiceDxva@@QAE@XZ 10047200 f i HVDServiceDxva1.obj
 0002:0001e260       ??1CHVDServiceDxva1@HVDService@@UAE@XZ 10047260 f   HVDServiceDxva1.obj
 0002:0001e4b0       ?QueryInterface@CHVDServiceDxva1@HVDService@@UAGJABU_GUID@@PAPAX@Z 100474b0 f   HVDServiceDxva1.obj
 0002:0001e5d0       ?AddRef@CHVDServiceDxva1@HVDService@@UAGKXZ 100475d0 f   HVDServiceDxva1.obj
 0002:0001e660       ?Release@CHVDServiceDxva1@HVDService@@UAGKXZ 10047660 f   HVDServiceDxva1.obj
 0002:0001e760       ?_Initialize@CHVDServiceDxva1@HVDService@@UAEJPAUHVDInitConfig@2@@Z 10047760 f   HVDServiceDxva1.obj
 0002:0001eca0       ?_Uninitialize@CHVDServiceDxva1@HVDService@@UAEJXZ 10047ca0 f   HVDServiceDxva1.obj
 0002:0001eda0       ?_StartService@CHVDServiceDxva1@HVDService@@UAEJXZ 10047da0 f   HVDServiceDxva1.obj
 0002:0001f680       ?_StopService@CHVDServiceDxva1@HVDService@@UAEJXZ 10048680 f   HVDServiceDxva1.obj
 0002:0001f7a0       ?LockCompressBuffer@CHVDServiceDxva1@HVDService@@UAGJKKPAUHVDDxvaCompBufLockInfo@2@H@Z 100487a0 f   HVDServiceDxva1.obj
 0002:0001f8c0       ?UnlockCompressBuffer@CHVDServiceDxva1@HVDService@@UAGJKK@Z 100488c0 f   HVDServiceDxva1.obj
 0002:0001f9c0       ?BeginFrame@CHVDServiceDxva1@HVDService@@UAGJK@Z 100489c0 f   HVDServiceDxva1.obj
 0002:0001fb40       ?Execute@CHVDServiceDxva1@HVDService@@UAGJPAUHVDDxvaExecuteConfig@2@@Z 10048b40 f   HVDServiceDxva1.obj
 0002:0001fc80       ?RunDXVAGraph@CHVDServiceDxva1@HVDService@@UAGJXZ 10048c80 f   HVDServiceDxva1.obj
 0002:00020080       ?EndFrame@CHVDServiceDxva1@HVDService@@UAGJK@Z 10049080 f   HVDServiceDxva1.obj
 0002:000201a0       ?GetUncompressedBufferCount@CHVDServiceDxva1@HVDService@@UAGJPAK@Z 100491a0 f   HVDServiceDxva1.obj
 0002:00020200       ?GetUncompresesdBufferFormat@CHVDServiceDxva1@HVDService@@UAGJPAK@Z 10049200 f   HVDServiceDxva1.obj
 0002:000202d0       ?GetAccel@CHVDServiceDxva1@HVDService@@UAGJPAPAUIUnknown@@@Z 100492d0 f   HVDServiceDxva1.obj
 0002:00020370       ?GetDxvaConfigPictureDecode@CHVDServiceDxva1@HVDService@@UAGJPAUHVDDXVAConfigPictureDecode@2@@Z 10049370 f   HVDServiceDxva1.obj
 0002:00020510       ?GetRendererType@CHVDServiceDxva1@HVDService@@UAGJPAK@Z 10049510 f   HVDServiceDxva1.obj
 0002:00020570       ?GetVideoRenderer@CHVDServiceDxva1@HVDService@@UAGJPAPAUIBaseFilter@@@Z 10049570 f   HVDServiceDxva1.obj
 0002:00020620       ?SetDisplaySize@CHVDServiceDxva1@HVDService@@UAGJQAUtagRECT@@@Z 10049620 f   HVDServiceDxva1.obj
 0002:00020690       ?SetVideoWindow@CHVDServiceDxva1@HVDService@@UAGJPAUHWND__@@@Z 10049690 f   HVDServiceDxva1.obj
 0002:00020b60       ?DisplayFrame@CHVDServiceDxva1@HVDService@@UAGJPAUHVDDxva1VideoFrame@2@PAUHVDDxva1SubFrame@2@@Z 10049b60 f   HVDServiceDxva1.obj
 0002:000216b0       ?Repaint@CHVDServiceDxva1@HVDService@@UAGJPAUHDC__@@PAUtagRECT@@@Z 1004a6b0 f   HVDServiceDxva1.obj
 0002:000218d0       ?CreateGraphBuilder@CHVDServiceDxva1@HVDService@@IAEJXZ 1004a8d0 f   HVDServiceDxva1.obj
 0002:00021990       ?CreateVideoRenderer@CHVDServiceDxva1@HVDService@@IAEJXZ 1004a990 f   HVDServiceDxva1.obj
 0002:00022360       ?DestroyGraph@CHVDServiceDxva1@HVDService@@IAEJXZ 1004b360 f   HVDServiceDxva1.obj
 0002:00022520       ?ConnectGraph@CHVDServiceDxva1@HVDService@@IAEJXZ 1004b520 f   HVDServiceDxva1.obj
 0002:00022950       ?DisconnectGraph@CHVDServiceDxva1@HVDService@@IAEJXZ 1004b950 f   HVDServiceDxva1.obj
 0002:00022b00       ?DestroyBinder@CHVDServiceDxva1@HVDService@@IAEJXZ 1004bb00 f   HVDServiceDxva1.obj
 0002:00022d60       ?UpdateAMVideoAccelerator@CHVDServiceDxva1@HVDService@@IAEJXZ 1004bd60 f   HVDServiceDxva1.obj
 0002:00023480       ?CheckDeinterlaceMode@CHVDServiceDxva1@HVDService@@IAEJXZ 1004c480 f   HVDServiceDxva1.obj
 0002:000238d0       ?DSUpdateOutputSample@CHVDServiceDxva1@HVDService@@IAEJPAUHVDDxva1VideoFrame@2@@Z 1004c8d0 f   HVDServiceDxva1.obj
 0002:00023f50       ?SetMixingPref@CHVDServiceDxva1@HVDService@@IAEJKH@Z 1004cf50 f   HVDServiceDxva1.obj
 0002:00024110       ?Run@CHVDServiceDxva1@HVDService@@IAEJXZ 1004d110 f   HVDServiceDxva1.obj
 0002:00024220       ?Stop@CHVDServiceDxva1@HVDService@@IAEJXZ 1004d220 f   HVDServiceDxva1.obj
 0002:000243d0       ?GetUncompSurfNum@CHVDServiceDxva1@HVDService@@IAEKXZ 1004d3d0 f   HVDServiceDxva1.obj
 0002:000247b0       ?GetRecommendedTextureSize@CHVDServiceDxva1@HVDService@@IAEHPAK0@Z 1004d7b0 f   HVDServiceDxva1.obj
 0002:00024880       ?InitializeDXVAConfig@CHVDServiceDxva1@HVDService@@IAEHXZ 1004d880 f   HVDServiceDxva1.obj
 0002:00024bd0       ?InitializeDXVAConfigPicture@CHVDServiceDxva1@HVDService@@IAEHXZ 1004dbd0 f   HVDServiceDxva1.obj
 0002:000253c0       ?InitializeDXVAConfigAlphaLoad@CHVDServiceDxva1@HVDService@@IAEHXZ 1004e3c0 f   HVDServiceDxva1.obj
 0002:00025580       ?InitializeDXVAConfigAlphaComb@CHVDServiceDxva1@HVDService@@IAEHXZ 1004e580 f   HVDServiceDxva1.obj
 0002:000257a0       ?DebugPrintMediaSample@CHVDServiceDxva1@HVDService@@IAEXPAUIMediaSample@@@Z 1004e7a0 f   HVDServiceDxva1.obj
 0002:00025990       ?GetInternalCompBufferInfo@CHVDServiceDxva1@HVDService@@UAGJPAKPAU_tag_AMVACompBufferInfo@@@Z 1004e990 f   HVDServiceDxva1.obj
 0002:00025a20       ?QueryRenderStatus@CHVDServiceDxva1@HVDService@@UAGJKKK@Z 1004ea20 f   HVDServiceDxva1.obj
 0002:00025ab0       ??$QueryInterface@UIBaseFilter@@@IUnknown@@QAGJPAPAUIBaseFilter@@@Z 1004eab0 f i HVDServiceDxva1.obj
 0002:00025b20       ??$QueryInterface@UIMemAllocator@@@IUnknown@@QAGJPAPAUIMemAllocator@@@Z 1004eb20 f i HVDServiceDxva1.obj
 0002:00025b90       ??$wcscpy_s@$0DC@@@YAHAAY0DC@_WPB_W@Z 1004eb90 f i HVDServiceDxva1.obj
 0002:00025c00       ??$QueryInterface@UIVMRFilterConfig9@@@IUnknown@@QAGJPAPAUIVMRFilterConfig9@@@Z 1004ec00 f i HVDServiceDxva1.obj
 0002:00025c70       ??$QueryInterface@UIAMVideoAccelerator@@@IUnknown@@QAGJPAPAUIAMVideoAccelerator@@@Z 1004ec70 f i HVDServiceDxva1.obj
 0002:00025ce0       ??$QueryInterface@UIVMRMixerControl9@@@IUnknown@@QAGJPAPAUIVMRMixerControl9@@@Z 1004ece0 f i HVDServiceDxva1.obj
 0002:00025d50       ??$QueryInterface@UIMediaControl@@@IUnknown@@QAGJPAPAUIMediaControl@@@Z 1004ed50 f i HVDServiceDxva1.obj
 0002:00025dc0       ??$QueryInterface@UIVideoWindow@@@IUnknown@@QAGJPAPAUIVideoWindow@@@Z 1004edc0 f i HVDServiceDxva1.obj
 0002:00025e30       ?Release@CHVDServiceDxva1@HVDService@@WBDE@AGKXZ 1004ee30 f i HVDServiceDxva1.obj
 0002:00025e40       ?AddRef@CHVDServiceDxva1@HVDService@@WBDE@AGKXZ 1004ee40 f i HVDServiceDxva1.obj
 0002:00025e50       ?QueryInterface@CHVDServiceDxva1@HVDService@@WBDE@AGJABU_GUID@@PAPAX@Z 1004ee50 f i HVDServiceDxva1.obj
 0002:00025e60       ??0CSurfacePool@HVDService@@QAE@PAUIDirectXVideoDecoderService@@@Z 1004ee60 f   HVDServiceDxva2.obj
 0002:00025fb0       ??_ECSurfacePool@HVDService@@UAEPAXI@Z 1004efb0 f i HVDServiceDxva2.obj
 0002:00025fb0       ??_GCSurfacePool@HVDService@@UAEPAXI@Z 1004efb0 f i HVDServiceDxva2.obj
 0002:00026020       ??1CSurfacePool@HVDService@@UAE@XZ 1004f020 f   HVDServiceDxva2.obj
 0002:000260c0       ?Allocate@CSurfacePool@HVDService@@QAEJPAUSurfaceInfo@2@@Z 1004f0c0 f   HVDServiceDxva2.obj
 0002:000265e0       ?Release@CSurfacePool@HVDService@@QAEJXZ 1004f5e0 f   HVDServiceDxva2.obj
 0002:00026740       ?GetSurface@CSurfacePool@HVDService@@QAEJKPAPAUIDirect3DSurface9@@@Z 1004f740 f   HVDServiceDxva2.obj
 0002:000267d0       ?_Allocate@CSurfacePool@HVDService@@IAEJKKIW4_D3DFORMAT@@H@Z 1004f7d0 f   HVDServiceDxva2.obj
 0002:00026940       ??0CHVDServiceDxva2@HVDService@@QAE@XZ 1004f940 f   HVDServiceDxva2.obj
 0002:00026b60       ??_GCHVDServiceDxva2@HVDService@@UAEPAXI@Z 1004fb60 f i HVDServiceDxva2.obj
 0002:00026b60       ??_ECHVDServiceDxva2@HVDService@@UAEPAXI@Z 1004fb60 f i HVDServiceDxva2.obj
 0002:00026bd0       ??0IHVDServiceDxva2@@QAE@XZ 1004fbd0 f i HVDServiceDxva2.obj
 0002:00026c30       ??1CHVDServiceDxva2@HVDService@@UAE@XZ 1004fc30 f   HVDServiceDxva2.obj
 0002:00026e20       ?QueryInterface@CHVDServiceDxva2@HVDService@@UAGJABU_GUID@@PAPAX@Z 1004fe20 f   HVDServiceDxva2.obj
 0002:00026f70       ?AddRef@CHVDServiceDxva2@HVDService@@UAGKXZ 1004ff70 f   HVDServiceDxva2.obj
 0002:00027000       ?Release@CHVDServiceDxva2@HVDService@@UAGKXZ 10050000 f   HVDServiceDxva2.obj
 0002:00027100       ?GetAccel@CHVDServiceDxva2@HVDService@@UAGJPAPAUIUnknown@@@Z 10050100 f   HVDServiceDxva2.obj
 0002:000271a0       ?GetDxvaConfigPictureDecode@CHVDServiceDxva2@HVDService@@UAGJPAUHVDDXVAConfigPictureDecode@2@@Z 100501a0 f   HVDServiceDxva2.obj
 0002:00027310       ?_Initialize@CHVDServiceDxva2@HVDService@@UAEJPAUHVDInitConfig@2@@Z 10050310 f   HVDServiceDxva2.obj
 0002:00027440       ?_Uninitialize@CHVDServiceDxva2@HVDService@@UAEJXZ 10050440 f   HVDServiceDxva2.obj
 0002:00027540       ?_StartService@CHVDServiceDxva2@HVDService@@UAEJXZ 10050540 f   HVDServiceDxva2.obj
 0002:00027e60       ?GetFormat@CSurfacePool@HVDService@@QAE?AW4_D3DFORMAT@@XZ 10050e60 f i HVDServiceDxva2.obj
 0002:00027ea0       ?GetSurfaces@CSurfacePool@HVDService@@QAEPAPAUIDirect3DSurface9@@XZ 10050ea0 f i HVDServiceDxva2.obj
 0002:00027ee0       ?_StopService@CHVDServiceDxva2@HVDService@@UAEJXZ 10050ee0 f   HVDServiceDxva2.obj
 0002:00028100       ?LockCompressBuffer@CHVDServiceDxva2@HVDService@@UAGJKKPAUHVDDxvaCompBufLockInfo@2@H@Z 10051100 f   HVDServiceDxva2.obj
 0002:00028210       ?UnlockCompressBuffer@CHVDServiceDxva2@HVDService@@UAGJKK@Z 10051210 f   HVDServiceDxva2.obj
 0002:00028300       ?BeginFrame@CHVDServiceDxva2@HVDService@@UAGJK@Z 10051300 f   HVDServiceDxva2.obj
 0002:00028570       ?Execute@CHVDServiceDxva2@HVDService@@UAGJPAUHVDDxvaExecuteConfig@2@@Z 10051570 f   HVDServiceDxva2.obj
 0002:00028b30       ?EndFrame@CHVDServiceDxva2@HVDService@@UAGJK@Z 10051b30 f   HVDServiceDxva2.obj
 0002:00028c20       ?GetUncompressedBufferCount@CHVDServiceDxva2@HVDService@@UAGJPAK@Z 10051c20 f   HVDServiceDxva2.obj
 0002:00028c80       ?GetUncompresesdBufferFormat@CHVDServiceDxva2@HVDService@@UAGJPAK@Z 10051c80 f   HVDServiceDxva2.obj
 0002:00028d70       ?GetUncompressedBuffer@CHVDServiceDxva2@HVDService@@UAGJKPAPAUIDirect3DSurface9@@@Z 10051d70 f   HVDServiceDxva2.obj
 0002:00028e60       ?LockUncompressedBuffer@CHVDServiceDxva2@HVDService@@UAGJKPAUHVDDxva2UncompBufLockInfo@2@@Z 10051e60 f   HVDServiceDxva2.obj
 0002:00029010       ?UnlockUncompressedBuffer@CHVDServiceDxva2@HVDService@@UAGJK@Z 10052010 f   HVDServiceDxva2.obj
 0002:00029140       ?SetCP@CHVDServiceDxva2@HVDService@@UAGJPAX@Z 10052140 f   HVDServiceDxva2.obj
 0002:00029190       ?FastReadback@CHVDServiceDxva2@HVDService@@UAGJKPAUHVDDxva2UncompBufLockInfo@2@PAUHVDFastReadbackOption@2@@Z 10052190 f   HVDServiceDxva2.obj
 0002:000293a0       ?CreateVideoService@CHVDServiceDxva2@HVDService@@IAEJPAUIUnknown@@@Z 100523a0 f   HVDServiceDxva2.obj
 0002:000297b0       ?ReleaseVideoService@CHVDServiceDxva2@HVDService@@IAEJXZ 100527b0 f   HVDServiceDxva2.obj
 0002:000299a0       ?CreateSurfaces@CHVDServiceDxva2@HVDService@@IAEJPAUSurfaceInfo@2@@Z 100529a0 f   HVDServiceDxva2.obj
 0002:00029b90       ?GetCount@CSurfacePool@HVDService@@QAEKXZ 10052b90 f i HVDServiceDxva2.obj
 0002:00029bd0       ?GetDecodeGUID@CSurfacePool@HVDService@@QAE?AU_GUID@@XZ 10052bd0 f i HVDServiceDxva2.obj
 0002:00029c40       ?ReleaseSurfaces@CHVDServiceDxva2@HVDService@@IAEJXZ 10052c40 f   HVDServiceDxva2.obj
 0002:00029d50       ?CreateDxva2Decoder@CHVDServiceDxva2@HVDService@@IAEJXZ 10052d50 f   HVDServiceDxva2.obj
 0002:0002a3a0       ?QueryInterface@CHVDServiceDxva2@HVDService@@WBDE@AGJABU_GUID@@PAPAX@Z 100533a0 f i HVDServiceDxva2.obj
 0002:0002a3b0       ?Release@CHVDServiceDxva2@HVDService@@WBDE@AGKXZ 100533b0 f i HVDServiceDxva2.obj
 0002:0002a3c0       ?AddRef@CHVDServiceDxva2@HVDService@@WBDE@AGKXZ 100533c0 f i HVDServiceDxva2.obj
 0002:0002a3d0       ??0CIntelAuxiliaryDevice@@QAE@PAUIDirect3DDevice9@@PAUHINSTANCE__@@@Z 100533d0 f   IntelAuxiliaryDevice.obj
 0002:0002a910       ??1CIntelAuxiliaryDevice@@QAE@XZ 10053910 f   IntelAuxiliaryDevice.obj
 0002:0002aa10       ?QueryAccelGuids@CIntelAuxiliaryDevice@@QAEJPAPAU_GUID@@PAI@Z 10053a10 f   IntelAuxiliaryDevice.obj
 0002:0002ac80       ?QueryAccelRTFormats@CIntelAuxiliaryDevice@@QAEJPBU_GUID@@PAPAW4_D3DFORMAT@@PAI@Z 10053c80 f   IntelAuxiliaryDevice.obj
 0002:0002aef0       ?QueryAccelFormats@CIntelAuxiliaryDevice@@QAEJPBU_GUID@@PAPAW4_D3DFORMAT@@PAI@Z 10053ef0 f   IntelAuxiliaryDevice.obj
 0002:0002b160       ?QueryAccelCaps@CIntelAuxiliaryDevice@@QAEJPBU_GUID@@PAXPAI@Z 10054160 f   IntelAuxiliaryDevice.obj
 0002:0002b2e0       ?CreateAccelService@CIntelAuxiliaryDevice@@QAEJPBU_GUID@@PAXPAI@Z 100542e0 f   IntelAuxiliaryDevice.obj
 0002:0002b470       ??0CBaseObject@@QAE@PBD@Z  10054470 f   strmbasd:combase.obj
 0002:0002b4f0       ??1CBaseObject@@QAE@XZ     100544f0 f   strmbasd:combase.obj
 0002:0002b5a0       ?LoadOLEAut32@@YAPAUHINSTANCE__@@XZ 100545a0 f   strmbasd:combase.obj
 0002:0002b610       ??0CUnknown@@QAE@PBDPAUIUnknown@@@Z 10054610 f   strmbasd:combase.obj
 0002:0002b6c0       ??0INonDelegatingUnknown@@QAE@XZ 100546c0 f i strmbasd:combase.obj
 0002:0002b700       ??0CUnknown@@QAE@PBDPAUIUnknown@@PAJ@Z 10054700 f   strmbasd:combase.obj
 0002:0002b7b0       ?NonDelegatingQueryInterface@CUnknown@@UAGJABU_GUID@@PAPAX@Z 100547b0 f   strmbasd:combase.obj
 0002:0002b850       ?NonDelegatingAddRef@CUnknown@@UAGKXZ 10054850 f   strmbasd:combase.obj
 0002:0002b940       ?NonDelegatingRelease@CUnknown@@UAGKXZ 10054940 f   strmbasd:combase.obj
 0002:0002bab0       _GetInterface@8            10054ab0 f   strmbasd:combase.obj
 0002:0002bb30       ?IsEqualObject@@YGHPAUIUnknown@@0@Z 10054b30 f   strmbasd:combase.obj
 0002:0002bdb0       ?DbgInitialise@@YGXPAUHINSTANCE__@@@Z 10054db0 f   strmbasd:wxdebug.obj
 0002:0002be90       ?DbgTerminate@@YGXXZ       10054e90 f   strmbasd:wxdebug.obj
 0002:0002bf50       ?DbgInitKeyLevels@@YGXPAUHKEY__@@_N@Z 10054f50 f   strmbasd:wxdebug.obj
 0002:0002c240       ?DbgOutString@@YGXPBD@Z    10055240 f   strmbasd:wxdebug.obj
 0002:0002c320       ?DbgUniqueProcessName@@YAJPBDPAD@Z 10055320 f   strmbasd:wxdebug.obj
 0002:0002c510       ?StringCchCopyNA@@YGJPADIPBDI@Z 10055510 f i strmbasd:wxdebug.obj
 0002:0002c5a0       ?StringCchPrintfA@@YAJPADIPBDZZ 100555a0 f i strmbasd:wxdebug.obj
 0002:0002c630       ?StringCopyNWorkerA@@YGJPADIPBDI@Z 10055630 f i strmbasd:wxdebug.obj
 0002:0002c700       ?StringVPrintfWorkerA@@YGJPADIPBD0@Z 10055700 f i strmbasd:wxdebug.obj
 0002:0002c7f0       ?DbgInitLogTo@@YGXPAUHKEY__@@@Z 100557f0 f   strmbasd:wxdebug.obj
 0002:0002cc40       ?DbgInitGlobalSettings@@YGX_N@Z 10055c40 f   strmbasd:wxdebug.obj
 0002:0002ce00       ?DbgInitModuleSettings@@YGX_N@Z 10055e00 f   strmbasd:wxdebug.obj
 0002:0002cfd0       ?DbgInitModuleName@@YGXXZ  10055fd0 f   strmbasd:wxdebug.obj
 0002:0002d100       ?_tcsrchr@@YAPADPADI@Z     10056100 f i strmbasd:wxdebug.obj
 0002:0002d160       __tcsrchr                  10056160 f i strmbasd:wxdebug.obj
 0002:0002d1c0       ?StringCchCopyA@@YGJPADIPBD@Z 100561c0 f i strmbasd:wxdebug.obj
 0002:0002d240       ?StringCopyWorkerA@@YGJPADIPBD@Z 10056240 f i strmbasd:wxdebug.obj
 0002:0002d300       ?MsgBoxThread@@YGKPAX@Z    10056300 f   strmbasd:wxdebug.obj
 0002:0002d390       ?MessageBoxOtherThread@@YAHPAUHWND__@@PBD1K@Z 10056390 f   strmbasd:wxdebug.obj
 0002:0002d4d0       ?DbgAssert@@YGXPBD0H@Z     100564d0 f   strmbasd:wxdebug.obj
 0002:0002d640       ?DbgBreakPoint@@YGXPBD0H@Z 10056640 f   strmbasd:wxdebug.obj
 0002:0002d7b0       ?DbgBreakPoint@@YAXPBDH0ZZ 100567b0 f   strmbasd:wxdebug.obj
 0002:0002d8f0       ?StringCchVPrintfA@@YGJPADIPBD0@Z 100568f0 f i strmbasd:wxdebug.obj
 0002:0002d970       ?DbgCheckModuleLevel@@YGHKK@Z 10056970 f   strmbasd:wxdebug.obj
 0002:0002da80       ?DbgSetModuleLevel@@YGXKK@Z 10056a80 f   strmbasd:wxdebug.obj
 0002:0002db10       ?DbgSetAutoRefreshLevels@@YGX_N@Z 10056b10 f   strmbasd:wxdebug.obj
 0002:0002db50       ?DbgLogInfo@@YAXKKPBDZZ    10056b50 f   strmbasd:wxdebug.obj
 0002:0002dd00       ?StringCchCatA@@YGJPADIPBD@Z 10056d00 f i strmbasd:wxdebug.obj
 0002:0002dd80       ?StringCatWorkerA@@YGJPADIPBD@Z 10056d80 f i strmbasd:wxdebug.obj
 0002:0002de50       ?StringLengthWorkerA@@YGJPBDIPAI@Z 10056e50 f i strmbasd:wxdebug.obj
 0002:0002def0       ?DbgKernelAssert@@YGXPBD0H@Z 10056ef0 f   strmbasd:wxdebug.obj
 0002:0002df70       ?DbgRegisterObjectCreation@@YGKPBDPB_W@Z 10056f70 f   strmbasd:wxdebug.obj
 0002:0002e1b0       ?DbgRegisterObjectDestruction@@YGHK@Z 100571b0 f   strmbasd:wxdebug.obj
 0002:0002e370       ?DbgDumpObjectRegister@@YGXXZ 10057370 f   strmbasd:wxdebug.obj
 0002:0002e5d0       ?DbgWaitForSingleObject@@YGKPAX@Z 100575d0 f   strmbasd:wxdebug.obj
 0002:0002e670       ?DbgWaitForMultipleObjects@@YGKKPBQAXH@Z 10057670 f   strmbasd:wxdebug.obj
 0002:0002e720       ?DbgSetWaitTimeout@@YGXK@Z 10057720 f   strmbasd:wxdebug.obj
 0002:0002e760       ??ACGuidNameList@@QAEPADABU_GUID@@@Z 10057760 f   strmbasd:wxdebug.obj
 0002:0002e830       ??0CDisp@@QAE@_JH@Z        10057830 f   strmbasd:wxdebug.obj
 0002:0002ea10       ??0CDispBasic@@QAE@XZ      10057a10 f i strmbasd:wxdebug.obj
 0002:0002ea60       ??0CDisp@@QAE@ABU_GUID@@@Z 10057a60 f   strmbasd:wxdebug.obj
 0002:0002eb90       ??0CDisp@@QAE@VCRefTime@@@Z 10057b90 f   strmbasd:wxdebug.obj
 0002:0002f020       ??BCRefTime@@QBE_JXZ       10058020 f i strmbasd:wxdebug.obj
 0002:0002f060       ??4CRefTime@@QAEAAV0@_J@Z  10058060 f i strmbasd:wxdebug.obj
 0002:0002f0b0       ??0CDisp@@QAE@PAUIPin@@@Z  100580b0 f   strmbasd:wxdebug.obj
 0002:0002f380       ??0CDisp@@QAE@PAUIUnknown@@@Z 10058380 f   strmbasd:wxdebug.obj
 0002:0002f640       ??1CDisp@@QAE@XZ           10058640 f   strmbasd:wxdebug.obj
 0002:0002f690       ??1CDispBasic@@QAE@XZ      10058690 f   strmbasd:wxdebug.obj
 0002:0002f710       ??0CDisp@@QAE@N@Z          10058710 f   strmbasd:wxdebug.obj
 0002:0002f800       ?DisplayType@@YGXPBDPBU_AMMediaType@@@Z 10058800 f   strmbasd:wxdebug.obj
 0002:0002fe10       ?DumpGraph@@YGXPAUIFilterGraph@@K@Z 10058e10 f   strmbasd:wxdebug.obj
 0002:000303d0       ??1CMediaType@@QAE@XZ      100593d0 f   strmbasd:mtype.obj
 0002:00030420       ??0CMediaType@@QAE@XZ      10059420 f   strmbasd:mtype.obj
 0002:00030480       ??0CMediaType@@QAE@PBU_GUID@@@Z 10059480 f   strmbasd:mtype.obj
 0002:00030500       ??0CMediaType@@QAE@ABU_AMMediaType@@PAJ@Z 10059500 f   strmbasd:mtype.obj
 0002:00030580       ??0CMediaType@@QAE@ABV0@PAJ@Z 10059580 f   strmbasd:mtype.obj
 0002:00030600       ??4CMediaType@@QAEAAV0@ABU_AMMediaType@@@Z 10059600 f   strmbasd:mtype.obj
 0002:00030660       ??4CMediaType@@QAEAAV0@ABV0@@Z 10059660 f   strmbasd:mtype.obj
 0002:000306c0       ??8CMediaType@@QBEHABV0@@Z 100596c0 f   strmbasd:mtype.obj
 0002:000307f0       ??9CMediaType@@QBEHABV0@@Z 100597f0 f   strmbasd:mtype.obj
 0002:00030860       ?Set@CMediaType@@QAEJABV1@@Z 10059860 f   strmbasd:mtype.obj
 0002:000308c0       ?Set@CMediaType@@QAEJABU_AMMediaType@@@Z 100598c0 f   strmbasd:mtype.obj
 0002:00030950       ?IsValid@CMediaType@@QBEHXZ 10059950 f   strmbasd:mtype.obj
 0002:000309c0       ?SetType@CMediaType@@QAEXPBU_GUID@@@Z 100599c0 f   strmbasd:mtype.obj
 0002:00030a20       ?SetSubtype@CMediaType@@QAEXPBU_GUID@@@Z 10059a20 f   strmbasd:mtype.obj
 0002:00030a80       ?GetSampleSize@CMediaType@@QBEKXZ 10059a80 f   strmbasd:mtype.obj
 0002:00030af0       ?IsFixedSize@CMediaType@@QBEHXZ 10059af0 f i strmbasd:mtype.obj
 0002:00030b30       ?SetSampleSize@CMediaType@@QAEXK@Z 10059b30 f   strmbasd:mtype.obj
 0002:00030bb0       ?SetVariableSize@CMediaType@@QAEXXZ 10059bb0 f   strmbasd:mtype.obj
 0002:00030c00       ?SetTemporalCompression@CMediaType@@QAEXH@Z 10059c00 f   strmbasd:mtype.obj
 0002:00030c50       ?SetFormat@CMediaType@@QAEHPAEK@Z 10059c50 f   strmbasd:mtype.obj
 0002:00030d00       ?SetFormatType@CMediaType@@QAEXPBU_GUID@@@Z 10059d00 f   strmbasd:mtype.obj
 0002:00030d60       ?ResetFormatBuffer@CMediaType@@QAEXXZ 10059d60 f   strmbasd:mtype.obj
 0002:00030df0       ?AllocFormatBuffer@CMediaType@@QAEPAEK@Z 10059df0 f   strmbasd:mtype.obj
 0002:00030f30       ?ReallocFormatBuffer@CMediaType@@QAEPAEK@Z 10059f30 f   strmbasd:mtype.obj
 0002:000310c0       ?InitMediaType@CMediaType@@QAEXXZ 1005a0c0 f   strmbasd:mtype.obj
 0002:00031140       ?IsPartiallySpecified@CMediaType@@QBEHXZ 1005a140 f   strmbasd:mtype.obj
 0002:000311d0       ?MatchesPartial@CMediaType@@QBEHPBV1@@Z 1005a1d0 f   strmbasd:mtype.obj
 0002:00031330       ?DeleteMediaType@@YGXPAU_AMMediaType@@@Z 1005a330 f   strmbasd:mtype.obj
 0002:000313a0       ?CreateMediaType@@YGPAU_AMMediaType@@PBU1@@Z 1005a3a0 f   strmbasd:mtype.obj
 0002:00031470       ?CopyMediaType@@YGJPAU_AMMediaType@@PBU1@@Z 1005a470 f   strmbasd:mtype.obj
 0002:000315c0       ?FreeMediaType@@YGXAAU_AMMediaType@@@Z 1005a5c0 f   strmbasd:mtype.obj
 0002:00031680       _CreateAudioMediaType@12   1005a680 f   strmbasd:mtype.obj
 0002:000318b0       ??0FOURCCMap@@QAE@K@Z      1005a8b0 f i strmbasd:mtype.obj
 0002:00031920       ??0CBaseList@@QAE@PBDH@Z   1005a920 f   strmbasd:wxlist.obj
 0002:00031a00       ??0CNodeCache@CBaseList@@QAE@H@Z 1005aa00 f i strmbasd:wxlist.obj
 0002:00031a60       ??0CBaseList@@QAE@PBD@Z    1005aa60 f   strmbasd:wxlist.obj
 0002:00031b40       ??1CBaseList@@QAE@XZ       1005ab40 f   strmbasd:wxlist.obj
 0002:00031c00       ??1CNodeCache@CBaseList@@QAE@XZ 1005ac00 f i strmbasd:wxlist.obj
 0002:00031cc0       ?Next@CNode@CBaseList@@QBEPAV12@XZ 1005acc0 f i strmbasd:wxlist.obj
 0002:00031d00       ??_GCNode@CBaseList@@QAEPAXI@Z 1005ad00 f i strmbasd:wxlist.obj
 0002:00031d70       ??1CNode@CBaseList@@QAE@XZ 1005ad70 f i strmbasd:wxlist.obj
 0002:00031dc0       ?RemoveAll@CBaseList@@QAEXXZ 1005adc0 f   strmbasd:wxlist.obj
 0002:00031eb0       ?GetHeadPositionI@CBaseList@@QBEPAU__POSITION@@XZ 1005aeb0 f   strmbasd:wxlist.obj
 0002:00031ef0       ?GetTailPositionI@CBaseList@@QBEPAU__POSITION@@XZ 1005aef0 f   strmbasd:wxlist.obj
 0002:00031f30       ?GetCountI@CBaseList@@QBEHXZ 1005af30 f   strmbasd:wxlist.obj
 0002:00031f70       ?GetNextI@CBaseList@@IBEPAXAAPAU__POSITION@@@Z 1005af70 f   strmbasd:wxlist.obj
 0002:00032020       ?GetData@CNode@CBaseList@@QBEPAXXZ 1005b020 f i strmbasd:wxlist.obj
 0002:00032060       ?GetI@CBaseList@@IBEPAXPAU__POSITION@@@Z 1005b060 f   strmbasd:wxlist.obj
 0002:000320d0       ?GetValidI@CBaseList@@IBEPAXPAU__POSITION@@@Z 1005b0d0 f   strmbasd:wxlist.obj
 0002:00032130       ?FindI@CBaseList@@IBEPAU__POSITION@@PAX@Z 1005b130 f   strmbasd:wxlist.obj
 0002:000321d0       ?Next@CBaseList@@QBEPAU__POSITION@@PAU2@@Z 1005b1d0 f i strmbasd:wxlist.obj
 0002:00032240       ?RemoveHeadI@CBaseList@@IAEPAXXZ 1005b240 f   strmbasd:wxlist.obj
 0002:000322a0       ?RemoveTailI@CBaseList@@IAEPAXXZ 1005b2a0 f   strmbasd:wxlist.obj
 0002:00032300       ?RemoveI@CBaseList@@IAEPAXPAU__POSITION@@@Z 1005b300 f   strmbasd:wxlist.obj
 0002:00032470       ?Prev@CNode@CBaseList@@QBEPAV12@XZ 1005b470 f i strmbasd:wxlist.obj
 0002:000324b0       ?SetPrev@CNode@CBaseList@@QAEXPAV12@@Z 1005b4b0 f i strmbasd:wxlist.obj
 0002:00032500       ?SetNext@CNode@CBaseList@@QAEXPAV12@@Z 1005b500 f i strmbasd:wxlist.obj
 0002:00032550       ?AddToCache@CNodeCache@CBaseList@@QAEXPAVCNode@2@@Z 1005b550 f i strmbasd:wxlist.obj
 0002:00032630       ?AddTailI@CBaseList@@IAEPAU__POSITION@@PAX@Z 1005b630 f   strmbasd:wxlist.obj
 0002:000327c0       ??0CNode@CBaseList@@QAE@XZ 1005b7c0 f i strmbasd:wxlist.obj
 0002:00032820       ?SetData@CNode@CBaseList@@QAEXPAX@Z 1005b820 f i strmbasd:wxlist.obj
 0002:00032870       ?RemoveFromCache@CNodeCache@CBaseList@@QAEPAVCNode@2@XZ 1005b870 f i strmbasd:wxlist.obj
 0002:00032940       ?AddHeadI@CBaseList@@IAEPAU__POSITION@@PAX@Z 1005b940 f   strmbasd:wxlist.obj
 0002:00032ad0       ?AddTail@CBaseList@@QAEHPAV1@@Z 1005bad0 f   strmbasd:wxlist.obj
 0002:00032b90       ?AddHead@CBaseList@@QAEHPAV1@@Z 1005bb90 f   strmbasd:wxlist.obj
 0002:00032c30       ?Prev@CBaseList@@QBEPAU__POSITION@@PAU2@@Z 1005bc30 f i strmbasd:wxlist.obj
 0002:00032ca0       ?AddAfterI@CBaseList@@IAEPAU__POSITION@@PAU2@PAX@Z 1005bca0 f   strmbasd:wxlist.obj
 0002:00032ec0       ?AddAfter@CBaseList@@QAEHPAU__POSITION@@PAV1@@Z 1005bec0 f   strmbasd:wxlist.obj
 0002:00032f70       ?AddBeforeI@CBaseList@@IAEPAU__POSITION@@PAU2@PAX@Z 1005bf70 f   strmbasd:wxlist.obj
 0002:00033190       ?AddBefore@CBaseList@@QAEHPAU__POSITION@@PAV1@@Z 1005c190 f   strmbasd:wxlist.obj
 0002:00033240       ?MoveToTail@CBaseList@@QAEHPAU__POSITION@@PAV1@@Z 1005c240 f   strmbasd:wxlist.obj
 0002:000333c0       ?MoveToHead@CBaseList@@QAEHPAU__POSITION@@PAV1@@Z 1005c3c0 f   strmbasd:wxlist.obj
 0002:00033540       ?Reverse@CBaseList@@QAEXXZ 1005c540 f   strmbasd:wxlist.obj
 0002:00033600       _CreateMemoryAllocator@4   1005c600 f   strmbasd:amfilter.obj
 0002:00033670       _CreatePosPassThru@16      1005c670 f   strmbasd:amfilter.obj
 0002:00033830       ??0CBaseMediaFilter@@QAE@PBDPAUIUnknown@@PAVCCritSec@@ABU_GUID@@@Z 1005c830 f   strmbasd:amfilter.obj
 0002:00033940       ??0CRefTime@@QAE@XZ        1005c940 f i strmbasd:amfilter.obj
 0002:00033990       ??0IMediaFilter@@QAE@XZ    1005c990 f i strmbasd:amfilter.obj
 0002:000339f0       ??0IPersist@@QAE@XZ        1005c9f0 f i strmbasd:amfilter.obj
 0002:00033a50       ??1CBaseMediaFilter@@UAE@XZ 1005ca50 f   strmbasd:amfilter.obj
 0002:00033b20       ?NonDelegatingQueryInterface@CBaseMediaFilter@@UAGJABU_GUID@@PAPAX@Z 1005cb20 f   strmbasd:amfilter.obj
 0002:00033c30       ?GetClassID@CBaseMediaFilter@@UAGJPAU_GUID@@@Z 1005cc30 f   strmbasd:amfilter.obj
 0002:00033ca0       ?GetState@CBaseMediaFilter@@UAGJKPAW4_FilterState@@@Z 1005cca0 f   strmbasd:amfilter.obj
 0002:00033d00       ?SetSyncSource@CBaseMediaFilter@@UAGJPAUIReferenceClock@@@Z 1005cd00 f   strmbasd:amfilter.obj
 0002:00033e60       ?GetSyncSource@CBaseMediaFilter@@UAGJPAPAUIReferenceClock@@@Z 1005ce60 f   strmbasd:amfilter.obj
 0002:00033fb0       ?Stop@CBaseMediaFilter@@UAGJXZ 1005cfb0 f   strmbasd:amfilter.obj
 0002:00034070       ?Pause@CBaseMediaFilter@@UAGJXZ 1005d070 f   strmbasd:amfilter.obj
 0002:00034130       ?Run@CBaseMediaFilter@@UAGJ_J@Z 1005d130 f   strmbasd:amfilter.obj
 0002:000342b0       ?StreamTime@CBaseMediaFilter@@UAEJAAVCRefTime@@@Z 1005d2b0 f   strmbasd:amfilter.obj
 0002:00034360       ??ZCRefTime@@QAEAAV0@ABV0@@Z 1005d360 f i strmbasd:amfilter.obj
 0002:000343e0       ?NonDelegatingQueryInterface@CBaseFilter@@UAGJABU_GUID@@PAPAX@Z 1005d3e0 f   strmbasd:amfilter.obj
 0002:000345b0       ?NonDelegatingRelease@CBaseFilter@@UAGKXZ 1005d5b0 f   strmbasd:amfilter.obj
 0002:00034630       ??0CBaseFilter@@QAE@PBDPAUIUnknown@@PAVCCritSec@@ABU_GUID@@@Z 1005d630 f   strmbasd:amfilter.obj
 0002:000347a0       ??0IBaseFilter@@QAE@XZ     1005d7a0 f i strmbasd:amfilter.obj
 0002:00034800       ??0IAMovieSetup@@QAE@XZ    1005d800 f i strmbasd:amfilter.obj
 0002:00034860       ??0CBaseFilter@@QAE@PBDPAUIUnknown@@PAVCCritSec@@ABU_GUID@@PAJ@Z 1005d860 f   strmbasd:amfilter.obj
 0002:000349d0       ??1CBaseFilter@@UAE@XZ     1005d9d0 f   strmbasd:amfilter.obj
 0002:00034ad0       ?GetClassID@CBaseFilter@@UAGJPAU_GUID@@@Z 1005dad0 f   strmbasd:amfilter.obj
 0002:00034b40       ?GetState@CBaseFilter@@UAGJKPAW4_FilterState@@@Z 1005db40 f   strmbasd:amfilter.obj
 0002:00034ba0       ?SetSyncSource@CBaseFilter@@UAGJPAUIReferenceClock@@@Z 1005dba0 f   strmbasd:amfilter.obj
 0002:00034d00       ?GetSyncSource@CBaseFilter@@UAGJPAPAUIReferenceClock@@@Z 1005dd00 f   strmbasd:amfilter.obj
 0002:00034e50       ?Stop@CBaseFilter@@UAGJXZ  1005de50 f   strmbasd:amfilter.obj
 0002:00035030       ?IsConnected@CBasePin@@QAEHXZ 1005e030 f i strmbasd:amfilter.obj
 0002:00035080       ?Pause@CBaseFilter@@UAGJXZ 1005e080 f   strmbasd:amfilter.obj
 0002:00035270       ?Run@CBaseFilter@@UAGJ_J@Z 1005e270 f   strmbasd:amfilter.obj
 0002:000354f0       ?StreamTime@CBaseFilter@@UAEJAAVCRefTime@@@Z 1005e4f0 f   strmbasd:amfilter.obj
 0002:000355a0       ?EnumPins@CBaseFilter@@UAGJPAPAUIEnumPins@@@Z 1005e5a0 f   strmbasd:amfilter.obj
 0002:000356c0       ?FindPin@CBaseFilter@@UAGJPB_WPAPAUIPin@@@Z 1005e6c0 f   strmbasd:amfilter.obj
 0002:00035900       ?Name@CBasePin@@QAEPA_WXZ  1005e900 f i strmbasd:amfilter.obj
 0002:00035940       ?QueryFilterInfo@CBaseFilter@@UAGJPAU_FilterInfo@@@Z 1005e940 f   strmbasd:amfilter.obj
 0002:00035a10       ?StringCchCopyW@@YGJPA_WIPB_W@Z 1005ea10 f i strmbasd:amfilter.obj
 0002:00035a90       ?StringCopyWorkerW@@YGJPA_WIPB_W@Z 1005ea90 f i strmbasd:amfilter.obj
 0002:00035b50       ?JoinFilterGraph@CBaseFilter@@UAGJPAUIFilterGraph@@PB_W@Z 1005eb50 f   strmbasd:amfilter.obj
 0002:00035e40       ?StringCchLengthW@@YGJPB_WIPAI@Z 1005ee40 f i strmbasd:amfilter.obj
 0002:00035ec0       ?StringLengthWorkerW@@YGJPB_WIPAI@Z 1005eec0 f i strmbasd:amfilter.obj
 0002:00035f60       ?QueryVendorInfo@CBaseFilter@@UAGJPAPA_W@Z 1005ef60 f   strmbasd:amfilter.obj
 0002:00035fa0       ?NotifyEvent@CBaseFilter@@QAEJJJJ@Z 1005efa0 f   strmbasd:amfilter.obj
 0002:00036070       ?ReconnectPin@CBaseFilter@@QAEJPAUIPin@@PBU_AMMediaType@@@Z 1005f070 f   strmbasd:amfilter.obj
 0002:000361c0       ?GetPinVersion@CBaseFilter@@UAEJXZ 1005f1c0 f   strmbasd:amfilter.obj
 0002:00036200       ?IncrementPinVersion@CBaseFilter@@QAEXXZ 1005f200 f   strmbasd:amfilter.obj
 0002:00036260       ?Register@CBaseFilter@@UAGJXZ 1005f260 f   strmbasd:amfilter.obj
 0002:000363e0       ?Unregister@CBaseFilter@@UAGJXZ 1005f3e0 f   strmbasd:amfilter.obj
 0002:00036580       ??0CEnumPins@@QAE@PAVCBaseFilter@@PAV0@@Z 1005f580 f   strmbasd:amfilter.obj
 0002:000367b0       ??_GCEnumPins@@UAEPAXI@Z   1005f7b0 f i strmbasd:amfilter.obj
 0002:000367b0       ??_ECEnumPins@@UAEPAXI@Z   1005f7b0 f i strmbasd:amfilter.obj
 0002:00036820       ??0IEnumPins@@QAE@XZ       1005f820 f i strmbasd:amfilter.obj
 0002:00036880       ??1?$CGenericList@VCBasePin@@@@QAE@XZ 1005f880 f i strmbasd:amfilter.obj
 0002:000368d0       ??1CEnumPins@@UAE@XZ       1005f8d0 f   strmbasd:amfilter.obj
 0002:000369b0       ?QueryInterface@CEnumPins@@UAGJABU_GUID@@PAPAX@Z 1005f9b0 f   strmbasd:amfilter.obj
 0002:00036a60       ?AddRef@CEnumPins@@UAGKXZ  1005fa60 f   strmbasd:amfilter.obj
 0002:00036ac0       ?Release@CEnumPins@@UAGKXZ 1005fac0 f   strmbasd:amfilter.obj
 0002:00036b90       ?Clone@CEnumPins@@UAGJPAPAUIEnumPins@@@Z 1005fb90 f   strmbasd:amfilter.obj
 0002:00036ce0       ?AreWeOutOfSync@CEnumPins@@AAEHXZ 1005fce0 f i strmbasd:amfilter.obj
 0002:00036d60       ?Next@CEnumPins@@UAGJKPAPAUIPin@@PAK@Z 1005fd60 f   strmbasd:amfilter.obj
 0002:00036fa0       ?Skip@CEnumPins@@UAGJK@Z   1005ffa0 f   strmbasd:amfilter.obj
 0002:00037040       ?Reset@CEnumPins@@UAGJXZ   10060040 f   strmbasd:amfilter.obj
 0002:00037100       ?Refresh@CEnumPins@@AAGJXZ 10060100 f   strmbasd:amfilter.obj
 0002:000371b0       ??0CEnumMediaTypes@@QAE@PAVCBasePin@@PAV0@@Z 100601b0 f   strmbasd:amfilter.obj
 0002:000372f0       ??_GCEnumMediaTypes@@UAEPAXI@Z 100602f0 f i strmbasd:amfilter.obj
 0002:000372f0       ??_ECEnumMediaTypes@@UAEPAXI@Z 100602f0 f i strmbasd:amfilter.obj
 0002:00037360       ??0IEnumMediaTypes@@QAE@XZ 10060360 f i strmbasd:amfilter.obj
 0002:000373c0       ??1CEnumMediaTypes@@UAE@XZ 100603c0 f   strmbasd:amfilter.obj
 0002:00037450       ?QueryInterface@CEnumMediaTypes@@UAGJABU_GUID@@PAPAX@Z 10060450 f   strmbasd:amfilter.obj
 0002:00037500       ?AddRef@CEnumMediaTypes@@UAGKXZ 10060500 f   strmbasd:amfilter.obj
 0002:00037560       ?Release@CEnumMediaTypes@@UAGKXZ 10060560 f   strmbasd:amfilter.obj
 0002:00037630       ?Clone@CEnumMediaTypes@@UAGJPAPAUIEnumMediaTypes@@@Z 10060630 f   strmbasd:amfilter.obj
 0002:00037780       ?AreWeOutOfSync@CEnumMediaTypes@@AAEHXZ 10060780 f i strmbasd:amfilter.obj
 0002:00037800       ?Next@CEnumMediaTypes@@UAGJKPAPAU_AMMediaType@@PAK@Z 10060800 f   strmbasd:amfilter.obj
 0002:00037a80       ?Skip@CEnumMediaTypes@@UAGJK@Z 10060a80 f   strmbasd:amfilter.obj
 0002:00037bf0       ?Reset@CEnumMediaTypes@@UAGJXZ 10060bf0 f   strmbasd:amfilter.obj
 0002:00037c70       ??0CBasePin@@QAE@PBDPAVCBaseFilter@@PAVCCritSec@@PAJPB_WW4_PinDirection@@@Z 10060c70 f   strmbasd:amfilter.obj
 0002:00037f10       ??0CRefTime@@QAE@_J@Z      10060f10 f i strmbasd:amfilter.obj
 0002:00037f60       ??0IPin@@QAE@XZ            10060f60 f i strmbasd:amfilter.obj
 0002:00037fc0       ??0IQualityControl@@QAE@XZ 10060fc0 f i strmbasd:amfilter.obj
 0002:00038020       ??1CBasePin@@UAE@XZ        10061020 f   strmbasd:amfilter.obj
 0002:00038140       ?NonDelegatingQueryInterface@CBasePin@@UAGJABU_GUID@@PAPAX@Z 10061140 f   strmbasd:amfilter.obj
 0002:00038250       ?NonDelegatingAddRef@CBasePin@@UAGKXZ 10061250 f   strmbasd:amfilter.obj
 0002:00038300       ?NonDelegatingRelease@CBasePin@@UAGKXZ 10061300 f   strmbasd:amfilter.obj
 0002:000383b0       ?DisplayPinInfo@CBasePin@@IAEXPAUIPin@@@Z 100613b0 f   strmbasd:amfilter.obj
 0002:000385d0       ?DisplayTypeInfo@CBasePin@@IAEXPAUIPin@@PBVCMediaType@@@Z 100615d0 f   strmbasd:amfilter.obj
 0002:000386a0       ?Connect@CBasePin@@UAGJPAUIPin@@PBU_AMMediaType@@@Z 100616a0 f   strmbasd:amfilter.obj
 0002:00038920       ?IsStopped@CBasePin@@QAEHXZ 10061920 f i strmbasd:amfilter.obj
 0002:00038970       ?AttemptConnection@CBasePin@@IAEJPAUIPin@@PBVCMediaType@@@Z 10061970 f   strmbasd:amfilter.obj
 0002:00038c90       ?TryMediaTypes@CBasePin@@IAEJPAUIPin@@PBVCMediaType@@PAUIEnumMediaTypes@@@Z 10061c90 f   strmbasd:amfilter.obj
 0002:00038ed0       ?AgreeMediaType@CBasePin@@IAEJPAUIPin@@PBVCMediaType@@@Z 10061ed0 f   strmbasd:amfilter.obj
 0002:00039100       ?CompleteConnect@CBasePin@@UAEJPAUIPin@@@Z 10062100 f   strmbasd:amfilter.obj
 0002:00039140       ?SetMediaType@CBasePin@@UAEJPBVCMediaType@@@Z 10062140 f   strmbasd:amfilter.obj
 0002:000391b0       ?CheckConnect@CBasePin@@UAEJPAUIPin@@@Z 100621b0 f   strmbasd:amfilter.obj
 0002:000392d0       ?BreakConnect@CBasePin@@UAEJXZ 100622d0 f   strmbasd:amfilter.obj
 0002:00039310       ?ReceiveConnection@CBasePin@@UAGJPAUIPin@@PBU_AMMediaType@@@Z 10062310 f   strmbasd:amfilter.obj
 0002:00039770       ?Disconnect@CBasePin@@UAGJXZ 10062770 f   strmbasd:amfilter.obj
 0002:000398b0       ?DisconnectInternal@CBasePin@@IAGJXZ 100628b0 f   strmbasd:amfilter.obj
 0002:000399c0       ?ConnectedTo@CBasePin@@UAGJPAPAUIPin@@@Z 100629c0 f   strmbasd:amfilter.obj
 0002:00039a80       ?ConnectionMediaType@CBasePin@@UAGJPAU_AMMediaType@@@Z 10062a80 f   strmbasd:amfilter.obj
 0002:00039c00       ?QueryPinInfo@CBasePin@@UAGJPAU_PinInfo@@@Z 10062c00 f   strmbasd:amfilter.obj
 0002:00039d10       ?QueryDirection@CBasePin@@UAGJPAW4_PinDirection@@@Z 10062d10 f   strmbasd:amfilter.obj
 0002:00039d70       ?QueryId@CBasePin@@UAGJPAPA_W@Z 10062d70 f   strmbasd:amfilter.obj
 0002:00039dd0       ?QueryAccept@CBasePin@@UAGJPBU_AMMediaType@@@Z 10062dd0 f   strmbasd:amfilter.obj
 0002:00039e60       ?EnumMediaTypes@CBasePin@@UAGJPAPAUIEnumMediaTypes@@@Z 10062e60 f   strmbasd:amfilter.obj
 0002:00039f80       ?GetMediaType@CBasePin@@UAEJHPAVCMediaType@@@Z 10062f80 f   strmbasd:amfilter.obj
 0002:00039fc0       ?GetMediaTypeVersion@CBasePin@@UAEJXZ 10062fc0 f   strmbasd:amfilter.obj
 0002:0003a000       ?IncrementTypeVersion@CBasePin@@QAEXXZ 10063000 f   strmbasd:amfilter.obj
 0002:0003a060       ?Active@CBasePin@@UAEJXZ   10063060 f   strmbasd:amfilter.obj
 0002:0003a0a0       ?Run@CBasePin@@UAEJ_J@Z    100630a0 f   strmbasd:amfilter.obj
 0002:0003a0e0       ?Inactive@CBasePin@@UAEJXZ 100630e0 f   strmbasd:amfilter.obj
 0002:0003a120       ?EndOfStream@CBasePin@@UAGJXZ 10063120 f   strmbasd:amfilter.obj
 0002:0003a160       ?SetSink@CBasePin@@UAGJPAUIQualityControl@@@Z 10063160 f   strmbasd:amfilter.obj
 0002:0003a220       ?Notify@CBasePin@@UAGJPAUIBaseFilter@@UtagQuality@@@Z 10063220 f   strmbasd:amfilter.obj
 0002:0003a290       ?NewSegment@CBasePin@@UAGJ_J0N@Z 10063290 f   strmbasd:amfilter.obj
 0002:0003a320       ??0CBaseOutputPin@@QAE@PBDPAVCBaseFilter@@PAVCCritSec@@PAJPB_W@Z 10063320 f   strmbasd:amfilter.obj
 0002:0003a420       ?CompleteConnect@CBaseOutputPin@@UAEJPAUIPin@@@Z 10063420 f   strmbasd:amfilter.obj
 0002:0003a4a0       ?CheckConnect@CBaseOutputPin@@UAEJPAUIPin@@@Z 100634a0 f   strmbasd:amfilter.obj
 0002:0003a550       ?BreakConnect@CBaseOutputPin@@UAEJXZ 10063550 f   strmbasd:amfilter.obj
 0002:0003a670       ?InitAllocator@CBaseOutputPin@@UAEJPAPAUIMemAllocator@@@Z 10063670 f   strmbasd:amfilter.obj
 0002:0003a6d0       ?DecideAllocator@CBaseOutputPin@@UAEJPAUIMemInputPin@@PAPAUIMemAllocator@@@Z 100636d0 f   strmbasd:amfilter.obj
 0002:0003a950       ?GetDeliveryBuffer@CBaseOutputPin@@UAEJPAPAUIMediaSample@@PA_J1K@Z 10063950 f   strmbasd:amfilter.obj
 0002:0003aa00       ?Deliver@CBaseOutputPin@@UAEJPAUIMediaSample@@@Z 10063a00 f   strmbasd:amfilter.obj
 0002:0003aa90       ?DeliverEndOfStream@CBaseOutputPin@@UAEJXZ 10063a90 f   strmbasd:amfilter.obj
 0002:0003ab10       ?Active@CBaseOutputPin@@UAEJXZ 10063b10 f   strmbasd:amfilter.obj
 0002:0003aba0       ?Inactive@CBaseOutputPin@@UAEJXZ 10063ba0 f   strmbasd:amfilter.obj
 0002:0003ac40       ?EndOfStream@CBaseOutputPin@@UAGJXZ 10063c40 f   strmbasd:amfilter.obj
 0002:0003ac80       ?BeginFlush@CBaseOutputPin@@UAGJXZ 10063c80 f   strmbasd:amfilter.obj
 0002:0003acc0       ?EndFlush@CBaseOutputPin@@UAGJXZ 10063cc0 f   strmbasd:amfilter.obj
 0002:0003ad00       ?DeliverBeginFlush@CBaseOutputPin@@UAEJXZ 10063d00 f   strmbasd:amfilter.obj
 0002:0003ad80       ?DeliverEndFlush@CBaseOutputPin@@UAEJXZ 10063d80 f   strmbasd:amfilter.obj
 0002:0003ae00       ?DeliverNewSegment@CBaseOutputPin@@UAEJ_J0N@Z 10063e00 f   strmbasd:amfilter.obj
 0002:0003aea0       ??0CBaseInputPin@@QAE@PBDPAVCBaseFilter@@PAVCCritSec@@PAJPB_W@Z 10063ea0 f   strmbasd:amfilter.obj
 0002:0003af70       ??0IMemInputPin@@QAE@XZ    10063f70 f i strmbasd:amfilter.obj
 0002:0003afd0       ??1CBaseInputPin@@UAE@XZ   10063fd0 f   strmbasd:amfilter.obj
 0002:0003b0b0       ?NonDelegatingQueryInterface@CBaseInputPin@@UAGJABU_GUID@@PAPAX@Z 100640b0 f   strmbasd:amfilter.obj
 0002:0003b170       ?GetAllocator@CBaseInputPin@@UAGJPAPAUIMemAllocator@@@Z 10064170 f   strmbasd:amfilter.obj
 0002:0003b330       ?NotifyAllocator@CBaseInputPin@@UAGJPAUIMemAllocator@@H@Z 10064330 f   strmbasd:amfilter.obj
 0002:0003b4a0       ?BreakConnect@CBaseInputPin@@UAEJXZ 100644a0 f   strmbasd:amfilter.obj
 0002:0003b570       ?Receive@CBaseInputPin@@UAGJPAUIMediaSample@@@Z 10064570 f   strmbasd:amfilter.obj
 0002:0003b960       ?ReceiveMultiple@CBaseInputPin@@UAGJPAPAUIMediaSample@@JPAJ@Z 10064960 f   strmbasd:amfilter.obj
 0002:0003ba50       ?ReceiveCanBlock@CBaseInputPin@@UAGJXZ 10064a50 f   strmbasd:amfilter.obj
 0002:0003bcf0       ?BeginFlush@CBaseInputPin@@UAGJXZ 10064cf0 f   strmbasd:amfilter.obj
 0002:0003be20       ?EndFlush@CBaseInputPin@@UAGJXZ 10064e20 f   strmbasd:amfilter.obj
 0002:0003bf60       ?Notify@CBaseInputPin@@UAGJPAUIBaseFilter@@UtagQuality@@@Z 10064f60 f   strmbasd:amfilter.obj
 0002:0003bfe0       ?Inactive@CBaseInputPin@@UAEJXZ 10064fe0 f   strmbasd:amfilter.obj
 0002:0003c080       ?GetAllocatorRequirements@CBaseInputPin@@UAGJPAU_AllocatorProperties@@@Z 10065080 f   strmbasd:amfilter.obj
 0002:0003c0c0       ?CheckStreaming@CBaseInputPin@@UAEJXZ 100650c0 f   strmbasd:amfilter.obj
 0002:0003c180       ?PassNotify@CBaseInputPin@@QAEJAAUtagQuality@@@Z 10065180 f   strmbasd:amfilter.obj
 0002:0003c3c0       ??0CMediaSample@@QAE@PBDPAVCBaseAllocator@@PAJPAEJ@Z 100653c0 f   strmbasd:amfilter.obj
 0002:0003c4d0       ??_GCMediaSample@@UAEPAXI@Z 100654d0 f i strmbasd:amfilter.obj
 0002:0003c4d0       ??_ECMediaSample@@UAEPAXI@Z 100654d0 f i strmbasd:amfilter.obj
 0002:0003c540       ??0IMediaSample2@@QAE@XZ   10065540 f i strmbasd:amfilter.obj
 0002:0003c5a0       ??0IMediaSample@@QAE@XZ    100655a0 f i strmbasd:amfilter.obj
 0002:0003c600       ??1CMediaSample@@UAE@XZ    10065600 f   strmbasd:amfilter.obj
 0002:0003c670       ?QueryInterface@CMediaSample@@UAGJABU_GUID@@PAPAX@Z 10065670 f   strmbasd:amfilter.obj
 0002:0003c730       ?AddRef@CMediaSample@@UAGKXZ 10065730 f   strmbasd:amfilter.obj
 0002:0003c790       ?Release@CMediaSample@@UAGKXZ 10065790 f   strmbasd:amfilter.obj
 0002:0003c920       ?SetPointer@CMediaSample@@QAEJPAEJ@Z 10065920 f   strmbasd:amfilter.obj
 0002:0003c990       ?GetPointer@CMediaSample@@UAGJPAPAE@Z 10065990 f   strmbasd:amfilter.obj
 0002:0003ca10       ?GetSize@CMediaSample@@UAGJXZ 10065a10 f   strmbasd:amfilter.obj
 0002:0003ca50       ?GetTime@CMediaSample@@UAGJPA_J0@Z 10065a50 f   strmbasd:amfilter.obj
 0002:0003cb20       ?SetTime@CMediaSample@@UAGJPA_J0@Z 10065b20 f   strmbasd:amfilter.obj
 0002:0003ccb0       ?GetMediaTime@CMediaSample@@UAGJPA_J0@Z 10065cb0 f   strmbasd:amfilter.obj
 0002:0003cd30       ?SetMediaTime@CMediaSample@@UAGJPA_J0@Z 10065d30 f   strmbasd:amfilter.obj
 0002:0003ce80       ?IsSyncPoint@CMediaSample@@UAGJXZ 10065e80 f   strmbasd:amfilter.obj
 0002:0003ced0       ?SetSyncPoint@CMediaSample@@UAGJH@Z 10065ed0 f   strmbasd:amfilter.obj
 0002:0003cf40       ?IsDiscontinuity@CMediaSample@@UAGJXZ 10065f40 f   strmbasd:amfilter.obj
 0002:0003cf90       ?SetDiscontinuity@CMediaSample@@UAGJH@Z 10065f90 f   strmbasd:amfilter.obj
 0002:0003d000       ?IsPreroll@CMediaSample@@UAGJXZ 10066000 f   strmbasd:amfilter.obj
 0002:0003d050       ?SetPreroll@CMediaSample@@UAGJH@Z 10066050 f   strmbasd:amfilter.obj
 0002:0003d0c0       ?GetActualDataLength@CMediaSample@@UAGJXZ 100660c0 f   strmbasd:amfilter.obj
 0002:0003d100       ?SetActualDataLength@CMediaSample@@UAGJJ@Z 10066100 f   strmbasd:amfilter.obj
 0002:0003d1b0       ?GetMediaType@CMediaSample@@UAGJPAPAU_AMMediaType@@@Z 100661b0 f   strmbasd:amfilter.obj
 0002:0003d2c0       ?SetMediaType@CMediaSample@@UAGJPAU_AMMediaType@@@Z 100662c0 f   strmbasd:amfilter.obj
 0002:0003d3c0       ?GetProperties@CMediaSample@@UAGJKPAE@Z 100663c0 f   strmbasd:amfilter.obj
 0002:0003d540       ?SetProperties@CMediaSample@@UAGJKPBE@Z 10066540 f   strmbasd:amfilter.obj
 0002:0003d840       ??0CDynamicOutputPin@@QAE@PBDPAVCBaseFilter@@PAVCCritSec@@PAJPB_W@Z 10066840 f   strmbasd:amfilter.obj
 0002:0003da00       ?QueryInterface@CDynamicOutputPin@@UAGJABU_GUID@@PAPAX@Z 10066a00 f i strmbasd:amfilter.obj
 0002:0003da90       ?AddRef@CDynamicOutputPin@@UAGKXZ 10066a90 f i strmbasd:amfilter.obj
 0002:0003db10       ?Release@CDynamicOutputPin@@UAGKXZ 10066b10 f i strmbasd:amfilter.obj
 0002:0003db90       ?Deliver@CDynamicOutputPin@@UAEJPAUIMediaSample@@@Z 10066b90 f i strmbasd:amfilter.obj
 0002:0003dc30       ?DeliverEndOfStream@CDynamicOutputPin@@UAEJXZ 10066c30 f i strmbasd:amfilter.obj
 0002:0003dcd0       ?DeliverNewSegment@CDynamicOutputPin@@UAEJ_J0N@Z 10066cd0 f i strmbasd:amfilter.obj
 0002:0003dd90       ??_GCDynamicOutputPin@@UAEPAXI@Z 10066d90 f i strmbasd:amfilter.obj
 0002:0003dd90       ??_ECDynamicOutputPin@@UAEPAXI@Z 10066d90 f i strmbasd:amfilter.obj
 0002:0003de00       ??0IPinFlowControl@@QAE@XZ 10066e00 f i strmbasd:amfilter.obj
 0002:0003de60       ??1CDynamicOutputPin@@UAE@XZ 10066e60 f   strmbasd:amfilter.obj
 0002:0003dff0       ?Initialize@CDynamicOutputPin@@AAEJXZ 10066ff0 f   strmbasd:amfilter.obj
 0002:0003e090       ?SetReconnectWhenActive@CBasePin@@QAEX_N@Z 10067090 f i strmbasd:amfilter.obj
 0002:0003e0e0       ?NonDelegatingQueryInterface@CDynamicOutputPin@@UAGJABU_GUID@@PAPAX@Z 100670e0 f   strmbasd:amfilter.obj
 0002:0003e1a0       ?Disconnect@CDynamicOutputPin@@UAGJXZ 100671a0 f   strmbasd:amfilter.obj
 0002:0003e2a0       ?Block@CDynamicOutputPin@@UAGJKPAX@Z 100672a0 f   strmbasd:amfilter.obj
 0002:0003e3f0       ?SynchronousBlockOutputPin@CDynamicOutputPin@@IAEJXZ 100673f0 f   strmbasd:amfilter.obj
 0002:0003e530       ?AsynchronousBlockOutputPin@CDynamicOutputPin@@IAEJPAX@Z 10067530 f   strmbasd:amfilter.obj
 0002:0003e7b0       ?BlockOutputPin@CDynamicOutputPin@@IAEXXZ 100677b0 f   strmbasd:amfilter.obj
 0002:0003e960       ?UnblockOutputPin@CDynamicOutputPin@@IAEJXZ 10067960 f   strmbasd:amfilter.obj
 0002:0003ebb0       ?StartUsingOutputPin@CDynamicOutputPin@@UAEJXZ 10067bb0 f   strmbasd:amfilter.obj
 0002:0003eef0       ?StopUsingOutputPin@CDynamicOutputPin@@UAEXXZ 10067ef0 f   strmbasd:amfilter.obj
 0002:0003f040       ?StreamingThreadUsingOutputPin@CDynamicOutputPin@@UAE_NXZ 10068040 f   strmbasd:amfilter.obj
 0002:0003f110       ?SetConfigInfo@CDynamicOutputPin@@QAEXPAUIGraphConfig@@PAX@Z 10068110 f   strmbasd:amfilter.obj
 0002:0003f170       ?Active@CDynamicOutputPin@@UAEJXZ 10068170 f   strmbasd:amfilter.obj
 0002:0003f250       ?Inactive@CDynamicOutputPin@@UAEJXZ 10068250 f   strmbasd:amfilter.obj
 0002:0003f2f0       ?DeliverBeginFlush@CDynamicOutputPin@@UAEJXZ 100682f0 f   strmbasd:amfilter.obj
 0002:0003f390       ?DeliverEndFlush@CDynamicOutputPin@@UAEJXZ 10068390 f   strmbasd:amfilter.obj
 0002:0003f430       ?ChangeOutputFormat@CDynamicOutputPin@@QAEJPBU_AMMediaType@@_J1N@Z 10068430 f   strmbasd:amfilter.obj
 0002:0003f650       ?ChangeMediaType@CDynamicOutputPin@@QAEJPBVCMediaType@@@Z 10068650 f   strmbasd:amfilter.obj
 0002:0003f8d0       ?ChangeMediaTypeHelper@CDynamicOutputPin@@AAEJPBVCMediaType@@@Z 100688d0 f   strmbasd:amfilter.obj
 0002:0003fc20       ?DynamicReconnect@CDynamicOutputPin@@QAEJPBVCMediaType@@@Z 10068c20 f   strmbasd:amfilter.obj
 0002:0003fd50       ?CompleteConnect@CDynamicOutputPin@@UAEJPAUIPin@@@Z 10068d50 f   strmbasd:amfilter.obj
 0002:0003fe30       ?AssertValid@CDynamicOutputPin@@AAEXXZ 10068e30 f   strmbasd:amfilter.obj
 0002:00040110       ?WaitEvent@CDynamicOutputPin@@KAJPAX@Z 10069110 f   strmbasd:amfilter.obj
 0002:000401d0       ??0CBaseAllocator@@QAE@PBDPAUIUnknown@@PAJHH@Z 100691d0 f   strmbasd:amfilter.obj
 0002:00040380       ??0CSampleList@CBaseAllocator@@QAE@XZ 10069380 f i strmbasd:amfilter.obj
 0002:000403d0       ??0IMemAllocatorCallbackTemp@@QAE@XZ 100693d0 f i strmbasd:amfilter.obj
 0002:00040430       ??0IMemAllocator@@QAE@XZ   10069430 f i strmbasd:amfilter.obj
 0002:00040490       ??1CBaseAllocator@@UAE@XZ  10069490 f   strmbasd:amfilter.obj
 0002:00040620       ??1CSampleList@CBaseAllocator@@QAE@XZ 10069620 f i strmbasd:amfilter.obj
 0002:00040690       ?NonDelegatingQueryInterface@CBaseAllocator@@UAGJABU_GUID@@PAPAX@Z 10069690 f   strmbasd:amfilter.obj
 0002:00040770       ?SetProperties@CBaseAllocator@@UAGJPAU_AllocatorProperties@@0@Z 10069770 f   strmbasd:amfilter.obj
 0002:00040a50       ?GetCount@CSampleList@CBaseAllocator@@QBEHXZ 10069a50 f i strmbasd:amfilter.obj
 0002:00040a90       ?GetProperties@CBaseAllocator@@UAGJPAU_AllocatorProperties@@@Z 10069a90 f   strmbasd:amfilter.obj
 0002:00040bc0       ?GetBuffer@CBaseAllocator@@UAGJPAPAUIMediaSample@@PA_J1K@Z 10069bc0 f   strmbasd:amfilter.obj
 0002:00040df0       ?RemoveHead@CSampleList@CBaseAllocator@@QAEPAVCMediaSample@@XZ 10069df0 f i strmbasd:amfilter.obj
 0002:00040e80       ?NextSample@CBaseAllocator@@CAAAPAVCMediaSample@@PAV2@@Z 10069e80 f i strmbasd:amfilter.obj
 0002:00040ec0       ?SetWaiting@CBaseAllocator@@QAEXXZ 10069ec0 f i strmbasd:amfilter.obj
 0002:00040f10       ?ReleaseBuffer@CBaseAllocator@@UAGJPAUIMediaSample@@@Z 10069f10 f   strmbasd:amfilter.obj
 0002:00041140       ?Add@CSampleList@CBaseAllocator@@QAEXPAVCMediaSample@@@Z 1006a140 f i strmbasd:amfilter.obj
 0002:000411e0       ?SetNotify@CBaseAllocator@@UAGJPAUIMemAllocatorNotifyCallbackTemp@@@Z 1006a1e0 f   strmbasd:amfilter.obj
 0002:00041380       ?GetFreeCount@CBaseAllocator@@UAGJPAJ@Z 1006a380 f   strmbasd:amfilter.obj
 0002:000414f0       ?NotifySample@CBaseAllocator@@QAEXXZ 1006a4f0 f   strmbasd:amfilter.obj
 0002:000415a0       ?Commit@CBaseAllocator@@UAGJXZ 1006a5a0 f   strmbasd:amfilter.obj
 0002:000417f0       ?Decommit@CBaseAllocator@@UAGJXZ 1006a7f0 f   strmbasd:amfilter.obj
 0002:000419f0       ?Alloc@CBaseAllocator@@MAEJXZ 1006a9f0 f   strmbasd:amfilter.obj
 0002:00041ab0       ?Remove@CSampleList@CBaseAllocator@@QAEXPAVCMediaSample@@@Z 1006aab0 f   strmbasd:amfilter.obj
 0002:00041ba0       ?CreateInstance@CMemAllocator@@SAPAVCUnknown@@PAUIUnknown@@PAJ@Z 1006aba0 f   strmbasd:amfilter.obj
 0002:00041ca0       ??0CMemAllocator@@QAE@PBDPAUIUnknown@@PAJ@Z 1006aca0 f   strmbasd:amfilter.obj
 0002:00041d30       ?QueryInterface@CBaseAllocator@@UAGJABU_GUID@@PAPAX@Z 1006ad30 f i strmbasd:amfilter.obj
 0002:00041dc0       ?AddRef@CBaseAllocator@@UAGKXZ 1006adc0 f i strmbasd:amfilter.obj
 0002:00041e40       ?Release@CBaseAllocator@@UAGKXZ 1006ae40 f i strmbasd:amfilter.obj
 0002:00041ec0       ??_GCMemAllocator@@UAEPAXI@Z 1006aec0 f i strmbasd:amfilter.obj
 0002:00041ec0       ??_ECMemAllocator@@UAEPAXI@Z 1006aec0 f i strmbasd:amfilter.obj
 0002:00041f30       ?SetProperties@CMemAllocator@@UAGJPAU_AllocatorProperties@@0@Z 1006af30 f   strmbasd:amfilter.obj
 0002:000422c0       ?Alloc@CMemAllocator@@MAEJXZ 1006b2c0 f   strmbasd:amfilter.obj
 0002:00042840       ?Free@CMemAllocator@@MAEXXZ 1006b840 f   strmbasd:amfilter.obj
 0002:00042880       ?ReallyFree@CMemAllocator@@IAEXXZ 1006b880 f   strmbasd:amfilter.obj
 0002:000429f0       ??1CMemAllocator@@UAE@XZ   1006b9f0 f   strmbasd:amfilter.obj
 0002:00042ac0       _AMovieSetupRegisterFilter@12 1006bac0 f   strmbasd:amfilter.obj
 0002:00042ec0       ??0?$CGenericList@VCBasePin@@@@QAE@PBD@Z 1006bec0 f i strmbasd:amfilter.obj
 0002:00042f20       ?AddTail@?$CGenericList@VCBasePin@@@@QAEPAU__POSITION@@PAVCBasePin@@@Z 1006bf20 f i strmbasd:amfilter.obj
 0002:00042f80       ?AddTail@?$CGenericList@VCBasePin@@@@QAEHPAV1@@Z 1006bf80 f i strmbasd:amfilter.obj
 0002:00042fe0       ?Find@?$CGenericList@VCBasePin@@@@QBEPAU__POSITION@@PAVCBasePin@@@Z 1006bfe0 f i strmbasd:amfilter.obj
 0002:00043040       ??0?$QzCComPtr@UIPinConnection@@@@QAE@XZ 1006c040 f i strmbasd:amfilter.obj
 0002:00043090       ??1?$QzCComPtr@UIPinConnection@@@@QAE@XZ 1006c090 f i strmbasd:amfilter.obj
 0002:00043100       ??B?$QzCComPtr@UIPinConnection@@@@QAEPAUIPinConnection@@XZ 1006c100 f i strmbasd:amfilter.obj
 0002:00043140       ??I?$QzCComPtr@UIPinConnection@@@@QAEPAPAUIPinConnection@@XZ 1006c140 f i strmbasd:amfilter.obj
 0002:000431b0       ??C?$QzCComPtr@UIPinConnection@@@@QAEPAUIPinConnection@@XZ 1006c1b0 f i strmbasd:amfilter.obj
 0002:00043220       ?QueryInterface@CDynamicOutputPin@@WJI@AGJABU_GUID@@PAPAX@Z 1006c220 f i strmbasd:amfilter.obj
 0002:00043230       ?Release@CDynamicOutputPin@@WJI@AGKXZ 1006c230 f i strmbasd:amfilter.obj
 0002:00043240       ?QueryInterface@CDynamicOutputPin@@W3AGJABU_GUID@@PAPAX@Z 1006c240 f i strmbasd:amfilter.obj
 0002:00043250       ?Release@CDynamicOutputPin@@W3AGKXZ 1006c250 f i strmbasd:amfilter.obj
 0002:00043260       ?AddRef@CDynamicOutputPin@@WJI@AGKXZ 1006c260 f i strmbasd:amfilter.obj
 0002:00043270       ?AddRef@CDynamicOutputPin@@W3AGKXZ 1006c270 f i strmbasd:amfilter.obj
 0002:00043280       ??0CAMEvent@@QAE@HPAJ@Z    1006c280 f   strmbasd:wxutil.obj
 0002:00043320       ??0CAMEvent@@QAE@PAJ@Z     1006c320 f   strmbasd:wxutil.obj
 0002:000433c0       ??1CAMEvent@@QAE@XZ        1006c3c0 f   strmbasd:wxutil.obj
 0002:00043450       ??0CAMMsgEvent@@QAE@PAJ@Z  1006c450 f   strmbasd:wxutil.obj
 0002:000434b0       ?WaitMsg@CAMMsgEvent@@QAEHK@Z 1006c4b0 f   strmbasd:wxutil.obj
 0002:00043650       ??0CAMThread@@QAE@PAJ@Z    1006c650 f   strmbasd:wxutil.obj
 0002:00043740       ??1CAMThread@@UAE@XZ       1006c740 f   strmbasd:wxutil.obj
 0002:00043820       ?Close@CAMThread@@QAEXXZ   1006c820 f i strmbasd:wxutil.obj
 0002:000438c0       ?InitialThreadProc@CAMThread@@SGKPAX@Z 1006c8c0 f   strmbasd:wxutil.obj
 0002:00043970       ?Create@CAMThread@@QAEHXZ  1006c970 f   strmbasd:wxutil.obj
 0002:00043b20       ?ThreadExists@CAMThread@@QBEHXZ 1006cb20 f i strmbasd:wxutil.obj
 0002:00043b70       ?CallWorker@CAMThread@@QAEKK@Z 1006cb70 f   strmbasd:wxutil.obj
 0002:00043cd0       ?Set@CAMEvent@@QAEXXZ      1006ccd0 f i strmbasd:wxutil.obj
 0002:00043d50       ?Wait@CAMEvent@@QAEHK@Z    1006cd50 f i strmbasd:wxutil.obj
 0002:00043dc0       ?GetRequest@CAMThread@@QAEKXZ 1006cdc0 f   strmbasd:wxutil.obj
 0002:00043e20       ?CheckRequest@CAMThread@@QAEHPAK@Z 1006ce20 f   strmbasd:wxutil.obj
 0002:00043ea0       ?Check@CAMEvent@@QAEHXZ    1006cea0 f i strmbasd:wxutil.obj
 0002:00043f00       ?Reply@CAMThread@@QAEXK@Z  1006cf00 f   strmbasd:wxutil.obj
 0002:00043f70       ?Reset@CAMEvent@@QAEXXZ    1006cf70 f i strmbasd:wxutil.obj
 0002:00043fd0       ?CoInitializeHelper@CAMThread@@SAJXZ 1006cfd0 f   strmbasd:wxutil.obj
 0002:000440a0       ??1CMsgThread@@QAE@XZ      1006d0a0 f   strmbasd:wxutil.obj
 0002:00044290       ??1?$CGenericList@VCMsg@@@@QAE@XZ 1006d290 f i strmbasd:wxutil.obj
 0002:000442e0       ?CreateThread@CMsgThread@@QAEHXZ 1006d2e0 f   strmbasd:wxutil.obj
 0002:000443b0       ?DefaultThreadProc@CMsgThread@@CGKPAX@Z 1006d3b0 f   strmbasd:wxutil.obj
 0002:000444e0       ??0CMsg@@QAE@XZ            1006d4e0 f i strmbasd:wxutil.obj
 0002:00044550       ?GetThreadMsg@CMsgThread@@UAEXPAVCMsg@@@Z 1006d550 f   strmbasd:wxutil.obj
 0002:000446f0       ?IntToWstr@@YGXHPA_W@Z     1006d6f0 f   strmbasd:wxutil.obj
 0002:000447e0       _memmoveInternal@12        1006d7e0 f   strmbasd:wxutil.obj
 0002:00044880       ?AMSafeMemMoveOffset@@YAJPAXIKPBXIKI@Z 1006d880 f   strmbasd:wxutil.obj
 0002:00044930       ??0CCritSec@@QAE@XZ        1006d930 f   strmbasd:wxutil.obj
 0002:000449c0       ??1CCritSec@@QAE@XZ        1006d9c0 f   strmbasd:wxutil.obj
 0002:00044a20       ?Lock@CCritSec@@QAEXXZ     1006da20 f   strmbasd:wxutil.obj
 0002:00044b90       ?Unlock@CCritSec@@QAEXXZ   1006db90 f   strmbasd:wxutil.obj
 0002:00044c50       ?DbgLockTrace@@YGXPAVCCritSec@@H@Z 1006dc50 f   strmbasd:wxutil.obj
 0002:00044c90       ?CritCheckIn@@YGHPAVCCritSec@@@Z 1006dc90 f   strmbasd:wxutil.obj
 0002:00044d00       ?CritCheckIn@@YGHPBVCCritSec@@@Z 1006dd00 f   strmbasd:wxutil.obj
 0002:00044d70       ?CritCheckOut@@YGHPAVCCritSec@@@Z 1006dd70 f   strmbasd:wxutil.obj
 0002:00044de0       ?CritCheckOut@@YGHPBVCCritSec@@@Z 1006dde0 f   strmbasd:wxutil.obj
 0002:00044e50       _WriteBSTR@8               1006de50 f   strmbasd:wxutil.obj
 0002:00044ed0       _FreeBSTR@4                1006ded0 f   strmbasd:wxutil.obj
 0002:00044f40       _AMGetWideString@8         1006df40 f   strmbasd:wxutil.obj
 0002:00045060       ?StringCbLengthW@@YGJPB_WIPAI@Z 1006e060 f i strmbasd:wxutil.obj
 0002:00045150       ?WaitDispatchingMessages@@YGKPAXKPAUHWND__@@I0@Z 1006e150 f   strmbasd:wxutil.obj
 0002:00045560       ?AmGetLastErrorToHResult@@YAJXZ 1006e560 f   strmbasd:wxutil.obj
 0002:000455e0       ?QzAtlComPtrAssign@@YAPAUIUnknown@@PAPAU1@PAU1@@Z 1006e5e0 f   strmbasd:wxutil.obj
 0002:00045680       ?CompatibleTimeSetEvent@@YAIIIP6GXIIKKK@ZKI@Z 1006e680 f   strmbasd:wxutil.obj
 0002:00045730       ?TimeKillSynchronousFlagAvailable@@YA_NXZ 1006e730 f   strmbasd:wxutil.obj
 0002:00045820       ?GetHeadPosition@?$CGenericList@VCMsg@@@@QBEPAU__POSITION@@XZ 1006e820 f i strmbasd:wxutil.obj
 0002:00045860       ?GetNext@?$CGenericList@VCMsg@@@@QBEPAVCMsg@@AAPAU__POSITION@@@Z 1006e860 f i strmbasd:wxutil.obj
 0002:000458c0       ?RemoveHead@?$CGenericList@VCMsg@@@@QAEPAVCMsg@@XZ 1006e8c0 f i strmbasd:wxutil.obj
 0002:00045910       _GetBitmapSize@4           1006e910 f   strmbasd:amvideo.obj
 0002:000459c0       _GetTrueColorType@4        1006e9c0 f   strmbasd:amvideo.obj
 0002:00045ba0       _GetBitmapSubtype@4        1006eba0 f   strmbasd:amvideo.obj
 0002:00045f50       _GetBitCount@4             1006ef50 f   strmbasd:amvideo.obj
 0002:00046040       ?LocateSubtype@@YAHPBU_GUID@@@Z 1006f040 f   strmbasd:amvideo.obj
 0002:00046120       _GetSubtypeNameW@4         1006f120 f   strmbasd:amvideo.obj
 0002:00046180       _GetSubtypeNameA@4         1006f180 f   strmbasd:amvideo.obj
 0002:000461e0       _GetSubtypeName@4          1006f1e0 f   strmbasd:amvideo.obj
 0002:00046230       _GetBitmapFormatSize@4     1006f230 f   strmbasd:amvideo.obj
 0002:00046350       _ContainsPalette@4         1006f350 f   strmbasd:amvideo.obj
 0002:000463b0       _GetBitmapPalette@4        1006f3b0 f   strmbasd:amvideo.obj
 0002:00046410       _Direct3DCreate9@4         1006f410 f   d3d9:d3d9.dll
 0002:00046416       _timeGetTime@0             1006f416 f   winmm:WINMM.dll
 0002:0004641c       _timeSetEvent@20           1006f41c f   winmm:WINMM.dll
 0002:000464a0       _MCOMCreate@8              1006f4a0 f   amdpcom32:mcomlib.obj
 0002:00046550       _MCOMBluRayDecodeStreamCaps@8 1006f550 f   amdpcom32:mcomlib.obj
 0002:00046570       _MCOMDecodeTargetAccessCaps@8 1006f570 f   amdpcom32:mcomlib.obj
 0002:00046590       _MCOMBeginDecodeTargetAccess@8 1006f590 f   amdpcom32:mcomlib.obj
 0002:000465b0       _MCOMEndDecodeTargetAccess@8 1006f5b0 f   amdpcom32:mcomlib.obj
 0002:000465d0       _MCOMDestroy@4             1006f5d0 f   amdpcom32:mcomlib.obj
 0002:000465e8       __nvNoImplementation       1006f5e8 f   nvapi:nvlink_gen.obj
 0002:000465ee       _NvAPI_Initialize          1006f5ee f   nvapi:nvlink_gen.obj
 0002:00046688       _NvAPI_GetErrorMessage     1006f688     nvapi:nvlink_gen.obj
 0002:0004668e       _NvAPI_GetInterfaceVersionString 1006f68e     nvapi:nvlink_gen.obj
 0002:00046694       _NvAPI_GetDisplayDriverVersion 1006f694     nvapi:nvlink_gen.obj
 0002:0004669a       _NvAPI_EnumNvidiaDisplayHandle 1006f69a     nvapi:nvlink_gen.obj
 0002:000466a0       _NvAPI_EnumNvidiaUnAttachedDisplayHandle 1006f6a0     nvapi:nvlink_gen.obj
 0002:000466a6       _NvAPI_EnumPhysicalGPUs    1006f6a6     nvapi:nvlink_gen.obj
 0002:000466ac       _NvAPI_EnumLogicalGPUs     1006f6ac     nvapi:nvlink_gen.obj
 0002:000466b2       _NvAPI_GetPhysicalGPUsFromDisplay 1006f6b2     nvapi:nvlink_gen.obj
 0002:000466b8       _NvAPI_GetPhysicalGPUFromUnAttachedDisplay 1006f6b8     nvapi:nvlink_gen.obj
 0002:000466be       _NvAPI_CreateDisplayFromUnAttachedDisplay 1006f6be     nvapi:nvlink_gen.obj
 0002:000466c4       _NvAPI_GetLogicalGPUFromDisplay 1006f6c4     nvapi:nvlink_gen.obj
 0002:000466ca       _NvAPI_GetLogicalGPUFromPhysicalGPU 1006f6ca     nvapi:nvlink_gen.obj
 0002:000466d0       _NvAPI_GetPhysicalGPUsFromLogicalGPU 1006f6d0     nvapi:nvlink_gen.obj
 0002:000466d6       _NvAPI_GetAssociatedNvidiaDisplayHandle 1006f6d6     nvapi:nvlink_gen.obj
 0002:000466dc       _NvAPI_DISP_GetAssociatedUnAttachedNvidiaDisplayHandle 1006f6dc     nvapi:nvlink_gen.obj
 0002:000466e2       _NvAPI_GetAssociatedNvidiaDisplayName 1006f6e2     nvapi:nvlink_gen.obj
 0002:000466e8       _NvAPI_GetUnAttachedAssociatedDisplayName 1006f6e8     nvapi:nvlink_gen.obj
 0002:000466ee       _NvAPI_EnableHWCursor      1006f6ee     nvapi:nvlink_gen.obj
 0002:000466f4       _NvAPI_DisableHWCursor     1006f6f4     nvapi:nvlink_gen.obj
 0002:000466fa       _NvAPI_GetVBlankCounter    1006f6fa     nvapi:nvlink_gen.obj
 0002:00046700       _NvAPI_SetRefreshRateOverride 1006f700     nvapi:nvlink_gen.obj
 0002:00046706       _NvAPI_GetAssociatedDisplayOutputId 1006f706     nvapi:nvlink_gen.obj
 0002:0004670c       _NvAPI_GetDisplayPortInfo  1006f70c     nvapi:nvlink_gen.obj
 0002:00046712       _NvAPI_SetDisplayPort      1006f712     nvapi:nvlink_gen.obj
 0002:00046718       _NvAPI_GetHDMISupportInfo  1006f718     nvapi:nvlink_gen.obj
 0002:0004671e       _NvAPI_GetInfoFrame        1006f71e     nvapi:nvlink_gen.obj
 0002:00046724       _NvAPI_SetInfoFrame        1006f724     nvapi:nvlink_gen.obj
 0002:0004672a       _NvAPI_SetInfoFrameState   1006f72a     nvapi:nvlink_gen.obj
 0002:00046730       _NvAPI_GetInfoFrameState   1006f730     nvapi:nvlink_gen.obj
 0002:00046736       _NvAPI_GetDisplayDriverMemoryInfo 1006f736     nvapi:nvlink_gen.obj
 0002:0004673c       _NvAPI_GetDriverMemoryInfo 1006f73c     nvapi:nvlink_gen.obj
 0002:00046742       _NvAPI_GetDVCInfo          1006f742     nvapi:nvlink_gen.obj
 0002:00046748       _NvAPI_SetDVCLevel         1006f748     nvapi:nvlink_gen.obj
 0002:0004674e       _NvAPI_GetDVCInfoEx        1006f74e     nvapi:nvlink_gen.obj
 0002:00046754       _NvAPI_SetDVCLevelEx       1006f754     nvapi:nvlink_gen.obj
 0002:0004675a       _NvAPI_GetHUEInfo          1006f75a     nvapi:nvlink_gen.obj
 0002:00046760       _NvAPI_SetHUEAngle         1006f760     nvapi:nvlink_gen.obj
 0002:00046766       _NvAPI_GetImageSharpeningInfo 1006f766     nvapi:nvlink_gen.obj
 0002:0004676c       _NvAPI_SetImageSharpeningLevel 1006f76c     nvapi:nvlink_gen.obj
 0002:00046772       _NvAPI_D3D_GetCurrentSLIState 1006f772     nvapi:nvlink_gen.obj
 0002:00046778       _NvAPI_D3D_CreateQuery     1006f778     nvapi:nvlink_gen.obj
 0002:0004677e       _NvAPI_D3D_DestroyQuery    1006f77e     nvapi:nvlink_gen.obj
 0002:00046784       _NvAPI_D3D_Query_Begin     1006f784     nvapi:nvlink_gen.obj
 0002:0004678a       _NvAPI_D3D_Query_End       1006f78a     nvapi:nvlink_gen.obj
 0002:00046790       _NvAPI_D3D_Query_GetData   1006f790     nvapi:nvlink_gen.obj
 0002:00046796       _NvAPI_D3D_Query_GetDataSize 1006f796     nvapi:nvlink_gen.obj
 0002:0004679c       _NvAPI_D3D_Query_GetType   1006f79c     nvapi:nvlink_gen.obj
 0002:000467a2       _NvAPI_D3D_RegisterApp     1006f7a2     nvapi:nvlink_gen.obj
 0002:000467a8       _NvAPI_D3D9_GetSurfaceHandle 1006f7a8     nvapi:nvlink_gen.obj
 0002:000467ae       _NvAPI_D3D9_GetOverlaySurfaceHandles 1006f7ae     nvapi:nvlink_gen.obj
 0002:000467b4       _NvAPI_D3D9_GetTextureHandle 1006f7b4     nvapi:nvlink_gen.obj
 0002:000467ba       _NvAPI_D3D9_GpuSyncGetHandleSize 1006f7ba     nvapi:nvlink_gen.obj
 0002:000467c0       _NvAPI_D3D9_GpuSyncInit    1006f7c0     nvapi:nvlink_gen.obj
 0002:000467c6       _NvAPI_D3D9_GpuSyncEnd     1006f7c6     nvapi:nvlink_gen.obj
 0002:000467cc       _NvAPI_D3D9_GpuSyncMapTexBuffer 1006f7cc     nvapi:nvlink_gen.obj
 0002:000467d2       _NvAPI_D3D9_GpuSyncMapSurfaceBuffer 1006f7d2     nvapi:nvlink_gen.obj
 0002:000467d8       _NvAPI_D3D9_GpuSyncMapVertexBuffer 1006f7d8     nvapi:nvlink_gen.obj
 0002:000467de       _NvAPI_D3D9_GpuSyncMapIndexBuffer 1006f7de     nvapi:nvlink_gen.obj
 0002:000467e4       _NvAPI_D3D9_SetPitchSurfaceCreation 1006f7e4     nvapi:nvlink_gen.obj
 0002:000467ea       _NvAPI_D3D9_GpuSyncAcquire 1006f7ea     nvapi:nvlink_gen.obj
 0002:000467f0       _NvAPI_D3D9_GpuSyncRelease 1006f7f0     nvapi:nvlink_gen.obj
 0002:000467f6       _NvAPI_D3D9_GetCurrentRenderTargetHandle 1006f7f6     nvapi:nvlink_gen.obj
 0002:000467fc       _NvAPI_D3D9_GetCurrentZBufferHandle 1006f7fc     nvapi:nvlink_gen.obj
 0002:00046802       _NvAPI_D3D9_GetIndexBufferHandle 1006f802     nvapi:nvlink_gen.obj
 0002:00046808       _NvAPI_D3D9_GetVertexBufferHandle 1006f808     nvapi:nvlink_gen.obj
 0002:0004680e       _NvAPI_D3D9_CreateTexture  1006f80e     nvapi:nvlink_gen.obj
 0002:00046814       _NvAPI_D3D9_AliasPrimaryAsTexture 1006f814     nvapi:nvlink_gen.obj
 0002:0004681a       _NvAPI_D3D9_PresentSurfaceToDesktop 1006f81a     nvapi:nvlink_gen.obj
 0002:00046820       _NvAPI_D3D9_CreateVideoBegin 1006f820     nvapi:nvlink_gen.obj
 0002:00046826       _NvAPI_D3D9_CreateVideoEnd 1006f826     nvapi:nvlink_gen.obj
 0002:0004682c       _NvAPI_D3D9_CreateVideo    1006f82c     nvapi:nvlink_gen.obj
 0002:00046832       _NvAPI_D3D9_FreeVideo      1006f832     nvapi:nvlink_gen.obj
 0002:00046838       _NvAPI_D3D9_PresentVideo   1006f838     nvapi:nvlink_gen.obj
 0002:0004683e       _NvAPI_D3D9_SetGamutData   1006f83e     nvapi:nvlink_gen.obj
 0002:00046844       _NvAPI_D3D9_GetVideoCapabilities 1006f844     nvapi:nvlink_gen.obj
 0002:0004684a       _NvAPI_D3D9_AliasPrimaryFromDevice 1006f84a     nvapi:nvlink_gen.obj
 0002:00046850       _NvAPI_D3D9_SetResourceHint 1006f850     nvapi:nvlink_gen.obj
 0002:00046856       _NvAPI_D3D9_Lock           1006f856     nvapi:nvlink_gen.obj
 0002:0004685c       _NvAPI_D3D9_Unlock         1006f85c     nvapi:nvlink_gen.obj
 0002:00046862       _NvAPI_D3D9_GetVideoState  1006f862     nvapi:nvlink_gen.obj
 0002:00046868       _NvAPI_D3D9_SetVideoState  1006f868     nvapi:nvlink_gen.obj
 0002:0004686e       _NvAPI_D3D9_EnumVideoFeatures 1006f86e     nvapi:nvlink_gen.obj
 0002:00046874       _NvAPI_D3D9_GetSLIInfo     1006f874     nvapi:nvlink_gen.obj
 0002:0004687a       _NvAPI_D3D9_SetSLIMode     1006f87a     nvapi:nvlink_gen.obj
 0002:00046880       _NvAPI_D3D9_QueryAAOverrideMode 1006f880     nvapi:nvlink_gen.obj
 0002:00046886       _NvAPI_D3D9_VideoSurfaceEncryptionControl 1006f886     nvapi:nvlink_gen.obj
 0002:0004688c       _NvAPI_D3D9_DMA            1006f88c     nvapi:nvlink_gen.obj
 0002:00046892       _NvAPI_D3D9_StretchRect    1006f892     nvapi:nvlink_gen.obj
 0002:00046898       _NvAPI_D3D9_CreateRenderTarget 1006f898     nvapi:nvlink_gen.obj
 0002:0004689e       _NvAPI_D3D9_RegisterResource 1006f89e     nvapi:nvlink_gen.obj
 0002:000468a4       _NvAPI_D3D9_UnregisterResource 1006f8a4     nvapi:nvlink_gen.obj
 0002:000468aa       _NvAPI_D3D9_SetTexture     1006f8aa     nvapi:nvlink_gen.obj
 0002:000468b0       _NvAPI_D3D10_AliasPrimaryAsTexture 1006f8b0     nvapi:nvlink_gen.obj
 0002:000468b6       _NvAPI_D3D10_SetPrimaryFlipChainCallbacks 1006f8b6     nvapi:nvlink_gen.obj
 0002:000468bc       _NvAPI_D3D10_ProcessCallbacks 1006f8bc     nvapi:nvlink_gen.obj
 0002:000468c2       _NvAPI_D3D10_GetRenderedCursorAsBitmap 1006f8c2     nvapi:nvlink_gen.obj
 0002:000468c8       _NvAPI_D3D10_SetDepthBoundsTest 1006f8c8     nvapi:nvlink_gen.obj
 0002:000468ce       _NvAPI_D3D10_CreateDevice  1006f8ce     nvapi:nvlink_gen.obj
 0002:000468d4       _NvAPI_D3D10_CreateDeviceAndSwapChain 1006f8d4     nvapi:nvlink_gen.obj
 0002:000468da       _NvAPI_D3D11_CreateDevice  1006f8da     nvapi:nvlink_gen.obj
 0002:000468e0       _NvAPI_D3D11_CreateDeviceAndSwapChain 1006f8e0     nvapi:nvlink_gen.obj
 0002:000468e6       _NvAPI_GPU_GetShaderPipeCount 1006f8e6     nvapi:nvlink_gen.obj
 0002:000468ec       _NvAPI_GPU_GetShaderSubPipeCount 1006f8ec     nvapi:nvlink_gen.obj
 0002:000468f2       _NvAPI_GPU_GetPartitionCount 1006f8f2     nvapi:nvlink_gen.obj
 0002:000468f8       _NvAPI_GPU_GetMemPartitionMask 1006f8f8     nvapi:nvlink_gen.obj
 0002:000468fe       _NvAPI_GPU_GetTPCMask      1006f8fe     nvapi:nvlink_gen.obj
 0002:00046904       _NvAPI_GPU_GetSMMask       1006f904     nvapi:nvlink_gen.obj
 0002:0004690a       _NvAPI_GPU_GetTotalTPCCount 1006f90a     nvapi:nvlink_gen.obj
 0002:00046910       _NvAPI_GPU_GetTotalSMCount 1006f910     nvapi:nvlink_gen.obj
 0002:00046916       _NvAPI_GPU_GetTotalSPCount 1006f916     nvapi:nvlink_gen.obj
 0002:0004691c       _NvAPI_GPU_GetAllOutputs   1006f91c     nvapi:nvlink_gen.obj
 0002:00046922       _NvAPI_GPU_GetConnectedOutputs 1006f922     nvapi:nvlink_gen.obj
 0002:00046928       _NvAPI_GPU_GetConnectedSLIOutputs 1006f928     nvapi:nvlink_gen.obj
 0002:0004692e       _NvAPI_GPU_GetConnectedOutputsWithLidState 1006f92e     nvapi:nvlink_gen.obj
 0002:00046934       _NvAPI_GPU_GetConnectedSLIOutputsWithLidState 1006f934     nvapi:nvlink_gen.obj
 0002:0004693a       _NvAPI_GPU_GetSystemType   1006f93a     nvapi:nvlink_gen.obj
 0002:00046940       _NvAPI_GPU_GetActiveOutputs 1006f940     nvapi:nvlink_gen.obj
 0002:00046946       _NvAPI_GPU_GetEDID         1006f946     nvapi:nvlink_gen.obj
 0002:0004694c       _NvAPI_GPU_SetEDID         1006f94c     nvapi:nvlink_gen.obj
 0002:00046952       _NvAPI_GPU_GetOutputType   1006f952     nvapi:nvlink_gen.obj
 0002:00046958       _NvAPI_GPU_GetDeviceDisplayMode 1006f958     nvapi:nvlink_gen.obj
 0002:0004695e       _NvAPI_GPU_GetFlatPanelInfo 1006f95e     nvapi:nvlink_gen.obj
 0002:00046964       _NvAPI_GPU_ValidateOutputCombination 1006f964     nvapi:nvlink_gen.obj
 0002:0004696a       _NvAPI_GPU_GetConnectorInfo 1006f96a     nvapi:nvlink_gen.obj
 0002:00046970       _NvAPI_GPU_GetFullName     1006f970     nvapi:nvlink_gen.obj
 0002:00046976       _NvAPI_GPU_GetPCIIdentifiers 1006f976     nvapi:nvlink_gen.obj
 0002:0004697c       _NvAPI_GPU_GetGPUType      1006f97c     nvapi:nvlink_gen.obj
 0002:00046982       _NvAPI_GPU_GetBusType      1006f982     nvapi:nvlink_gen.obj
 0002:00046988       _NvAPI_GPU_GetBusId        1006f988     nvapi:nvlink_gen.obj
 0002:0004698e       _NvAPI_GPU_GetBusSlotId    1006f98e     nvapi:nvlink_gen.obj
 0002:00046994       _NvAPI_GPU_GetIRQ          1006f994     nvapi:nvlink_gen.obj
 0002:0004699a       _NvAPI_GPU_GetVbiosRevision 1006f99a     nvapi:nvlink_gen.obj
 0002:000469a0       _NvAPI_GPU_GetVbiosOEMRevision 1006f9a0     nvapi:nvlink_gen.obj
 0002:000469a6       _NvAPI_GPU_GetVbiosVersionString 1006f9a6     nvapi:nvlink_gen.obj
 0002:000469ac       _NvAPI_GPU_GetAGPAperture  1006f9ac     nvapi:nvlink_gen.obj
 0002:000469b2       _NvAPI_GPU_GetCurrentAGPRate 1006f9b2     nvapi:nvlink_gen.obj
 0002:000469b8       _NvAPI_GPU_GetCurrentPCIEDownstreamWidth 1006f9b8     nvapi:nvlink_gen.obj
 0002:000469be       _NvAPI_GPU_GetPhysicalFrameBufferSize 1006f9be     nvapi:nvlink_gen.obj
 0002:000469c4       _NvAPI_GPU_GetVirtualFrameBufferSize 1006f9c4     nvapi:nvlink_gen.obj
 0002:000469ca       _NvAPI_GPU_GetQuadroStatus 1006f9ca     nvapi:nvlink_gen.obj
 0002:000469d0       _NvAPI_GPU_GetFBWidthAndLocation 1006f9d0     nvapi:nvlink_gen.obj
 0002:000469d6       _NvAPI_GPU_GetPerfClocks   1006f9d6     nvapi:nvlink_gen.obj
 0002:000469dc       _NvAPI_GPU_SetPerfClocks   1006f9dc     nvapi:nvlink_gen.obj
 0002:000469e2       _NvAPI_GPU_GetCoolerSettings 1006f9e2     nvapi:nvlink_gen.obj
 0002:000469e8       _NvAPI_GPU_SetCoolerLevels 1006f9e8     nvapi:nvlink_gen.obj
 0002:000469ee       _NvAPI_GPU_RestoreCoolerSettings 1006f9ee     nvapi:nvlink_gen.obj
 0002:000469f4       _NvAPI_GPU_GetCoolerPolicyTable 1006f9f4     nvapi:nvlink_gen.obj
 0002:000469fa       _NvAPI_GPU_SetCoolerPolicyTable 1006f9fa     nvapi:nvlink_gen.obj
 0002:00046a00       _NvAPI_GPU_RestoreCoolerPolicyTable 1006fa00     nvapi:nvlink_gen.obj
 0002:00046a06       _NvAPI_GPU_GetPstatesInfo  1006fa06     nvapi:nvlink_gen.obj
 0002:00046a0c       _NvAPI_GPU_GetCurrentPstate 1006fa0c     nvapi:nvlink_gen.obj
 0002:00046a12       _NvAPI_GPU_GetPstateClientLimits 1006fa12     nvapi:nvlink_gen.obj
 0002:00046a18       _NvAPI_GPU_SetPstateClientLimits 1006fa18     nvapi:nvlink_gen.obj
 0002:00046a1e       _NvAPI_GPU_EnableOverclockedPstates 1006fa1e     nvapi:nvlink_gen.obj
 0002:00046a24       _NvAPI_GPU_EnableDynamicPstates 1006fa24     nvapi:nvlink_gen.obj
 0002:00046a2a       _NvAPI_GPU_GetDynamicPstatesInfoEx 1006fa2a     nvapi:nvlink_gen.obj
 0002:00046a30       _NvAPI_GPU_GetThermalSettings 1006fa30     nvapi:nvlink_gen.obj
 0002:00046a36       _NvAPI_GPU_SetDitherControl 1006fa36     nvapi:nvlink_gen.obj
 0002:00046a3c       _NvAPI_GetTVOutputInfo     1006fa3c     nvapi:nvlink_gen.obj
 0002:00046a42       _NvAPI_GetTVEncoderControls 1006fa42     nvapi:nvlink_gen.obj
 0002:00046a48       _NvAPI_SetTVEncoderControls 1006fa48     nvapi:nvlink_gen.obj
 0002:00046a4e       _NvAPI_GetTVOutputBorderColor 1006fa4e     nvapi:nvlink_gen.obj
 0002:00046a54       _NvAPI_SetTVOutputBorderColor 1006fa54     nvapi:nvlink_gen.obj
 0002:00046a5a       _NvAPI_GetDisplayPosition  1006fa5a     nvapi:nvlink_gen.obj
 0002:00046a60       _NvAPI_SetDisplayPosition  1006fa60     nvapi:nvlink_gen.obj
 0002:00046a66       _NvAPI_GetValidGpuTopologies 1006fa66     nvapi:nvlink_gen.obj
 0002:00046a6c       _NvAPI_GetInvalidGpuTopologies 1006fa6c     nvapi:nvlink_gen.obj
 0002:00046a72       _NvAPI_SetGpuTopologies    1006fa72     nvapi:nvlink_gen.obj
 0002:00046a78       _NvAPI_GPU_GetPerGpuTopologyStatus 1006fa78     nvapi:nvlink_gen.obj
 0002:00046a7e       _NvAPI_SYS_GetChipSetTopologyStatus 1006fa7e     nvapi:nvlink_gen.obj
 0002:00046a84       _NvAPI_I2CRead             1006fa84     nvapi:nvlink_gen.obj
 0002:00046a8a       _NvAPI_I2CWrite            1006fa8a     nvapi:nvlink_gen.obj
 0002:00046a90       _NvAPI_I2CWriteEx          1006fa90     nvapi:nvlink_gen.obj
 0002:00046a96       _NvAPI_I2CReadEx           1006fa96     nvapi:nvlink_gen.obj
 0002:00046a9c       _NvAPI_GPU_GetPowerMizerInfo 1006fa9c     nvapi:nvlink_gen.obj
 0002:00046aa2       _NvAPI_GPU_SetPowerMizerInfo 1006faa2     nvapi:nvlink_gen.obj
 0002:00046aa8       _NvAPI_SYS_GetChipSetInfo  1006faa8     nvapi:nvlink_gen.obj
 0002:00046aae       _NvAPI_SYS_GetLidAndDockInfo 1006faae     nvapi:nvlink_gen.obj
 0002:00046ab4       _NvAPI_OGL_ExpertModeSet   1006fab4     nvapi:nvlink_gen.obj
 0002:00046aba       _NvAPI_OGL_ExpertModeGet   1006faba     nvapi:nvlink_gen.obj
 0002:00046ac0       _NvAPI_OGL_ExpertModeDefaultsSet 1006fac0     nvapi:nvlink_gen.obj
 0002:00046ac6       _NvAPI_OGL_ExpertModeDefaultsGet 1006fac6     nvapi:nvlink_gen.obj
 0002:00046acc       _NvAPI_SetDisplaySettings  1006facc     nvapi:nvlink_gen.obj
 0002:00046ad2       _NvAPI_GetDisplaySettings  1006fad2     nvapi:nvlink_gen.obj
 0002:00046ad8       _NvAPI_GetTiming           1006fad8     nvapi:nvlink_gen.obj
 0002:00046ade       _NvAPI_EnumCustomDisplay   1006fade     nvapi:nvlink_gen.obj
 0002:00046ae4       _NvAPI_TryCustomDisplay    1006fae4     nvapi:nvlink_gen.obj
 0002:00046aea       _NvAPI_RevertCustomDisplayTrial 1006faea     nvapi:nvlink_gen.obj
 0002:00046af0       _NvAPI_DeleteCustomDisplay 1006faf0     nvapi:nvlink_gen.obj
 0002:00046af6       _NvAPI_SaveCustomDisplay   1006faf6     nvapi:nvlink_gen.obj
 0002:00046afc       _NvAPI_QueryUnderscanCap   1006fafc     nvapi:nvlink_gen.obj
 0002:00046b02       _NvAPI_EnumUnderscanConfig 1006fb02     nvapi:nvlink_gen.obj
 0002:00046b08       _NvAPI_DeleteUnderscanConfig 1006fb08     nvapi:nvlink_gen.obj
 0002:00046b0e       _NvAPI_SetUnderscanConfig  1006fb0e     nvapi:nvlink_gen.obj
 0002:00046b14       _NvAPI_GetDisplayFeatureConfig 1006fb14     nvapi:nvlink_gen.obj
 0002:00046b1a       _NvAPI_SetDisplayFeatureConfig 1006fb1a     nvapi:nvlink_gen.obj
 0002:00046b20       _NvAPI_GetDisplayFeatureConfigDefaults 1006fb20     nvapi:nvlink_gen.obj
 0002:00046b26       _NvAPI_SetView             1006fb26     nvapi:nvlink_gen.obj
 0002:00046b2c       _NvAPI_GetView             1006fb2c     nvapi:nvlink_gen.obj
 0002:00046b32       _NvAPI_SetViewEx           1006fb32     nvapi:nvlink_gen.obj
 0002:00046b38       _NvAPI_GetViewEx           1006fb38     nvapi:nvlink_gen.obj
 0002:00046b3e       _NvAPI_GetSupportedViews   1006fb3e     nvapi:nvlink_gen.obj
 0002:00046b44       _NvAPI_GetHDCPLinkParameters 1006fb44     nvapi:nvlink_gen.obj
 0002:00046b4a       _NvAPI_SetHybridMode       1006fb4a     nvapi:nvlink_gen.obj
 0002:00046b50       _NvAPI_GetHybridMode       1006fb50     nvapi:nvlink_gen.obj
 0002:00046b56       _NvAPI_GetVideoState       1006fb56     nvapi:nvlink_gen.obj
 0002:00046b5c       _NvAPI_SetVideoState       1006fb5c     nvapi:nvlink_gen.obj
 0002:00046b62       _NvAPI_SetFrameRateNotify  1006fb62     nvapi:nvlink_gen.obj
 0002:00046b68       _NvAPI_SetPVExtName        1006fb68     nvapi:nvlink_gen.obj
 0002:00046b6e       _NvAPI_GetPVExtName        1006fb6e     nvapi:nvlink_gen.obj
 0002:00046b74       _NvAPI_Mosaic_GetSupportedTopoInfo 1006fb74     nvapi:nvlink_gen.obj
 0002:00046b7a       _NvAPI_Mosaic_GetTopoGroup 1006fb7a     nvapi:nvlink_gen.obj
 0002:00046b80       _NvAPI_Mosaic_GetOverlapLimits 1006fb80     nvapi:nvlink_gen.obj
 0002:00046b86       _NvAPI_Mosaic_SetCurrentTopo 1006fb86     nvapi:nvlink_gen.obj
 0002:00046b8c       _NvAPI_Mosaic_GetCurrentTopo 1006fb8c     nvapi:nvlink_gen.obj
 0002:00046b92       _NvAPI_Mosaic_EnableCurrentTopo 1006fb92     nvapi:nvlink_gen.obj
 0002:00046b98       _NvAPI_GetSupportedMosaicTopologies 1006fb98     nvapi:nvlink_gen.obj
 0002:00046b9e       _NvAPI_GetCurrentMosaicTopology 1006fb9e     nvapi:nvlink_gen.obj
 0002:00046ba4       _NvAPI_SetCurrentMosaicTopology 1006fba4     nvapi:nvlink_gen.obj
 0002:00046baa       _NvAPI_EnableCurrentMosaicTopology 1006fbaa     nvapi:nvlink_gen.obj
 0002:00046bb0       _NvAPI_QueryNonMigratableApps 1006fbb0     nvapi:nvlink_gen.obj
 0002:00046bb6       _NvAPI_GPU_GPIOQueryLegalPins 1006fbb6     nvapi:nvlink_gen.obj
 0002:00046bbc       _NvAPI_GPU_GPIOReadFromPin 1006fbbc     nvapi:nvlink_gen.obj
 0002:00046bc2       _NvAPI_GPU_GPIOWriteToPin  1006fbc2     nvapi:nvlink_gen.obj
 0002:00046bc8       _NvAPI_GPU_GetHDCPSupportStatus 1006fbc8     nvapi:nvlink_gen.obj
 0002:00046bce       _NvAPI_SetTopologyFocusDisplayAndView 1006fbce     nvapi:nvlink_gen.obj
 0002:00046bd4       _NvAPI_Stereo_CreateConfigurationProfileRegistryKey 1006fbd4     nvapi:nvlink_gen.obj
 0002:00046bda       _NvAPI_Stereo_DeleteConfigurationProfileRegistryKey 1006fbda     nvapi:nvlink_gen.obj
 0002:00046be0       _NvAPI_Stereo_SetConfigurationProfileValue 1006fbe0     nvapi:nvlink_gen.obj
 0002:00046be6       _NvAPI_Stereo_DeleteConfigurationProfileValue 1006fbe6     nvapi:nvlink_gen.obj
 0002:00046bec       _NvAPI_Stereo_Enable       1006fbec     nvapi:nvlink_gen.obj
 0002:00046bf2       _NvAPI_Stereo_Disable      1006fbf2     nvapi:nvlink_gen.obj
 0002:00046bf8       _NvAPI_Stereo_IsEnabled    1006fbf8     nvapi:nvlink_gen.obj
 0002:00046bfe       _NvAPI_Stereo_CreateHandleFromIUnknown 1006fbfe     nvapi:nvlink_gen.obj
 0002:00046c04       _NvAPI_Stereo_DestroyHandle 1006fc04     nvapi:nvlink_gen.obj
 0002:00046c0a       _NvAPI_Stereo_Activate     1006fc0a     nvapi:nvlink_gen.obj
 0002:00046c10       _NvAPI_Stereo_Deactivate   1006fc10     nvapi:nvlink_gen.obj
 0002:00046c16       _NvAPI_Stereo_IsActivated  1006fc16     nvapi:nvlink_gen.obj
 0002:00046c1c       _NvAPI_Stereo_GetSeparation 1006fc1c     nvapi:nvlink_gen.obj
 0002:00046c22       _NvAPI_Stereo_SetSeparation 1006fc22     nvapi:nvlink_gen.obj
 0002:00046c28       _NvAPI_Stereo_DecreaseSeparation 1006fc28     nvapi:nvlink_gen.obj
 0002:00046c2e       _NvAPI_Stereo_IncreaseSeparation 1006fc2e     nvapi:nvlink_gen.obj
 0002:00046c34       _NvAPI_Stereo_GetConvergence 1006fc34     nvapi:nvlink_gen.obj
 0002:00046c3a       _NvAPI_Stereo_SetConvergence 1006fc3a     nvapi:nvlink_gen.obj
 0002:00046c40       _NvAPI_Stereo_DecreaseConvergence 1006fc40     nvapi:nvlink_gen.obj
 0002:00046c46       _NvAPI_Stereo_IncreaseConvergence 1006fc46     nvapi:nvlink_gen.obj
 0002:00046c4c       _NvAPI_Stereo_GetFrustumAdjustMode 1006fc4c     nvapi:nvlink_gen.obj
 0002:00046c52       _NvAPI_Stereo_SetFrustumAdjustMode 1006fc52     nvapi:nvlink_gen.obj
 0002:00046c58       _NvAPI_Stereo_CaptureJpegImage 1006fc58     nvapi:nvlink_gen.obj
 0002:00046c5e       _NvAPI_Stereo_CapturePngImage 1006fc5e     nvapi:nvlink_gen.obj
 0002:00046c64       _NvAPI_Stereo_ReverseStereoBlitControl 1006fc64     nvapi:nvlink_gen.obj
 0002:00046c6a       _NvAPI_Stereo_SetNotificationMessage 1006fc6a     nvapi:nvlink_gen.obj
 0002:00046c70       _NvAPI_Stereo_IsWindowedModeSupported 1006fc70     nvapi:nvlink_gen.obj
 0002:00046c76       _NvAPI_GPU_GetTachReading  1006fc76     nvapi:nvlink_gen.obj
 0002:00046c7c       _NvAPI_3D_GetProperty      1006fc7c     nvapi:nvlink_gen.obj
 0002:00046c82       _NvAPI_3D_SetProperty      1006fc82     nvapi:nvlink_gen.obj
 0002:00046c88       _NvAPI_3D_GetPropertyRange 1006fc88     nvapi:nvlink_gen.obj
 0002:00046e38       _GetProcAddress@8          1006fe38 f   kernel32:KERNEL32.dll
 0002:00046e3e       _GetCurrentProcessId@0     1006fe3e f   kernel32:KERNEL32.dll
 0002:00046e44       _MultiByteToWideChar@24    1006fe44 f   kernel32:KERNEL32.dll
 0002:00046e4a       _WideCharToMultiByte@32    1006fe4a f   kernel32:KERNEL32.dll
 0002:00046e50       _MulDiv@12                 1006fe50 f   kernel32:KERNEL32.dll
 0002:00046e56       _DisableThreadLibraryCalls@4 1006fe56 f   kernel32:KERNEL32.dll
 0002:00046e5c       _InterlockedIncrement@4    1006fe5c f   kernel32:KERNEL32.dll
 0002:00046e62       _InterlockedDecrement@4    1006fe62 f   kernel32:KERNEL32.dll
 0002:00046e68       _Sleep@4                   1006fe68 f   kernel32:KERNEL32.dll
 0002:00046e6e       _FreeLibrary@4             1006fe6e f   kernel32:KERNEL32.dll
 0002:00046e74       _LoadLibraryA@4            1006fe74 f   kernel32:KERNEL32.dll
 0002:00046e7a       _DebugBreak@0              1006fe7a f   kernel32:KERNEL32.dll
 0002:00046e80       _GetProfileIntA@12         1006fe80 f   kernel32:KERNEL32.dll
 0002:00046e86       _InitializeCriticalSection@4 1006fe86 f   kernel32:KERNEL32.dll
 0002:00046e8c       _DeleteCriticalSection@4   1006fe8c f   kernel32:KERNEL32.dll
 0002:00046e92       _CloseHandle@4             1006fe92 f   kernel32:KERNEL32.dll
 0002:00046e98       _OutputDebugStringA@4      1006fe98 f   kernel32:KERNEL32.dll
 0002:00046e9e       _WriteFile@20              1006fe9e f   kernel32:KERNEL32.dll
 0002:00046ea4       _lstrlenA@4                1006fea4 f   kernel32:KERNEL32.dll
 0002:00046eaa       _SetFilePointer@16         1006feaa f   kernel32:KERNEL32.dll
 0002:00046eb0       _GetLastError@0            1006feb0 f   kernel32:KERNEL32.dll
 0002:00046eb6       _CreateFileA@28            1006feb6 f   kernel32:KERNEL32.dll
 0002:00046ebc       _SetConsoleTitleA@4        1006febc f   kernel32:KERNEL32.dll
 0002:00046ec2       _AllocConsole@0            1006fec2 f   kernel32:KERNEL32.dll
 0002:00046ec8       _GetStdHandle@4            1006fec8 f   kernel32:KERNEL32.dll
 0002:00046ece       _lstrcmpiA@8               1006fece f   kernel32:KERNEL32.dll
 0002:00046ed4       _GetModuleFileNameA@12     1006fed4 f   kernel32:KERNEL32.dll
 0002:00046eda       _WaitForSingleObject@8     1006feda f   kernel32:KERNEL32.dll
 0002:00046ee0       _CreateThread@24           1006fee0 f   kernel32:KERNEL32.dll
 0002:00046ee6       _FatalAppExitA@8           1006fee6 f   kernel32:KERNEL32.dll
 0002:00046eec       _GetCurrentThreadId@0      1006feec f   kernel32:KERNEL32.dll
 0002:00046ef2       _LeaveCriticalSection@4    1006fef2 f   kernel32:KERNEL32.dll
 0002:00046ef8       _EnterCriticalSection@4    1006fef8 f   kernel32:KERNEL32.dll
 0002:00046efe       _GetModuleHandleA@4        1006fefe f   kernel32:KERNEL32.dll
 0002:00046f04       _WaitForMultipleObjects@16 1006ff04 f   kernel32:KERNEL32.dll
 0002:00046f0a       _GetACP@0                  1006ff0a f   kernel32:KERNEL32.dll
 0002:00046f10       _lstrlenW@4                1006ff10 f   kernel32:KERNEL32.dll
 0002:00046f16       _lstrcmpW@8                1006ff16 f   kernel32:KERNEL32.dll
 0002:00046f1c       _CreateEventA@16           1006ff1c f   kernel32:KERNEL32.dll
 0002:00046f22       _ResetEvent@4              1006ff22 f   kernel32:KERNEL32.dll
 0002:00046f28       _DuplicateHandle@28        1006ff28 f   kernel32:KERNEL32.dll
 0002:00046f2e       _GetCurrentProcess@0       1006ff2e f   kernel32:KERNEL32.dll
 0002:00046f34       _SetEvent@4                1006ff34 f   kernel32:KERNEL32.dll
 0002:00046f3a       _CreateSemaphoreA@16       1006ff3a f   kernel32:KERNEL32.dll
 0002:00046f40       _ReleaseSemaphore@12       1006ff40 f   kernel32:KERNEL32.dll
 0002:00046f46       _GetSystemInfo@4           1006ff46 f   kernel32:KERNEL32.dll
 0002:00046f4c       _VirtualAlloc@16           1006ff4c f   kernel32:KERNEL32.dll
 0002:00046f52       _VirtualFree@12            1006ff52 f   kernel32:KERNEL32.dll
 0002:00046f58       _InterlockedExchange@8     1006ff58 f   kernel32:KERNEL32.dll
 0002:00046f5e       _SetThreadPriority@8       1006ff5e f   kernel32:KERNEL32.dll
 0002:00046f64       _GetThreadPriority@4       1006ff64 f   kernel32:KERNEL32.dll
 0002:00046f6a       _GetCurrentThread@0        1006ff6a f   kernel32:KERNEL32.dll
 0002:00046f70       _GetTickCount@0            1006ff70 f   kernel32:KERNEL32.dll
 0002:00046f76       _GetVersionExA@4           1006ff76 f   kernel32:KERNEL32.dll
 0002:00046f7c       _SetRect@20                1006ff7c f   user32:USER32.dll
 0002:00046f82       _GetClientRect@8           1006ff82 f   user32:USER32.dll
 0002:00046f88       _MessageBoxA@16            1006ff88 f   user32:USER32.dll
 0002:00046f8e       _PeekMessageA@20           1006ff8e f   user32:USER32.dll
 0002:00046f94       _MsgWaitForMultipleObjects@20 1006ff94 f   user32:USER32.dll
 0002:00046f9a       _PostThreadMessageA@16     1006ff9a f   user32:USER32.dll
 0002:00046fa0       _RegisterWindowMessageA@4  1006ffa0 f   user32:USER32.dll
 0002:00046fa6       _GetQueueStatus@4          1006ffa6 f   user32:USER32.dll
 0002:00046fac       _DispatchMessageA@4        1006ffac f   user32:USER32.dll
 0002:00046fb2       _RegSetValueExA@24         1006ffb2 f   advapi32:ADVAPI32.dll
 0002:00046fb8       _RegQueryValueExA@24       1006ffb8 f   advapi32:ADVAPI32.dll
 0002:00046fbe       _RegCloseKey@4             1006ffbe f   advapi32:ADVAPI32.dll
 0002:00046fc4       _RegCreateKeyExA@36        1006ffc4 f   advapi32:ADVAPI32.dll
 0002:00046fca       _CoTaskMemAlloc@4          1006ffca f   ole32:ole32.dll
 0002:00046fd0       _CreateItemMoniker@12      1006ffd0 f   ole32:ole32.dll
 0002:00046fd6       _GetRunningObjectTable@8   1006ffd6 f   ole32:ole32.dll
 0002:00046fdc       _CoCreateInstance@20       1006ffdc f   ole32:ole32.dll
 0002:00046fe2       _CoTaskMemFree@4           1006ffe2 f   ole32:ole32.dll
 0002:00046fe8       _StringFromGUID2@12        1006ffe8 f   ole32:ole32.dll
 0002:00046fee       _CoUninitialize@0          1006ffee f   ole32:ole32.dll
 0002:00046ff4       _CoFreeUnusedLibraries@0   1006fff4 f   ole32:ole32.dll
 0002:00046ffa       _CoInitialize@4            1006fffa f   ole32:ole32.dll
 0002:00047000       _SysFreeString@4           10070000 f   oleaut32:OLEAUT32.dll
 0002:00047006       _SysAllocString@4          10070006 f   oleaut32:OLEAUT32.dll
 0002:00047010       _IsPlatformNT              10070010 f   libgpu:UtilGPU.obj
 0002:000470d0       _InitMultipleMonitorStubs  100700d0 f   libgpu:UtilGPU.obj
 0002:000472b0       _xGetSystemMetrics@4       100702b0 f   libgpu:UtilGPU.obj
 0002:00047350       _xMonitorFromPoint@12      10070350 f   libgpu:UtilGPU.obj
 0002:000473d0       _xMonitorFromRect@8        100703d0 f   libgpu:UtilGPU.obj
 0002:00047460       _xMonitorFromWindow@8      10070460 f   libgpu:UtilGPU.obj
 0002:00047550       _xGetMonitorInfo@8         10070550 f   libgpu:UtilGPU.obj
 0002:000476c0       _xEnumDisplayMonitors@16   100706c0 f   libgpu:UtilGPU.obj
 0002:000478d0       _xEnumDisplayDevices@16    100708d0 f   libgpu:UtilGPU.obj
 0002:00047990       ?GetDeviceIdentifierEx@@YAJPAX0K@Z 10070990 f   libgpu:UtilGPU.obj
 0002:00047d60       ?DDEnumDevCallback@@YGHPAU_GUID@@PAD1PAXPAUHMONITOR__@@@Z 10070d60 f   libgpu:UtilGPU.obj
 0002:00047f00       ?AddDisplayDevice@CUtilGPU@@SGJPBDKKPAD1@Z 10070f00 f   libgpu:UtilGPU.obj
 0002:00047ff0       ?EnumerateDisplayDevices@CUtilGPU@@CAHXZ 10070ff0 f   libgpu:UtilGPU.obj
 0002:000482d0       ?GetDisplayDeviceType@CUtilGPU@@SGJPBDAAVCDisplayDevItem@@@Z 100712d0 f   libgpu:UtilGPU.obj
 0002:00048410       ?QueryVideoMemorySize@CUtilGPU@@SGJKPAK0@Z 10071410 f   libgpu:UtilGPU.obj
 0002:00048b20       __tcscmp                   10071b20 f i libgpu:UtilGPU.obj
 0002:00048b60       ?_AtlGetConversionACP@ATL@@YGIXZ 10071b60 f i libgpu:UtilGPU.obj
 0002:00048b90       ?T2CA@@YAPBDPBD@Z          10071b90 f i libgpu:UtilGPU.obj
 0002:00048ba0       ?A2CT@@YAPBDPBD@Z          10071ba0 f i libgpu:UtilGPU.obj
 0002:00048bb0       __tcsncpy_s                10071bb0 f i libgpu:UtilGPU.obj
 0002:00048bf0       __tcsncicmp                10071bf0 f i libgpu:UtilGPU.obj
 0002:00048c28       _free                      10071c28 f   MSVCRTD:MSVCR80D.dll
 0002:00048c2e       ___CxxFrameHandler3        10071c2e f   MSVCRTD:MSVCR80D.dll
 0002:00048c40       @__security_check_cookie@4 10071c40 f   MSVCRTD:secchk.obj
 0002:00048c60       __RTC_CheckEsp             10071c60 f   MSVCRTD:stack.obj
 0002:00048c90       @_RTC_CheckStackVars@8     10071c90 f   MSVCRTD:stack.obj
 0002:00048d10       @_RTC_AllocaHelper@12      10071d10 f   MSVCRTD:stack.obj
 0002:00048d50       @_RTC_CheckStackVars2@12   10071d50 f   MSVCRTD:stack.obj
 0002:00048e60       __RTC_InitBase             10071e60 f   MSVCRTD:init.obj
 0002:00048ea0       __RTC_Shutdown             10071ea0 f   MSVCRTD:init.obj
 0002:00048eb8       _memcmp                    10071eb8 f   MSVCRTD:MSVCR80D.dll
 0002:00048ebe       _memcpy                    10071ebe f   MSVCRTD:MSVCR80D.dll
 0002:00048ec4       _malloc                    10071ec4 f   MSVCRTD:MSVCR80D.dll
 0002:00048eca       _memset                    10071eca f   MSVCRTD:MSVCR80D.dll
 0002:00048ed0       __chkstk                   10071ed0 f   MSVCRTD:chkstk.obj
 0002:00048ed0       __alloca_probe             10071ed0     MSVCRTD:chkstk.obj
 0002:00048f10       ??0type_info@@AAE@ABV0@@Z  10071f10 f   MSVCRTD:ti_inst.obj
 0002:00048f30       ??_Etype_info@@UAEPAXI@Z   10071f30 f i MSVCRTD:ti_inst.obj
 0002:00048fc0       ??4type_info@@AAEAAV0@ABV0@@Z 10071fc0 f   MSVCRTD:ti_inst.obj
 0002:00048fd4       ??3@YAXPAX@Z               10071fd4 f   MSVCRTD:MSVCR80D.dll
 0002:00048fda       ??2@YAPAXI@Z               10071fda f   MSVCRTD:MSVCR80D.dll
 0002:00048fe0       _wcslen                    10071fe0 f   MSVCRTD:MSVCR80D.dll
 0002:00048ff0       _DebuggerKnownHandle       10071ff0 f   MSVCRTD:error.obj
 0002:000490c0       ?_RTC_Failure@@YAXPAXH@Z   100720c0 f   MSVCRTD:error.obj
 0002:000494c0       ?_RTC_StackFailure@@YAXPAXPBD@Z 100724c0 f   MSVCRTD:error.obj
 0002:00049630       ?_RTC_AllocaFailure@@YAXPAXPAU_RTC_ALLOCA_NODE@@H@Z 10072630 f   MSVCRTD:error.obj
 0002:00049840       __RTC_UninitUse            10072840 f   MSVCRTD:error.obj
 0002:00049990       __vswprintf_c_l            10072990 f   MSVCRTD:MSVCR80D.dll
 0002:00049996       __wcsicmp                  10072996 f   MSVCRTD:MSVCR80D.dll
 0002:0004999c       _wcsstr                    1007299c f   MSVCRTD:MSVCR80D.dll
 0002:000499a2       _strcpy_s                  100729a2 f   MSVCRTD:MSVCR80D.dll
 0002:000499a8       __mbsstr                   100729a8 f   MSVCRTD:MSVCR80D.dll
 0002:000499ae       _strcmp                    100729ae f   MSVCRTD:MSVCR80D.dll
 0002:000499b4       _swprintf_s                100729b4 f   MSVCRTD:MSVCR80D.dll
 0002:000499ba       ??_V@YAXPAX@Z              100729ba f   MSVCRTD:MSVCR80D.dll
 0002:000499c0       ??_U@YAPAXI@Z              100729c0 f   MSVCRTD:MSVCR80D.dll
 0002:000499c6       __CrtDbgReportW            100729c6 f   MSVCRTD:MSVCR80D.dll
 0002:000499cc       __purecall                 100729cc f   MSVCRTD:MSVCR80D.dll
 0002:000499e0       __invalid_parameter        100729e0 f   MSVCRTD:MSVCR80D.dll
 0002:000499e6       __CxxThrowException@8      100729e6 f   MSVCRTD:MSVCR80D.dll
 0002:000499ec       ??0exception@std@@QAE@ABV01@@Z 100729ec f   MSVCRTD:MSVCR80D.dll
 0002:000499f2       ??1exception@std@@UAE@XZ   100729f2 f   MSVCRTD:MSVCR80D.dll
 0002:000499f8       ??0exception@std@@QAE@XZ   100729f8 f   MSVCRTD:MSVCR80D.dll
 0002:000499fe       ??0exception@std@@QAE@ABQBD@Z 100729fe f   MSVCRTD:MSVCR80D.dll
 0002:00049a04       ?what@exception@std@@UBEPBDXZ 10072a04 f   MSVCRTD:MSVCR80D.dll
 0002:00049a0a       _memmove_s                 10072a0a f   MSVCRTD:MSVCR80D.dll
 0002:00049a10       __allshr                   10072a10 f   MSVCRTD:llshr.obj
 0002:00049a40       __ftol2_sse                10072a40 f   MSVCRTD:ftol2.obj
 0002:00049a49       __ftol2_pentium4           10072a49 f   MSVCRTD:ftol2.obj
 0002:00049a5c       __ftol2_sse_excpt          10072a5c f   MSVCRTD:ftol2.obj
 0002:00049a76       __ftol2                    10072a76 f   MSVCRTD:ftol2.obj
 0002:00049b16       _wcscpy_s                  10072b16 f   MSVCRTD:MSVCR80D.dll
 0002:00049bc0       __CRT_INIT@12              10072bc0 f   MSVCRTD:crtdll.obj
 0002:00049e80       _NtCurrentTeb              10072e80 f i MSVCRTD:crtdll.obj
 0002:00049e90       __DllMainCRTStartup@12     10072e90 f   MSVCRTD:crtdll.obj
 0002:0004a0f0       __vsnprintf                100730f0 f   MSVCRTD:MSVCR80D.dll
 0002:0004a0f6       __mbsrchr                  100730f6 f   MSVCRTD:MSVCR80D.dll
 0002:0004a100       __alldiv                   10073100 f   MSVCRTD:lldiv.obj
 0002:0004a1e0       __allrem                   100731e0 f   MSVCRTD:llrem.obj
 0002:0004a2c0       __allmul                   100732c0 f   MSVCRTD:llmul.obj
 0002:0004a302       _strncpy_s                 10073302 f   MSVCRTD:MSVCR80D.dll
 0002:0004a308       __mbscmp                   10073308 f   MSVCRTD:MSVCR80D.dll
 0002:0004a30e       __mbsnbcpy_s               1007330e f   MSVCRTD:MSVCR80D.dll
 0002:0004a314       __mbsnicmp                 10073314 f   MSVCRTD:MSVCR80D.dll
 0002:0004a320       ___report_gsfailure        10073320 f   MSVCRTD:gs_report.obj
 0002:0004a470       __RTC_NumErrors            10073470 f   MSVCRTD:userapi.obj
 0002:0004a480       __RTC_GetErrDesc           10073480 f   MSVCRTD:userapi.obj
 0002:0004a4a0       __RTC_SetErrorType         100734a0 f   MSVCRTD:userapi.obj
 0002:0004a4d0       __RTC_SetErrorFunc         100734d0 f   MSVCRTD:userapi.obj
 0002:0004a500       __RTC_SetErrorFuncW        10073500 f   MSVCRTD:userapi.obj
 0002:0004a530       ?_RTC_GetErrorFunc@@YAP6AHHPBDH00ZZPBX@Z 10073530 f   MSVCRTD:userapi.obj
 0002:0004a540       ?_RTC_GetErrorFuncW@@YAP6AHHPB_WH00ZZPBX@Z 10073540 f   MSVCRTD:userapi.obj
 0002:0004a546       __CRT_RTC_INITW            10073546 f   MSVCRTD:MSVCR80D.dll
 0002:0004a550       ??_M@YGXPAXIHP6EX0@Z@Z     10073550 f   MSVCRTD:ehvecdtr.obj
 0002:0004a630       ?__ArrayUnwind@@YGXPAXIHP6EX0@Z@Z 10073630 f   MSVCRTD:ehvecdtr.obj
 0002:0004a720       __except_handler4          10073720 f   MSVCRTD:chandler4gs.obj
 0002:0004a750       ?_RTC_GetSrcLine@@YAHPAEPA_WKPAH1K@Z 10073750 f   MSVCRTD:pdblkup.obj
 0002:0004ad00       __get_sse2_info            10073d00 f   MSVCRTD:cpu_disp.obj
 0002:0004ae70       ___sse2_available_init     10073e70 f   MSVCRTD:cpu_disp.obj
 0002:0004ae90       ___clean_type_info_names   10073e90 f   MSVCRTD:tncleanup.obj
 0002:0004aeb0       __onexit                   10073eb0 f   MSVCRTD:atonexit.obj
 0002:0004aff0       _atexit                    10073ff0 f   MSVCRTD:atonexit.obj
 0002:0004b010       __RTC_Initialize           10074010 f   MSVCRTD:initsect.obj
 0002:0004b040       __RTC_Terminate            10074040 f   MSVCRTD:initsect.obj
 0002:0004b06e       __encode_pointer           1007406e f   MSVCRTD:MSVCR80D.dll
 0002:0004b074       __malloc_dbg               10074074 f   MSVCRTD:MSVCR80D.dll
 0002:0004b07a       __encoded_null             1007407a f   MSVCRTD:MSVCR80D.dll
 0002:0004b080       __free_dbg                 10074080 f   MSVCRTD:MSVCR80D.dll
 0002:0004b086       __decode_pointer           10074086 f   MSVCRTD:MSVCR80D.dll
 0002:0004b08c       __CrtSetCheckCount         1007408c f   MSVCRTD:MSVCR80D.dll
 0002:0004b0a0       __ValidateImageBase        100740a0 f   MSVCRTD:pesect.obj
 0002:0004b120       __FindPESection            10074120 f   MSVCRTD:pesect.obj
 0002:0004b1b0       __IsNonwritableInCurrentImage 100741b0 f   MSVCRTD:pesect.obj
 0002:0004b304       __initterm                 10074304 f   MSVCRTD:MSVCR80D.dll
 0002:0004b30a       __initterm_e               1007430a f   MSVCRTD:MSVCR80D.dll
 0002:0004b310       __amsg_exit                10074310 f   MSVCRTD:MSVCR80D.dll
 0002:0004b320       ___security_init_cookie    10074320 f   MSVCRTD:gs_support.obj
 0002:0004b480       ___CppXcptFilter           10074480 f   MSVCRTD:MSVCR80D.dll
 0002:0004b486       __crt_debugger_hook        10074486 f   MSVCRTD:MSVCR80D.dll
 0002:0004b48c       ?terminate@@YAXXZ          1007448c f   MSVCRTD:MSVCR80D.dll
 0002:0004b492       ??1type_info@@UAE@XZ       10074492 f   MSVCRTD:MSVCR80D.dll
 0002:0004b492       ?_type_info_dtor_internal_method@type_info@@QAEXXZ 10074492 f   MSVCRTD:MSVCR80D.dll
 0002:0004b498       __except_handler4_common   10074498 f   MSVCRTD:MSVCR80D.dll
 0002:0004b49e       ___clean_type_info_names_internal 1007449e f   MSVCRTD:MSVCR80D.dll
 0002:0004b4a4       __unlock                   100744a4 f   MSVCRTD:MSVCR80D.dll
 0002:0004b4aa       ___dllonexit               100744aa f   MSVCRTD:MSVCR80D.dll
 0002:0004b4b0       __lock                     100744b0 f   MSVCRTD:MSVCR80D.dll
 0002:0004b4c0       ?_AtlGetThreadACPThunk@ATL@@YGIXZ 100744c0 f i atlsd:atltrace.obj
 0002:0004b560       ?InterlockedExchangePointer@@YGPAXPAPAXPAX@Z 10074560 f i atlsd:atltrace.obj
 0002:0004b580       ?_AtlGetThreadACPFake@ATL@@YGIXZ 10074580 f i atlsd:atltrace.obj
 0002:0004b630       ?_AtlGetThreadACPReal@ATL@@YGIXZ 10074630 f i atlsd:atltrace.obj
 0002:0004b640       ??0CTraceCategory@ATL@@QAE@PBDI@Z 10074640 f i atlsd:atltrace.obj
 0002:0004b6a0       ?ChangeCategory@CTrace@ATL@@QAE_NKIW4ATLTRACESTATUS@2@@Z 100746a0 f i atlsd:atltrace.obj
 0002:0004b6d0       ?RegisterCategory@CTrace@ATL@@QAEKPBD@Z 100746d0 f i atlsd:atltrace.obj
 0002:0004b700       ??0CAtlAllocator@@QAE@XZ   10074700 f i atlsd:Externs.obj
 0002:0004b760       ??0CTraceSnapshot@@QAE@XZ  10074760 f i atlsd:Externs.obj
 0002:0004b790       ??0?$CSimpleArray@UCModuleInfo@CTraceSnapshot@@V?$CSimpleArrayEqualHelper@UCModuleInfo@CTraceSnapshot@@@ATL@@@ATL@@QAE@XZ 10074790 f i atlsd:Externs.obj
 0002:0004b7d0       ??0?$CSimpleArray@KV?$CSimpleArrayEqualHelper@K@ATL@@@ATL@@QAE@XZ 100747d0 f i atlsd:Externs.obj
 0002:0004b970       ??0CAtlException@ATL@@QAE@J@Z 10074970 f i atlsd:Externs.obj
 0002:0004b990       ?AtlCrtErrorCheck@ATL@@YAHH@Z 10074990 f i atlsd:Externs.obj
 0002:0004ba70       ?AtlThrowImpl@ATL@@YGXJ@Z  10074a70 f i atlsd:Externs.obj
 0002:0004bb20       ??0CTraceFileAndLineInfo@ATL@@QAE@PBDH@Z 10074b20 f i atlsd:Externs.obj
 0002:0004bb50       ??RCTraceFileAndLineInfo@ATL@@QBAXKIPBDZZ 10074b50 f i atlsd:Externs.obj
 0002:0004bba0       ?TraceV@CTrace@ATL@@QBAXPBDHKI0PAD@Z 10074ba0 f i atlsd:Externs.obj
 0002:0004bbe0       ??BCTraceCategory@ATL@@QBEKXZ 10074be0 f i atlsd:Externs.obj
 0002:0004bc00       ?_AtlRaiseException@ATL@@YAXKK@Z 10074c00 f i atlsd:Externs.obj
 0002:0004bc20       ??0CTrace@ATL@@AAE@P6AHHPBDH00ZZ@Z 10074c20 f i atlsd:Externs.obj
 0002:0004bc70       ??1CAtlAllocator@@QAE@XZ   10074c70 f i atlsd:Externs.obj
 0002:0004bca0       ??1CTraceSnapshot@@QAE@XZ  10074ca0 f i atlsd:Externs.obj
 0002:0004bcd0       ??1?$CSimpleArray@UCModuleInfo@CTraceSnapshot@@V?$CSimpleArrayEqualHelper@UCModuleInfo@CTraceSnapshot@@@ATL@@@ATL@@QAE@XZ 10074cd0 f i atlsd:Externs.obj
 0002:0004bcf0       ??1?$CSimpleArray@KV?$CSimpleArrayEqualHelper@K@ATL@@@ATL@@QAE@XZ 10074cf0 f i atlsd:Externs.obj
 0002:0004bd10       ?RemoveAll@?$CSimpleArray@UCModuleInfo@CTraceSnapshot@@V?$CSimpleArrayEqualHelper@UCModuleInfo@CTraceSnapshot@@@ATL@@@ATL@@QAEXXZ 10074d10 f i atlsd:Externs.obj
 0002:0004bd90       ?RemoveAll@?$CSimpleArray@KV?$CSimpleArrayEqualHelper@K@ATL@@@ATL@@QAEXXZ 10074d90 f i atlsd:Externs.obj
 0002:0004be10       ??1CTrace@ATL@@AAE@XZ      10074e10 f i atlsd:Externs.obj
 0002:0004be30       ?NotifyTool@ATL@@YGXXZ     10074e30 f   atlsd:AtlDebugAPI.obj
 0002:0004be70       _AtlTraceRegister@8        10074e70 f   atlsd:AtlDebugAPI.obj
 0002:0004bee0       _AtlTraceUnregister@4      10074ee0 f   atlsd:AtlDebugAPI.obj
 0002:0004bf10       _AtlTraceRegisterCategoryA@8 10074f10 f   atlsd:AtlDebugAPI.obj
 0002:0004bf60       _AtlTraceRegisterCategoryU@8 10074f60 f   atlsd:AtlDebugAPI.obj
 0002:0004bfa0       _AtlTraceModifyProcess@20  10074fa0 f   atlsd:AtlDebugAPI.obj
 0002:0004c040       _AtlTraceModifyModule@16   10075040 f   atlsd:AtlDebugAPI.obj
 0002:0004c120       _AtlTraceModifyCategory@16 10075120 f   atlsd:AtlDebugAPI.obj
 0002:0004c1d0       _AtlTraceGetProcess@20     100751d0 f   atlsd:AtlDebugAPI.obj
 0002:0004c2a0       _AtlTraceGetModule@16      100752a0 f   atlsd:AtlDebugAPI.obj
 0002:0004c3b0       _AtlTraceGetCategory@16    100753b0 f   atlsd:AtlDebugAPI.obj
 0002:0004c490       _AtlTraceGetUpdateEventNameA@4 10075490 f   atlsd:AtlDebugAPI.obj
 0002:0004c4c0       _AtlTraceGetUpdateEventNameA_s@8 100754c0 f   atlsd:AtlDebugAPI.obj
 0002:0004c4f0       _AtlTraceGetUpdateEventNameU@4 100754f0 f   atlsd:AtlDebugAPI.obj
 0002:0004c540       _AtlTraceGetUpdateEventNameU_s@8 10075540 f   atlsd:AtlDebugAPI.obj
 0002:0004c5a0       _AtlTraceVA                100755a0 f   atlsd:AtlDebugAPI.obj
 0002:0004c8c0       _AtlTraceVU                100758c0 f   atlsd:AtlDebugAPI.obj
 0002:0004cc10       _AtlTraceOpenProcess@4     10075c10 f   atlsd:AtlDebugAPI.obj
 0002:0004cd00       _AtlTraceCloseProcess@4    10075d00 f   atlsd:AtlDebugAPI.obj
 0002:0004cd90       _AtlTraceSnapshotProcess@4 10075d90 f   atlsd:AtlDebugAPI.obj
 0002:0004ce00       _AtlTraceGetProcessInfo@8  10075e00 f   atlsd:AtlDebugAPI.obj
 0002:0004cfa0       _AtlTraceGetModuleInfo@12  10075fa0 f   atlsd:AtlDebugAPI.obj
 0002:0004d130       _AtlTraceGetCategoryInfo@16 10076130 f   atlsd:AtlDebugAPI.obj
 0002:0004da50       ?GetProcess@CAtlAllocator@@QBEPAVCAtlTraceProcess@@XZ 10076a50 f i atlsd:AtlDebugAPI.obj
 0002:0004da70       ?Name@CAtlTraceCategory@@QBEPB_WXZ 10076a70 f i atlsd:AtlDebugAPI.obj
 0002:0004da90       ??_GCAtlAllocator@@QAEPAXI@Z 10076a90 f i atlsd:AtlDebugAPI.obj
 0002:0004dad0       ?Path@CAtlTraceModuleInfo@@QBEPB_WXZ 10076ad0 f i atlsd:AtlDebugAPI.obj
 0002:0004daf0       ?Name@CAtlTraceModuleInfo@@QBEPB_WXZ 10076af0 f i atlsd:AtlDebugAPI.obj
 0002:0004db10       ?Id@CAtlTraceProcess@@QBEKXZ 10076b10 f i atlsd:AtlDebugAPI.obj
 0002:0004db30       ?CrtDbgReport@CAtlTraceModule@@QBEP6AHHPBDH00ZZXZ 10076b30 f i atlsd:AtlDebugAPI.obj
 0002:0004db50       ?GetSize@?$CSimpleArray@UCModuleInfo@CTraceSnapshot@@V?$CSimpleArrayEqualHelper@UCModuleInfo@CTraceSnapshot@@@ATL@@@ATL@@QBEHXZ 10076b50 f i atlsd:AtlDebugAPI.obj
 0002:0004db70       ??A?$CSimpleArray@UCModuleInfo@CTraceSnapshot@@V?$CSimpleArrayEqualHelper@UCModuleInfo@CTraceSnapshot@@@ATL@@@ATL@@QAEAAUCModuleInfo@CTraceSnapshot@@H@Z 10076b70 f i atlsd:AtlDebugAPI.obj
 0002:0004dbf0       ?strcpy_s@Checked@ATL@@YAXPADIPBD@Z 10076bf0 f i atlsd:AtlDebugAPI.obj
 0002:0004dc20       ?wcscpy_s@Checked@ATL@@YAXPA_WIPB_W@Z 10076c20 f i atlsd:AtlDebugAPI.obj
 0002:0004dc50       ??0?$CA2WEX@$0IA@@ATL@@QAE@PBD@Z 10076c50 f i atlsd:AtlDebugAPI.obj
 0002:0004dc90       ??1?$CA2WEX@$0IA@@ATL@@QAE@XZ 10076c90 f i atlsd:AtlDebugAPI.obj
 0002:0004dcc0       ??B?$CA2WEX@$0IA@@ATL@@QBEPA_WXZ 10076cc0 f i atlsd:AtlDebugAPI.obj
 0002:0004dce0       ?Init@?$CA2WEX@$0IA@@ATL@@AAEXPBDI@Z 10076ce0 f i atlsd:AtlDebugAPI.obj
 0002:0004de20       ?AtlThrowLastWin32@ATL@@YGXXZ 10076e20 f i atlsd:AtlDebugAPI.obj
 0002:0004de80       ??$AtlConvFreeMemory@_W@ATL@@YAXPA_W0H@Z 10076e80 f i atlsd:AtlDebugAPI.obj
 0002:0004dec0       ??$AtlConvAllocMemory@_W@ATL@@YAXPAPA_WHPA_WH@Z 10076ec0 f i atlsd:AtlDebugAPI.obj
 0002:0004e090       ?Init@CAtlAllocator@@QAE_NPBDK@Z 10077090 f   atlsd:Allocate.obj
 0002:0004e3d0       ?Open@CAtlAllocator@@QAE_NPBD@Z 100773d0 f   atlsd:Allocate.obj
 0002:0004e510       ?Close@CAtlAllocator@@QAEX_N@Z 10077510 f   atlsd:Allocate.obj
 0002:0004e580       ?GetModule@CAtlAllocator@@QBEPAVCAtlTraceModule@@H@Z 10077580 f   atlsd:Allocate.obj
 0002:0004e600       ?GetCategory@CAtlAllocator@@QBEPAVCAtlTraceCategory@@H@Z 10077600 f   atlsd:Allocate.obj
 0002:0004e6a0       ?GetCategoryCount@CAtlAllocator@@QBEHH@Z 100776a0 f   atlsd:Allocate.obj
 0002:0004e710       ?GetCategoryCount@CAtlAllocator@@QBEHABVCAtlTraceModule@@@Z 10077710 f   atlsd:Allocate.obj
 0002:0004e770       ?GetModuleCount@CAtlAllocator@@QBEHXZ 10077770 f   atlsd:Allocate.obj
 0002:0004e7b0       ?FindModule@CAtlAllocator@@QBE_NPB_WPAI@Z 100777b0 f   atlsd:Allocate.obj
 0002:0004e820       ?AddModule@CAtlAllocator@@QAEHPAUHINSTANCE__@@@Z 10077820 f   atlsd:Allocate.obj
 0002:0004e9e0       ?AddCategory@CAtlAllocator@@QAEHHPB_W@Z 100779e0 f   atlsd:Allocate.obj
 0002:0004ec00       ?RemoveModule@CAtlAllocator@@QAE_NH@Z 10077c00 f   atlsd:Allocate.obj
 0002:0004eca0       ?CleanUp@CAtlAllocator@@QAEXXZ 10077ca0 f   atlsd:Allocate.obj
 0002:0004ecc0       ?TakeSnapshot@CAtlAllocator@@QAEXXZ 10077cc0 f   atlsd:Allocate.obj
 0002:0004ee80       ?ReleaseSnapshot@CAtlAllocator@@QAEXXZ 10077e80 f   atlsd:Allocate.obj
 0002:0004f300       ?IncRef@CAtlTraceProcess@@QAEIXZ 10078300 f i atlsd:Allocate.obj
 0002:0004f340       ?Base@CAtlTraceProcess@@QBEPAXXZ 10078340 f i atlsd:Allocate.obj
 0002:0004f360       ?DecRef@CAtlTraceProcess@@QAEIXZ 10078360 f i atlsd:Allocate.obj
 0002:0004f3a0       ?ModuleCount@CAtlTraceProcess@@QBEHXZ 100783a0 f i atlsd:Allocate.obj
 0002:0004f3c0       ?MaxSize@CAtlTraceProcess@@QBEKXZ 100783c0 f i atlsd:Allocate.obj
 0002:0004f3e0       ?CategoryCount@CAtlTraceProcess@@QBEHXZ 100783e0 f i atlsd:Allocate.obj
 0002:0004f400       ?TryAllocate@CAtlTraceSettings@@QAE_NXZ 10078400 f i atlsd:Allocate.obj
 0002:0004f450       ?MarkValid@CAtlTraceSettings@@QAEXJ@Z 10078450 f i atlsd:Allocate.obj
 0002:0004f4a0       ?IncModuleCount@CAtlTraceProcess@@QAEXI@Z 100784a0 f i atlsd:Allocate.obj
 0002:0004f4d0       ?TryAddRef@CAtlTraceSettings@@QAE_NXZ 100784d0 f i atlsd:Allocate.obj
 0002:0004f520       ?Release@CAtlTraceSettings@@QAEXXZ 10078520 f i atlsd:Allocate.obj
 0002:0004f560       ?IncCategoryCount@CAtlTraceProcess@@QAEXI@Z 10078560 f i atlsd:Allocate.obj
 0002:0004f590       ?Add@?$CSimpleArray@UCModuleInfo@CTraceSnapshot@@V?$CSimpleArrayEqualHelper@UCModuleInfo@CTraceSnapshot@@@ATL@@@ATL@@QAEHABUCModuleInfo@CTraceSnapshot@@@Z 10078590 f i atlsd:Allocate.obj
 0002:0004f670       ?GetSize@?$CSimpleArray@KV?$CSimpleArrayEqualHelper@K@ATL@@@ATL@@QBEHXZ 10078670 f i atlsd:Allocate.obj
 0002:0004f690       ?Add@?$CSimpleArray@KV?$CSimpleArrayEqualHelper@K@ATL@@@ATL@@QAEHABK@Z 10078690 f i atlsd:Allocate.obj
 0002:0004f770       ?RemoveAt@?$CSimpleArray@KV?$CSimpleArrayEqualHelper@K@ATL@@@ATL@@QAEHH@Z 10078770 f i atlsd:Allocate.obj
 0002:0004f860       ??A?$CSimpleArray@KV?$CSimpleArrayEqualHelper@K@ATL@@@ATL@@QAEAAKH@Z 10078860 f i atlsd:Allocate.obj
 0002:0004f8e0       ?InternalSetAtIndex@?$CSimpleArray@UCModuleInfo@CTraceSnapshot@@V?$CSimpleArrayEqualHelper@UCModuleInfo@CTraceSnapshot@@@ATL@@@ATL@@QAEXHABUCModuleInfo@CTraceSnapshot@@@Z 100788e0 f i atlsd:Allocate.obj
 0002:0004f940       ?InternalSetAtIndex@?$CSimpleArray@KV?$CSimpleArrayEqualHelper@K@ATL@@@ATL@@QAEXHABK@Z 10078940 f i atlsd:Allocate.obj
 0002:0004f9a0       ??0Wrapper@?$CSimpleArray@UCModuleInfo@CTraceSnapshot@@V?$CSimpleArrayEqualHelper@UCModuleInfo@CTraceSnapshot@@@ATL@@@ATL@@QAE@ABUCModuleInfo@CTraceSnapshot@@@Z 100789a0 f i atlsd:Allocate.obj
 0002:0004f9d0       ??0Wrapper@?$CSimpleArray@KV?$CSimpleArrayEqualHelper@K@ATL@@@ATL@@QAE@ABK@Z 100789d0 f i atlsd:Allocate.obj
 0002:0004f9f0       ??$?2UCModuleInfo@CTraceSnapshot@@@Wrapper@?$CSimpleArray@UCModuleInfo@CTraceSnapshot@@V?$CSimpleArrayEqualHelper@UCModuleInfo@CTraceSnapshot@@@ATL@@@ATL@@SAPAXIPAUCModuleInfo@CTraceSnapshot@@@Z 100789f0 f i atlsd:Allocate.obj
 0002:0004fa00       ??$?2K@Wrapper@?$CSimpleArray@KV?$CSimpleArrayEqualHelper@K@ATL@@@ATL@@SAPAXIPAK@Z 10078a00 f i atlsd:Allocate.obj
 0002:0004fa10       ?memmove_s@Checked@ATL@@YAXPAXIPBXI@Z 10078a10 f i atlsd:Allocate.obj
 0002:0004fa40       ??2@YAPAXIPAX@Z            10078a40 f i atlsd:Allocate.obj
 0002:0004fa50       ??0CAtlTraceModuleInfo@@QAE@XZ 10078a50 f   atlsd:AtlTraceModuleManager.obj
 0002:0004faa0       ?Reset@CAtlTraceModuleInfo@@QAEXPAUHINSTANCE__@@@Z 10078aa0 f   atlsd:AtlTraceModuleManager.obj
 0002:0004fd10       ??0CAtlTraceCategory@@QAE@XZ 10078d10 f   atlsd:AtlTraceModuleManager.obj
 0002:0004fd40       ?Reset@CAtlTraceCategory@@QAEXPB_WJ@Z 10078d40 f   atlsd:AtlTraceModuleManager.obj
 0002:0004fd90       ??0CAtlTraceModule@@QAE@XZ 10078d90 f   atlsd:AtlTraceModuleManager.obj
 0002:0004fdd0       ?CrtDbgReport@CAtlTraceModule@@QAEXP6AHHPBDH00ZZ@Z 10078dd0 f   atlsd:AtlTraceModuleManager.obj
 0002:0004fe00       ??0CAtlTraceProcess@@QAE@K@Z 10078e00 f   atlsd:AtlTraceModuleManager.obj
 0002:0004fed0       ?GetNextCookie@CAtlTraceProcess@@QAEJXZ 10078ed0 f   atlsd:AtlTraceModuleManager.obj
 0002:00050010       ??0CAtlTraceSettings@@QAE@XZ 10079010 f i atlsd:AtlTraceModuleManager.obj
 0002:00050060       ?AtlA2WHelper@@YGPA_WPA_WPBDHI@Z 10079060 f i atlsd:AtlTraceModuleManager.obj
 0002:0005014e       ??1_Lockit@std@@QAE@XZ     1007914e f   msvcprtd:MSVCP80D.dll
 0002:00050154       ??0_Lockit@std@@QAE@H@Z    10079154 f   msvcprtd:MSVCP80D.dll
 0002:0005015a       ?_Debug_message@std@@YAXPB_W0I@Z 1007915a f   msvcprtd:MSVCP80D.dll
 0002:00050160       ??1_Container_base@std@@QAE@XZ 10079160 f   msvcprtd:MSVCP80D.dll
 0002:00050166       ?_Orphan_all@_Container_base@std@@QBEXXZ 10079166 f   msvcprtd:MSVCP80D.dll
 0002:0005016c       ??0_Container_base@std@@QAE@XZ 1007916c f   msvcprtd:MSVCP80D.dll
 0002:00050172       ??1?$basic_string@DU?$char_traits@D@std@@V?$allocator@D@2@@std@@QAE@XZ 10079172 f   msvcprtd:MSVCP80D.dll
 0002:00050178       ??0?$basic_string@DU?$char_traits@D@std@@V?$allocator@D@2@@std@@QAE@PBD@Z 10079178 f   msvcprtd:MSVCP80D.dll
 0002:0005017e       ??0?$basic_string@DU?$char_traits@D@std@@V?$allocator@D@2@@std@@QAE@ABV01@@Z 1007917e f   msvcprtd:MSVCP80D.dll
 0002:00050184       ?c_str@?$basic_string@DU?$char_traits@D@std@@V?$allocator@D@2@@std@@QBEPBDXZ 10079184 f   msvcprtd:MSVCP80D.dll
 0002:0005018a       _DirectDrawCreate@12       1007918a f   ddraw:DDRAW.dll
 0002:00050190       _ReleaseMutex@4            10079190 f   kernel32:KERNEL32.dll
 0002:00050196       _CreateMutexA@12           10079196 f   kernel32:KERNEL32.dll
 0002:0005019c       _RaiseException@16         1007919c f   kernel32:KERNEL32.dll
 0002:000501a2       _IsDebuggerPresent@0       100791a2 f   kernel32:KERNEL32.dll
 0002:000501a8       _InterlockedCompareExchange@12 100791a8 f   kernel32:KERNEL32.dll
 0002:000501ae       _TerminateProcess@8        100791ae f   kernel32:KERNEL32.dll
 0002:000501b4       _UnhandledExceptionFilter@4 100791b4 f   kernel32:KERNEL32.dll
 0002:000501ba       _SetUnhandledExceptionFilter@4 100791ba f   kernel32:KERNEL32.dll
 0002:000501c0       _HeapFree@12               100791c0 f   kernel32:KERNEL32.dll
 0002:000501c6       _HeapAlloc@12              100791c6 f   kernel32:KERNEL32.dll
 0002:000501cc       _GetProcessHeap@0          100791cc f   kernel32:KERNEL32.dll
 0002:000501d2       _GetModuleFileNameW@12     100791d2 f   kernel32:KERNEL32.dll
 0002:000501d8       _VirtualQuery@12           100791d8 f   kernel32:KERNEL32.dll
 0002:000501de       _QueryPerformanceCounter@4 100791de f   kernel32:KERNEL32.dll
 0002:000501e4       _GetSystemTimeAsFileTime@4 100791e4 f   kernel32:KERNEL32.dll
 0002:000501ea       _GetLocaleInfoA@16         100791ea f   kernel32:KERNEL32.dll
 0002:000501f0       _GetThreadLocale@0         100791f0 f   kernel32:KERNEL32.dll
 0002:000501f6       _OpenEventA@12             100791f6 f   kernel32:KERNEL32.dll
 0002:000501fc       _OutputDebugStringW@4      100791fc f   kernel32:KERNEL32.dll
 0002:00050202       _UnmapViewOfFile@4         10079202 f   kernel32:KERNEL32.dll
 0002:00050208       _MapViewOfFile@20          10079208 f   kernel32:KERNEL32.dll
 0002:0005020e       _CreateFileMappingA@24     1007920e f   kernel32:KERNEL32.dll
 0002:00050214       _GetVersion@0              10079214 f   kernel32:KERNEL32.dll
 0002:0005021a       _OpenFileMappingA@12       1007921a f   kernel32:KERNEL32.dll
 0002:00050220       _GetSystemMetrics@4        10079220 f   user32:USER32.dll
 0002:00050226       _GetWindowRect@8           10079226 f   user32:USER32.dll
 0002:0005022c       _GetWindowPlacement@8      1007922c f   user32:USER32.dll
 0002:00050232       _IsIconic@4                10079232 f   user32:USER32.dll
 0002:00050238       _SystemParametersInfoA@16  10079238 f   user32:USER32.dll
 0002:0005023e       _IntersectRect@12          1007923e f   user32:USER32.dll
 0002:00050244       _OffsetRect@12             10079244 f   user32:USER32.dll
 0002:0005024a       _GetDCOrgEx@8              1007924a f   gdi32:GDI32.dll
 0002:00050250       _GetClipBox@8              10079250 f   gdi32:GDI32.dll
 0002:00050256       _SetThreadToken@8          10079256 f   advapi32:ADVAPI32.dll
 0002:0005025c       _RevertToSelf@0            1007925c f   advapi32:ADVAPI32.dll
 0002:00050262       _OpenThreadToken@16        10079262 f   advapi32:ADVAPI32.dll
 0002:00050268       __snprintf_s               10079268 f   MSVCRTD:MSVCR80D.dll
 0002:0005026e       __errno                    1007926e f   MSVCRTD:MSVCR80D.dll
 0002:00050274       __CrtDbgReport             10079274 f   MSVCRTD:MSVCR80D.dll
 0002:0005027a       _strcpy                    1007927a f   MSVCRTD:MSVCR80D.dll
 0002:00050280       _wcscpy                    10079280 f   MSVCRTD:MSVCR80D.dll
 0002:00050286       __vsnprintf_s              10079286 f   MSVCRTD:MSVCR80D.dll
 0002:0005028c       __vsnwprintf_s             1007928c f   MSVCRTD:MSVCR80D.dll
 0002:00050292       __snwprintf_s              10079292 f   MSVCRTD:MSVCR80D.dll
 0002:00050298       _wcsncpy_s                 10079298 f   MSVCRTD:MSVCR80D.dll
 0002:0005029e       _calloc                    1007929e f   MSVCRTD:MSVCR80D.dll
 0002:000502a4       __recalloc                 100792a4 f   MSVCRTD:MSVCR80D.dll
 0002:000502b0       __alloca_probe_16          100792b0 f   MSVCRTD:alloca16.obj
 0002:000502c6       __alloca_probe_8           100792c6     MSVCRTD:alloca16.obj
 0003:00000000       ___xc_a                    10080000     MSVCRTD:cinitexe.obj
 0003:000004d8       ___xc_z                    100804d8     MSVCRTD:cinitexe.obj
 0003:000005dc       ___xi_a                    100805dc     MSVCRTD:cinitexe.obj
 0003:000008e8       ___xi_z                    100808e8     MSVCRTD:cinitexe.obj
 0003:00000a0c       _IID_IDirect3D9            10080a0c     FastCompositingDevice.obj
 0003:00000a20       _IID_IDirect3D9Ex          10080a20     FastCompositingDevice.obj
 0003:00000a34       _IID_IDirect3DDevice9      10080a34     FastCompositingDevice.obj
 0003:00000a48       _IID_IDirect3DDevice9Ex    10080a48     FastCompositingDevice.obj
 0003:00000a5c       _IID_IDirect3DResource9    10080a5c     FastCompositingDevice.obj
 0003:00000a70       _IID_IDirect3DBaseTexture9 10080a70     FastCompositingDevice.obj
 0003:00000a84       _IID_IDirect3DTexture9     10080a84     FastCompositingDevice.obj
 0003:00000a98       _IID_IDirect3DCubeTexture9 10080a98     FastCompositingDevice.obj
 0003:00000aac       _IID_IDirect3DVolumeTexture9 10080aac     FastCompositingDevice.obj
 0003:00000ac0       _IID_IDirect3DVertexBuffer9 10080ac0     FastCompositingDevice.obj
 0003:00000ad4       _IID_IDirect3DIndexBuffer9 10080ad4     FastCompositingDevice.obj
 0003:00000ae8       _IID_IDirect3DSurface9     10080ae8     FastCompositingDevice.obj
 0003:00000afc       _IID_IDirect3DVolume9      10080afc     FastCompositingDevice.obj
 0003:00000b10       _IID_IDirect3DSwapChain9   10080b10     FastCompositingDevice.obj
 0003:00000b24       _IID_IDirect3DSwapChain9Ex 10080b24     FastCompositingDevice.obj
 0003:00000b38       _IID_IDirect3DVertexDeclaration9 10080b38     FastCompositingDevice.obj
 0003:00000b4c       _IID_IDirect3DVertexShader9 10080b4c     FastCompositingDevice.obj
 0003:00000b60       _IID_IDirect3DPixelShader9 10080b60     FastCompositingDevice.obj
 0003:00000b74       _IID_IDirect3DStateBlock9  10080b74     FastCompositingDevice.obj
 0003:00000b88       _IID_IDirect3DQuery9       10080b88     FastCompositingDevice.obj
 0003:00000b9c       _IID_HelperName            10080b9c     FastCompositingDevice.obj
 0003:00000bb0       _DXVA2_ModeMPEG2_MoComp    10080bb0     FastCompositingDevice.obj
 0003:00000bc4       _DXVA2_ModeMPEG2_IDCT      10080bc4     FastCompositingDevice.obj
 0003:00000bd8       _DXVA2_ModeMPEG2_VLD       10080bd8     FastCompositingDevice.obj
 0003:00000bec       _DXVA2_ModeH264_A          10080bec     FastCompositingDevice.obj
 0003:00000c00       _DXVA2_ModeH264_B          10080c00     FastCompositingDevice.obj
 0003:00000c14       _DXVA2_ModeH264_C          10080c14     FastCompositingDevice.obj
 0003:00000c28       _DXVA2_ModeH264_D          10080c28     FastCompositingDevice.obj
 0003:00000c3c       _DXVA2_ModeH264_E          10080c3c     FastCompositingDevice.obj
 0003:00000c50       _DXVA2_ModeH264_F          10080c50     FastCompositingDevice.obj
 0003:00000c64       _DXVA2_ModeWMV8_A          10080c64     FastCompositingDevice.obj
 0003:00000c78       _DXVA2_ModeWMV8_B          10080c78     FastCompositingDevice.obj
 0003:00000c8c       _DXVA2_ModeWMV9_A          10080c8c     FastCompositingDevice.obj
 0003:00000ca0       _DXVA2_ModeWMV9_B          10080ca0     FastCompositingDevice.obj
 0003:00000cb4       _DXVA2_ModeWMV9_C          10080cb4     FastCompositingDevice.obj
 0003:00000cc8       _DXVA2_ModeVC1_A           10080cc8     FastCompositingDevice.obj
 0003:00000cdc       _DXVA2_ModeVC1_B           10080cdc     FastCompositingDevice.obj
 0003:00000cf0       _DXVA2_ModeVC1_C           10080cf0     FastCompositingDevice.obj
 0003:00000d04       _DXVA2_ModeVC1_D           10080d04     FastCompositingDevice.obj
 0003:00000d18       _DXVA2_NoEncrypt           10080d18     FastCompositingDevice.obj
 0003:00000d2c       _DXVA2_VideoProcProgressiveDevice 10080d2c     FastCompositingDevice.obj
 0003:00000d40       _DXVA2_VideoProcBobDevice  10080d40     FastCompositingDevice.obj
 0003:00000d54       _DXVA2_VideoProcSoftwareDevice 10080d54     FastCompositingDevice.obj
 0003:00000d68       _IID_IDirect3DDeviceManager9 10080d68     FastCompositingDevice.obj
 0003:00000d7c       _IID_IDirectXVideoAccelerationService 10080d7c     FastCompositingDevice.obj
 0003:00000d90       _IID_IDirectXVideoDecoderService 10080d90     FastCompositingDevice.obj
 0003:00000da4       _IID_IDirectXVideoProcessorService 10080da4     FastCompositingDevice.obj
 0003:00000db8       _IID_IDirectXVideoDecoder  10080db8     FastCompositingDevice.obj
 0003:00000dcc       _IID_IDirectXVideoProcessor 10080dcc     FastCompositingDevice.obj
 0003:00000de0       _IID_IDirectXVideoMemoryConfiguration 10080de0     FastCompositingDevice.obj
 0003:00000df4       _DXVA_ModeNone             10080df4     FastCompositingDevice.obj
 0003:00000e08       _DXVA_ModeH261_A           10080e08     FastCompositingDevice.obj
 0003:00000e1c       _DXVA_ModeH261_B           10080e1c     FastCompositingDevice.obj
 0003:00000e30       _DXVA_ModeH263_A           10080e30     FastCompositingDevice.obj
 0003:00000e44       _DXVA_ModeH263_B           10080e44     FastCompositingDevice.obj
 0003:00000e58       _DXVA_ModeH263_C           10080e58     FastCompositingDevice.obj
 0003:00000e6c       _DXVA_ModeH263_D           10080e6c     FastCompositingDevice.obj
 0003:00000e80       _DXVA_ModeH263_E           10080e80     FastCompositingDevice.obj
 0003:00000e94       _DXVA_ModeH263_F           10080e94     FastCompositingDevice.obj
 0003:00000ea8       _DXVA_ModeMPEG1_A          10080ea8     FastCompositingDevice.obj
 0003:00000ebc       _DXVA_ModeMPEG2_A          10080ebc     FastCompositingDevice.obj
 0003:00000ed0       _DXVA_ModeMPEG2_B          10080ed0     FastCompositingDevice.obj
 0003:00000ee4       _DXVA_ModeMPEG2_C          10080ee4     FastCompositingDevice.obj
 0003:00000ef8       _DXVA_ModeMPEG2_D          10080ef8     FastCompositingDevice.obj
 0003:00000f0c       _DXVA_ModeH264_A           10080f0c     FastCompositingDevice.obj
 0003:00000f20       _DXVA_ModeH264_B           10080f20     FastCompositingDevice.obj
 0003:00000f34       _DXVA_ModeH264_C           10080f34     FastCompositingDevice.obj
 0003:00000f48       _DXVA_ModeH264_D           10080f48     FastCompositingDevice.obj
 0003:00000f5c       _DXVA_ModeH264_E           10080f5c     FastCompositingDevice.obj
 0003:00000f70       _DXVA_ModeH264_F           10080f70     FastCompositingDevice.obj
 0003:00000f84       _DXVA_ModeWMV8_A           10080f84     FastCompositingDevice.obj
 0003:00000f98       _DXVA_ModeWMV8_B           10080f98     FastCompositingDevice.obj
 0003:00000fac       _DXVA_ModeWMV9_A           10080fac     FastCompositingDevice.obj
 0003:00000fc0       _DXVA_ModeWMV9_B           10080fc0     FastCompositingDevice.obj
 0003:00000fd4       _DXVA_ModeWMV9_C           10080fd4     FastCompositingDevice.obj
 0003:00000fe8       _DXVA_ModeVC1_A            10080fe8     FastCompositingDevice.obj
 0003:00000ffc       _DXVA_ModeVC1_B            10080ffc     FastCompositingDevice.obj
 0003:00001010       _DXVA_ModeVC1_C            10081010     FastCompositingDevice.obj
 0003:00001024       _DXVA_ModeVC1_D            10081024     FastCompositingDevice.obj
 0003:00001038       _DXVA_NoEncrypt            10081038     FastCompositingDevice.obj
 0003:0000104c       _DXVA_DeinterlaceBobDevice 1008104c     FastCompositingDevice.obj
 0003:00001060       _DXVA_DeinterlaceContainerDevice 10081060     FastCompositingDevice.obj
 0003:00001074       _DXVA_ProcAmpControlDevice 10081074     FastCompositingDevice.obj
 0003:00001088       _DXVA_COPPDevice           10081088     FastCompositingDevice.obj
 0003:0000109c       _DXVA_COPPSetProtectionLevel 1008109c     FastCompositingDevice.obj
 0003:000010b0       _DXVA_COPPSetSignaling     100810b0     FastCompositingDevice.obj
 0003:000010c4       _DXVA_COPPQueryConnectorType 100810c4     FastCompositingDevice.obj
 0003:000010d8       _DXVA_COPPQueryProtectionType 100810d8     FastCompositingDevice.obj
 0003:000010ec       _DXVA_COPPQueryLocalProtectionLevel 100810ec     FastCompositingDevice.obj
 0003:00001100       _DXVA_COPPQueryGlobalProtectionLevel 10081100     FastCompositingDevice.obj
 0003:00001114       _DXVA_COPPQueryDisplayData 10081114     FastCompositingDevice.obj
 0003:00001128       _DXVA_COPPQueryHDCPKeyData 10081128     FastCompositingDevice.obj
 0003:0000113c       _DXVA_COPPQueryBusData     1008113c     FastCompositingDevice.obj
 0003:00001150       _DXVA_COPPQuerySignaling   10081150     FastCompositingDevice.obj
 0003:000011b8       ??_C@_0BI@IFFLDHOP@DXVA2CreateVideoService?$AA@ 100811b8     FastCompositingDevice.obj
 0003:000011d4       _IID_IAMFilterGraphCallback 100811d4     HVDDSAMVANotify.obj
 0003:000011e8       _IID_IiviVideoAcceleratorNotify 100811e8     HVDDSAMVANotify.obj
 0003:000011fc       _IID_IiviVideoAcceleratorNotify2 100811fc     HVDDSAMVANotify.obj
 0003:00001210       _IID_IHVDDXVA1AMVANofityConfig 10081210     HVDDSAMVANotify.obj
 0003:00001228       ??_7CHVDDSAMVANotify@HVDService@@6BCUnknown@@@ 10081228     HVDDSAMVANotify.obj
 0003:00001240       ??_7CHVDDSAMVANotify@HVDService@@6BIHVDDXVA1AMVANofityConfig@@@ 10081240     HVDDSAMVANotify.obj
 0003:0000126c       ??_C@_0BB@CKLGOKNM@CHVDDSAMVANotify?$AA@ 1008126c     HVDDSAMVANotify.obj
 0003:00001280       ??_C@_00CNPNBAHC@?$AA@     10081280     HVDDSAMVANotify.obj
 0003:00001284       ??_C@_13MGDFOILI@?$AA?$CB?$AA?$AA@ 10081284     HVDDSHelper.obj
 0003:00001288       ??_C@_1DE@DPNEFHGA@?$AAF?$AAi?$AAl?$AAt?$AAe?$AAr?$AAG?$AAr?$AAa?$AAp?$AAh?$AA?5?$AA?$CF?$AA0?$AA8?$AAx?$AA?5?$AAp?$AAi?$AAd?$AA?5?$AA?$CF?$AA0?$AA8?$AAx?$AA?$AA@ 10081288     HVDDSHelper.obj
 0003:000012c8       ??_C@_0CH@PMMCHCBG@?$DO?$DO?$DO?$DO?$DO?5?$FLRELEASE?$FN?5piEnumPins?3?5coun@ 100812c8     HVDDSHelper.obj
 0003:000012f8       ??_C@_0CE@FBFCBALM@?$DO?$DO?$DO?$DO?$DO?5?$FLRELEASE?$FN?5?$CKppiPin?3?5count?5?$DN@ 100812f8     HVDDSHelper.obj
 0003:00001324       ??_C@_0CK@CJEKLJIP@?$DO?$DO?$DO?$DO?$DO?5?$FLRELEASE?$FN?5piPropertySet?3?5c@ 10081324     HVDDSHelper.obj
 0003:00001358       __GUID_31efac30_515c_11d0_a9aa_00aa0061be93 10081358     HVDDSHelper.obj
 0003:0000136c       ??_C@_0CL@IINOJDLH@?$DO?$DO?$DO?$DO?$DO?5?$FLRELEASE?$FN?5piConnectedPin?3?5@ 1008136c     HVDDSHelper.obj
 0003:000013a0       ??_C@_0DL@CDELKBNC@?$FLFindPin?$FN?5Unable?5to?5enumerate?5th@ 100813a0     HVDDSHelper.obj
 0003:000013e8       ??_C@_0BN@BNACFHDI@?$FLFindPin?$FN?5Invalid?5arguments?4?$AA@ 100813e8     HVDDSHelper.obj
 0003:0000140c       ??_C@_0CM@CPINNEA@?$DO?$DO?$DO?$DO?$DO?5?$FLRELEASE?$FN?5pinInfo?4pFilter?3@ 1008140c     HVDDSHelper.obj
 0003:00001440       ??_C@_0DG@OKIDLACE@?$FLFindPin?5?$CIAK?$CJ?$FN?5Unsuccessful?5in?5g@ 10081440     HVDDSHelper.obj
 0003:00001480       ??_C@_0CN@OJJMGHJA@?$DO?$DO?$DO?$DO?$DO?5?$FLRELEASE?$FN?5piEnumMediaTypes@ 10081480     HVDDSHelper.obj
 0003:000014b8       ??_C@_0DP@BLIAFCD@?$FLFindPin?5?$CIAK?$CJ?$FN?5Unable?5to?5enumera@ 100814b8     HVDDSHelper.obj
 0003:00001504       ??_C@_0CI@MAFGIGGH@?$DO?$DO?$DO?$DO?$DO?5?$FLRELEASE?$FN?5piOutputPin?3?5cou@ 10081504     HVDDSHelper.obj
 0003:00001534       ??_C@_0CH@PHDABNFA@?$DO?$DO?$DO?$DO?$DO?5?$FLRELEASE?$FN?5piInputPin?3?5coun@ 10081534     HVDDSHelper.obj
 0003:00001564       ??_C@_0CJ@LLBHKNPB@?$DO?$DO?$DO?$DO?$DO?5?$FLRELEASE?$FN?5piNextFilter?3?5co@ 10081564     HVDDSHelper.obj
 0003:00001598       ??_C@_0CK@FNMPJKDO@?$DO?$DO?$DO?$DO?$DO?5?$FLRELEASE?$FN?5piEnumFilters?3?5c@ 10081598     HVDDSHelper.obj
 0003:000015cc       ??_C@_0CG@EMMLAGID@?$DO?$DO?$DO?$DO?$DO?5?$FLRELEASE?$FN?5piPersist?3?5count@ 100815cc     HVDDSHelper.obj
 0003:000015fc       __GUID_0000010c_0000_0000_c000_000000000046 100815fc     HVDDSHelper.obj
 0003:00001610       __GUID_56a86895_0ad4_11ce_b03a_0020af0ba770 10081610     HVDDSHelper.obj
 0003:00001624       ??_C@_0CM@HDPFBEJI@?$FLAddProxyServiceByIndex?$FN?5Invalid@ 10081624     HVDDSHelper.obj
 0003:00001658       ??_C@_0CF@BGPPGCGN@?$FLAddProxyService?$FN?5Invalid?5argume@ 10081658     HVDDSHelper.obj
 0003:00001684       ??_C@_0CK@JALENMDB@?$DO?$DO?$DO?$DO?$DO?5?$FLRELEASE?$FN?5piEnumMoniker?3?5c@ 10081684     HVDDSHelper.obj
 0003:000016b8       ??_C@_0BA@KHFLLEHJ@?$CBbOnceRestarted?$AA@ 100816b8     HVDDSHelper.obj
 0003:000016d0       ??_C@_0EA@BJDBGBMI@d?3?2p2?2components?2video?2dec?2core?2@ 100816d0     HVDDSHelper.obj
 0003:0000171c       ??_C@_0DJ@HHDBEKAL@?$FLWdmProxyService?$FN?5Creating?5insta@ 1008171c     HVDDSHelper.obj
 0003:00001760       ??_C@_0CG@GJJEPGCB@?$DO?$DO?$DO?$DO?$DO?5?$FLRELEASE?$FN?5piMoniker?3?5count@ 10081760     HVDDSHelper.obj
 0003:00001790       ??_C@_0CL@LOFGFMBD@?$FLWdmProxyService?$FN?5Device?5?$CD?$CFd?5is?5@ 10081790     HVDDSHelper.obj
 0003:000017c4       ??_C@_0CB@MAPEJBKH@?$FLWdmProxyService?$FN?5Device?5?$CD?$CFd?3?5?$CFs@ 100817c4     HVDDSHelper.obj
 0003:000017ec       ??_C@_0CC@FNFODJLI@?$DO?$DO?$DO?$DO?$DO?5?$FLRELEASE?$FN?5piBag?3?5count?5?$DN?5?$CF@ 100817ec     HVDDSHelper.obj
 0003:00001814       ??_C@_1BK@BFIEKNFP@?$AAF?$AAr?$AAi?$AAe?$AAn?$AAd?$AAl?$AAy?$AAN?$AAa?$AAm?$AAe?$AA?$AA@ 10081814     HVDDSHelper.obj
 0003:00001834       __GUID_55272a00_42cb_11ce_8135_00aa004bb851 10081834     HVDDSHelper.obj
 0003:00001848       ??_C@_0CK@CFBHGHHB@?$FLWdmProxyService?$FN?5Enumerating?5WD@ 10081848     HVDDSHelper.obj
 0003:0000187c       ??_C@_0CM@FLCFALPF@?$DO?$DO?$DO?$DO?$DO?5?$FLRELEASE?$FN?5piCreateDevEnum?3@ 1008187c     HVDDSHelper.obj
 0003:000018b0       ??_C@_0DG@DNCLNGHM@?$FLWdmProxyService?$FN?5Unable?5to?5enum@ 100818b0     HVDDSHelper.obj
 0003:000018f0       __GUID_29840822_5b84_11d0_bd3b_00a0c911ce86 100818f0     HVDDSHelper.obj
 0003:00001904       ??_C@_0DC@BEOONLGD@?$FLDisconnectPin?$FN?5Unable?5to?5diconn@ 10081904     HVDDSHelper.obj
 0003:00001940       ??_C@_0CG@LNKENPFM@?$DO?$DO?$DO?$DO?$DO?5?$FLRELEASE?$FN?5pOtherPin?3?5count@ 10081940     HVDDSHelper.obj
 0003:00001970       ??_C@_0CN@EJAHOIOI@?$FLDisconnectPin?$FN?5Unable?5to?5discon@ 10081970     HVDDSHelper.obj
 0003:000019a8       ??_C@_0CC@FNAGBBIC@?$DO?$DO?$DO?$DO?$DO?5?$FLRELEASE?$FN?5piPin?3?5count?5?$DN?5?$CF@ 100819a8     HVDDSHelper.obj
 0003:000019d0       ??_C@_0CN@NPGFLEJA@?$FLDisconnectAllPins?$FN?5Unable?5to?5di@ 100819d0     HVDDSHelper.obj
 0003:00001a08       ??_C@_0DB@IIPBMLAF@?$FLDisconnectAllPins?$FN?5Unable?5to?5en@ 10081a08     HVDDSHelper.obj
 0003:00001a44       ??_C@_0CN@BHAPICBK@?$FLConnectFilters?$FN?5Unable?5to?5conne@ 10081a44     HVDDSHelper.obj
 0003:00001a7c       ??_C@_0DN@POEOMFLK@?$FLConnectFilters?$FN?5Unable?5to?5find?5@ 10081a7c     HVDDSHelper.obj
 0003:00001ac8       ??_C@_0DO@DOKLOLMM@?$FLConnectFilters?$FN?5Unable?5to?5find?5@ 10081ac8     HVDDSHelper.obj
 0003:00001b14       ??_C@_0CE@PNMBGGNO@?$FLConnectFilters?$FN?5Invalid?5paramet@ 10081b14     HVDDSHelper.obj
 0003:00001b40       ??_C@_0EM@FICEKCPB@?$FLCountSystemDevices?$FN?5Unable?5to?5c@ 10081b40     HVDDSHelper.obj
 0003:00001b9c       ??_C@_0DJ@OJMGCPAB@?$FLCountSystemDevices?$FN?5Unable?5to?5e@ 10081b9c     HVDDSHelper.obj
 0003:00001be0       ??_C@_0BO@IDJPLJCB@List?5of?5filters?5to?5be?5removed?$AA@ 10081be0     HVDDSHelper.obj
 0003:00001c04       ??_C@_0CG@MOACMKII@?$FLRemoveAllFilters?$FN?5Invalid?5param@ 10081c04     HVDDSHelper.obj
 0003:00001c34       ??_C@_0CH@DPMGIHIO@?$DO?$DO?$DO?$DO?$DO?5?$FLRELEASE?$FN?5?$CKppiFilter?3?5coun@ 10081c34     HVDDSHelper.obj
 0003:00001c64       ??_C@_0BE@FBDAKMLJ@?$FLRemoveFilter?$FN?5?$CFls?4?$AA@ 10081c64     HVDDSHelper.obj
 0003:00001c7c       ??_C@_0CO@BJBELKJK@?$DO?$DO?$DO?$DO?$DO?5?$FLRELEASE?$FN?5filterInfo?4pGrap@ 10081c7c     HVDDSHelper.obj
 0003:00001cb4       ??_C@_0CC@BJDHCBOP@?$FLRemoveFilter?$FN?5Invalid?5arguments@ 10081cb4     HVDDSHelper.obj
 0003:00001cdc       ??_C@_0DE@LFMGJFIH@?$FLFindEnumeratedDevice?$FN?5Unable?5to@ 10081cdc     HVDDSHelper.obj
 0003:00001d1c       ??_C@_0CO@KIKOPPKO@?$FLFindEnumeratedDevice?$FN?5Initializ@ 10081d1c     HVDDSHelper.obj
 0003:00001d54       ??_C@_0CK@PBKKGKFE@?$DO?$DO?$DO?$DO?$DO?5?$FLRELEASE?$FN?5piPropertyBag?3?5c@ 10081d54     HVDDSHelper.obj
 0003:00001d88       ??_C@_0EO@GJEPDOA@?$FLFindEnumeratedDevice?$FN?5Unable?5to@ 10081d88     HVDDSHelper.obj
 0003:00001de8       ??_C@_0DL@NHIBOIEG@?$FLFindEnumeratedDevice?$FN?5Unable?5to@ 10081de8     HVDDSHelper.obj
 0003:00001e30       ??_C@_0CK@FNKPGLKK@?$FLFindEnumeratedDevice?$FN?5Invalid?5a@ 10081e30     HVDDSHelper.obj
 0003:00001e64       ??_C@_0CO@NGAFDOMB@?$DO?$DO?$DO?$DO?$DO?5?$FLRELEASE?$FN?5?$CKppiKsPropertySe@ 10081e64     HVDDSHelper.obj
 0003:00001ea0       ??_C@_0FC@MPCKDHE@?$FLGetIKsPropertySetSupport?$FN?5Found@ 10081ea0     HVDDSHelper.obj
 0003:00001f04       ??_C@_0CO@ICBMIMOO@?$FLGetIKsPropertySetSupport?$FN?5Inval@ 10081f04     HVDDSHelper.obj
 0003:00001f3c       ??_C@_0DA@PCCIGLCM@?$FLAddFilterInRegistry?$FN?5Unable?5to?5@ 10081f3c     HVDDSHelper.obj
 0003:00001f78       ??_C@_0EN@NEKOBCHB@?$FLAddFilterInRegistry?$FN?5Unable?5to?5@ 10081f78     HVDDSHelper.obj
 0003:00001fd4       ??_C@_0DK@CKGBIOPH@?$FLAddFilterInRegistry?$FN?5Unable?5to?5@ 10081fd4     HVDDSHelper.obj
 0003:0000201c       ??_C@_0CJ@BADGMJOC@?$FLAddFilterInRegistry?$FN?5Invalid?5ar@ 1008201c     HVDDSHelper.obj
 0003:00002050       ??_C@_0CF@KMMONNDP@?$FLCountFilterPins?$FN?5Invalid?5argume@ 10082050     HVDDSHelper.obj
 0003:0000207c       ??_C@_0CE@DPACCELF@?$DO?$DO?$DO?$DO?$DO?5?$FLRELEASE?$FN?5piPinTo?3?5count?5?$DN@ 1008207c     HVDDSHelper.obj
 0003:000020a8       ??_C@_0BL@LLEEELKD@?$FLRemoveDownStream?$FN?5of?5?$CFls?4?$AA@ 100820a8     HVDDSHelper.obj
 0003:000020c8       ??_C@_0CG@EMHKNFL@?$FLRemoveDownStream?$FN?5Invalid?5argum@ 100820c8     HVDDSHelper.obj
 0003:000020f8       ??_C@_0CK@NAGBBHL@?$DO?$DO?$DO?$DO?$DO?5?$FLRELEASE?$FN?5piConnectedTo?3?5c@ 100820f8     HVDDSHelper.obj
 0003:0000212c       ??_C@_0CL@MMNLCJHJ@?$FLFindConnectedToFilter?$FN?5Invalid?5@ 1008212c     HVDDSHelper.obj
 0003:00002160       ??_C@_0CL@PFIDNCGG@CHVDDSOutPin?3?3m_NonDelegatingInt@ 10082160     HVDDSOutPin.obj
 0003:00002194       ??_C@_0BO@DOILLFEP@CHVDDSOutPin?3?3m_MediaTypeList?$AA@ 10082194     HVDDSOutPin.obj
 0003:000021bc       ??_7CHVDDSOutPin@HVDService@@6BIQualityControl@@@ 100821bc     HVDDSOutPin.obj
 0003:000021dc       ??_7CHVDDSOutPin@HVDService@@6BIPin@@@ 100821dc     HVDDSOutPin.obj
 0003:0000223c       ??_7CHVDDSOutPin@HVDService@@6BCUnknown@@@ 1008223c     HVDDSOutPin.obj
 0003:000022b0       ??_7CHVDDSVPConfig@HVDService@@6BCUnknown@@@ 100822b0     HVDDSVPConfig.obj
 0003:000022cc       ??_7CHVDDSVPConfig@HVDService@@6BIVPConfig@@@ 100822cc     HVDDSVPConfig.obj
 0003:00002324       ??_C@_0P@KCCIECLD@CHVDDSVPConfig?$AA@ 10082324     HVDDSVPConfig.obj
 0003:00002338       ??_C@_1CI@OCFOGJEC@?$AAC?$AAo?$AAr?$AAe?$AAl?$AA?5?$AAV?$AAi?$AAd?$AAe?$AAo?$AA?5?$AAD?$AAe?$AAc?$AAo?$AAd?$AAe?$AAr?$AA?$AA@ 10082338     HVDDxva1Binder.obj
 0003:00002368       ??_C@_1CG@CFKNCBGP@?$AA?$HO?$AAS?$AAu?$AAb?$AAp?$AAi?$AAc?$AAt?$AAu?$AAr?$AAe?$AA?5?$AAO?$AAu?$AAt?$AAp?$AAu?$AAt?$AA?$AA@ 10082368     HVDDxva1Binder.obj
 0003:00002398       ??_C@_1BK@NBJGECBK@?$AAV?$AAi?$AAd?$AAe?$AAo?$AA?5?$AAO?$AAu?$AAt?$AAp?$AAu?$AAt?$AA?$AA@ 10082398     HVDDxva1Binder.obj
 0003:000023b8       ??_C@_07KJLOKDKB@TypeLib?$AA@ 100823b8     HVDDxva1Binder.obj
 0003:000023c4       ??_C@_08KEKAJNJI@Software?$AA@ 100823c4     HVDDxva1Binder.obj
 0003:000023d0       ??_C@_06FDHFNJBJ@SYSTEM?$AA@ 100823d0     HVDDxva1Binder.obj
 0003:000023d8       ??_C@_08LOPHEHKG@SECURITY?$AA@ 100823d8     HVDDxva1Binder.obj
 0003:000023e4       ??_C@_03DDIMFGBA@SAM?$AA@  100823e4     HVDDxva1Binder.obj
 0003:000023e8       ??_C@_04IHBFOLAC@Mime?$AA@ 100823e8     HVDDxva1Binder.obj
 0003:000023f0       ??_C@_08PPIOJEA@Hardware?$AA@ 100823f0     HVDDxva1Binder.obj
 0003:000023fc       ??_C@_09JKPGEJCH@Interface?$AA@ 100823fc     HVDDxva1Binder.obj
 0003:00002408       ??_C@_08PICKODJL@FileType?$AA@ 10082408     HVDDxva1Binder.obj
 0003:00002414       ??_C@_0BF@HDDNNDFH@Component?5Categories?$AA@ 10082414     HVDDxva1Binder.obj
 0003:00002430       ??_C@_05GIBEAPNE@CLSID?$AA@ 10082430     HVDDxva1Binder.obj
 0003:00002438       ??_C@_05PDIKPLII@AppID?$AA@ 10082438     HVDDxva1Binder.obj
 0003:00002440       ??_C@_06JBKGCNBB@Delete?$AA@ 10082440     HVDDxva1Binder.obj
 0003:00002448       ??_C@_08KAAPDIAN@NoRemove?$AA@ 10082448     HVDDxva1Binder.obj
 0003:00002454       ??_C@_0M@DBGDLGLL@ForceRemove?$AA@ 10082454     HVDDxva1Binder.obj
 0003:00002464       ??_C@_03LAIAPFCB@Val?$AA@  10082464     HVDDxva1Binder.obj
 0003:00002468       ??_C@_01HMGJMAIH@B?$AA@    10082468     HVDDxva1Binder.obj
 0003:0000246c       ??_C@_01CKDDGHAB@D?$AA@    1008246c     HVDDxva1Binder.obj
 0003:00002470       ??_C@_01PLPBNMEI@M?$AA@    10082470     HVDDxva1Binder.obj
 0003:00002474       ??_C@_01CPLAODJH@S?$AA@    10082474     HVDDxva1Binder.obj
 0003:00002478       ?_Min@?$AtlLimits@H@ATL@@2HB 10082478     HVDDxva1Binder.obj
 0003:0000247c       ?_Max@?$AtlLimits@H@ATL@@2HB 1008247c     HVDDxva1Binder.obj
 0003:00002480       ?_Min@?$AtlLimits@I@ATL@@2IB 10082480     HVDDxva1Binder.obj
 0003:00002484       ?_Max@?$AtlLimits@I@ATL@@2IB 10082484     HVDDxva1Binder.obj
 0003:00002488       ?_Min@?$AtlLimits@J@ATL@@2JB 10082488     HVDDxva1Binder.obj
 0003:0000248c       ?_Max@?$AtlLimits@J@ATL@@2JB 1008248c     HVDDxva1Binder.obj
 0003:00002490       ?_Min@?$AtlLimits@K@ATL@@2KB 10082490     HVDDxva1Binder.obj
 0003:00002494       ?_Max@?$AtlLimits@K@ATL@@2KB 10082494     HVDDxva1Binder.obj
 0003:00002498       ?_Min@?$AtlLimits@_J@ATL@@2_JB 10082498     HVDDxva1Binder.obj
 0003:000024a8       ?_Max@?$AtlLimits@_J@ATL@@2_JB 100824a8     HVDDxva1Binder.obj
 0003:000024b8       ?_Min@?$AtlLimits@_K@ATL@@2_KB 100824b8     HVDDxva1Binder.obj
 0003:000024c8       ?_Max@?$AtlLimits@_K@ATL@@2_KB 100824c8     HVDDxva1Binder.obj
 0003:000024d4       ?VT@?$CVarTypeInfo@D@ATL@@2GB 100824d4     HVDDxva1Binder.obj
 0003:000024d8       ?pmField@?$CVarTypeInfo@D@ATL@@2QQtagVARIANT@@DQ3@ 100824d8     HVDDxva1Binder.obj
 0003:000024dc       ?VT@?$CVarTypeInfo@E@ATL@@2GB 100824dc     HVDDxva1Binder.obj
 0003:000024e0       ?pmField@?$CVarTypeInfo@E@ATL@@2QQtagVARIANT@@EQ3@ 100824e0     HVDDxva1Binder.obj
 0003:000024e4       ?VT@?$CVarTypeInfo@PAD@ATL@@2GB 100824e4     HVDDxva1Binder.obj
 0003:000024e8       ?pmField@?$CVarTypeInfo@PAD@ATL@@2QQtagVARIANT@@PADQ3@ 100824e8     HVDDxva1Binder.obj
 0003:000024ec       ?VT@?$CVarTypeInfo@PAE@ATL@@2GB 100824ec     HVDDxva1Binder.obj
 0003:000024f0       ?pmField@?$CVarTypeInfo@PAE@ATL@@2QQtagVARIANT@@PAEQ3@ 100824f0     HVDDxva1Binder.obj
 0003:000024f4       ?VT@?$CVarTypeInfo@F@ATL@@2GB 100824f4     HVDDxva1Binder.obj
 0003:000024f8       ?pmField@?$CVarTypeInfo@F@ATL@@2QQtagVARIANT@@FQ3@ 100824f8     HVDDxva1Binder.obj
 0003:000024fc       ?VT@?$CVarTypeInfo@PAF@ATL@@2GB 100824fc     HVDDxva1Binder.obj
 0003:00002500       ?pmField@?$CVarTypeInfo@PAF@ATL@@2QQtagVARIANT@@PAFQ3@ 10082500     HVDDxva1Binder.obj
 0003:00002504       ?VT@?$CVarTypeInfo@G@ATL@@2GB 10082504     HVDDxva1Binder.obj
 0003:00002508       ?pmField@?$CVarTypeInfo@G@ATL@@2QQtagVARIANT@@GQ3@ 10082508     HVDDxva1Binder.obj
 0003:0000250c       ?VT@?$CVarTypeInfo@PAG@ATL@@2GB 1008250c     HVDDxva1Binder.obj
 0003:00002510       ?pmField@?$CVarTypeInfo@PAG@ATL@@2QQtagVARIANT@@PAGQ3@ 10082510     HVDDxva1Binder.obj
 0003:00002514       ?VT@?$CVarTypeInfo@H@ATL@@2GB 10082514     HVDDxva1Binder.obj
 0003:00002518       ?pmField@?$CVarTypeInfo@H@ATL@@2QQtagVARIANT@@HQ3@ 10082518     HVDDxva1Binder.obj
 0003:0000251c       ?VT@?$CVarTypeInfo@PAH@ATL@@2GB 1008251c     HVDDxva1Binder.obj
 0003:00002520       ?pmField@?$CVarTypeInfo@PAH@ATL@@2QQtagVARIANT@@PAHQ3@ 10082520     HVDDxva1Binder.obj
 0003:00002524       ?VT@?$CVarTypeInfo@I@ATL@@2GB 10082524     HVDDxva1Binder.obj
 0003:00002528       ?pmField@?$CVarTypeInfo@I@ATL@@2QQtagVARIANT@@IQ3@ 10082528     HVDDxva1Binder.obj
 0003:0000252c       ?VT@?$CVarTypeInfo@PAI@ATL@@2GB 1008252c     HVDDxva1Binder.obj
 0003:00002530       ?pmField@?$CVarTypeInfo@PAI@ATL@@2QQtagVARIANT@@PAIQ3@ 10082530     HVDDxva1Binder.obj
 0003:00002534       ?VT@?$CVarTypeInfo@J@ATL@@2GB 10082534     HVDDxva1Binder.obj
 0003:00002538       ?pmField@?$CVarTypeInfo@J@ATL@@2QQtagVARIANT@@JQ3@ 10082538     HVDDxva1Binder.obj
 0003:0000253c       ?VT@?$CVarTypeInfo@PAJ@ATL@@2GB 1008253c     HVDDxva1Binder.obj
 0003:00002540       ?pmField@?$CVarTypeInfo@PAJ@ATL@@2QQtagVARIANT@@PAJQ3@ 10082540     HVDDxva1Binder.obj
 0003:00002544       ?VT@?$CVarTypeInfo@K@ATL@@2GB 10082544     HVDDxva1Binder.obj
 0003:00002548       ?pmField@?$CVarTypeInfo@K@ATL@@2QQtagVARIANT@@KQ3@ 10082548     HVDDxva1Binder.obj
 0003:0000254c       ?VT@?$CVarTypeInfo@PAK@ATL@@2GB 1008254c     HVDDxva1Binder.obj
 0003:00002550       ?pmField@?$CVarTypeInfo@PAK@ATL@@2QQtagVARIANT@@PAKQ3@ 10082550     HVDDxva1Binder.obj
 0003:00002554       ?VT@?$CVarTypeInfo@_J@ATL@@2GB 10082554     HVDDxva1Binder.obj
 0003:00002558       ?pmField@?$CVarTypeInfo@_J@ATL@@2QQtagVARIANT@@_JQ3@ 10082558     HVDDxva1Binder.obj
 0003:0000255c       ?VT@?$CVarTypeInfo@PA_J@ATL@@2GB 1008255c     HVDDxva1Binder.obj
 0003:00002560       ?pmField@?$CVarTypeInfo@PA_J@ATL@@2QQtagVARIANT@@PA_JQ3@ 10082560     HVDDxva1Binder.obj
 0003:00002564       ?VT@?$CVarTypeInfo@_K@ATL@@2GB 10082564     HVDDxva1Binder.obj
 0003:00002568       ?pmField@?$CVarTypeInfo@_K@ATL@@2QQtagVARIANT@@_KQ3@ 10082568     HVDDxva1Binder.obj
 0003:0000256c       ?VT@?$CVarTypeInfo@PA_K@ATL@@2GB 1008256c     HVDDxva1Binder.obj
 0003:00002570       ?pmField@?$CVarTypeInfo@PA_K@ATL@@2QQtagVARIANT@@PA_KQ3@ 10082570     HVDDxva1Binder.obj
 0003:00002574       ?VT@?$CVarTypeInfo@M@ATL@@2GB 10082574     HVDDxva1Binder.obj
 0003:00002578       ?pmField@?$CVarTypeInfo@M@ATL@@2QQtagVARIANT@@MQ3@ 10082578     HVDDxva1Binder.obj
 0003:0000257c       ?VT@?$CVarTypeInfo@PAM@ATL@@2GB 1008257c     HVDDxva1Binder.obj
 0003:00002580       ?pmField@?$CVarTypeInfo@PAM@ATL@@2QQtagVARIANT@@PAMQ3@ 10082580     HVDDxva1Binder.obj
 0003:00002584       ?VT@?$CVarTypeInfo@N@ATL@@2GB 10082584     HVDDxva1Binder.obj
 0003:00002588       ?pmField@?$CVarTypeInfo@N@ATL@@2QQtagVARIANT@@NQ3@ 10082588     HVDDxva1Binder.obj
 0003:0000258c       ?VT@?$CVarTypeInfo@PAN@ATL@@2GB 1008258c     HVDDxva1Binder.obj
 0003:00002590       ?pmField@?$CVarTypeInfo@PAN@ATL@@2QQtagVARIANT@@PANQ3@ 10082590     HVDDxva1Binder.obj
 0003:00002594       ?VT@?$CVarTypeInfo@UtagVARIANT@@@ATL@@2GB 10082594     HVDDxva1Binder.obj
 0003:00002598       ?VT@?$CVarTypeInfo@PA_W@ATL@@2GB 10082598     HVDDxva1Binder.obj
 0003:0000259c       ?pmField@?$CVarTypeInfo@PA_W@ATL@@2QQtagVARIANT@@PA_WQ3@ 1008259c     HVDDxva1Binder.obj
 0003:000025a0       ?VT@?$CVarTypeInfo@PAPA_W@ATL@@2GB 100825a0     HVDDxva1Binder.obj
 0003:000025a4       ?pmField@?$CVarTypeInfo@PAPA_W@ATL@@2QQtagVARIANT@@PAPA_WQ3@ 100825a4     HVDDxva1Binder.obj
 0003:000025a8       ?VT@?$CVarTypeInfo@PAUIUnknown@@@ATL@@2GB 100825a8     HVDDxva1Binder.obj
 0003:000025ac       ?pmField@?$CVarTypeInfo@PAUIUnknown@@@ATL@@2QQtagVARIANT@@PAUIUnknown@@Q3@ 100825ac     HVDDxva1Binder.obj
 0003:000025b0       ?VT@?$CVarTypeInfo@PAPAUIUnknown@@@ATL@@2GB 100825b0     HVDDxva1Binder.obj
 0003:000025b4       ?pmField@?$CVarTypeInfo@PAPAUIUnknown@@@ATL@@2QQtagVARIANT@@PAPAUIUnknown@@Q3@ 100825b4     HVDDxva1Binder.obj
 0003:000025b8       ?VT@?$CVarTypeInfo@PAUIDispatch@@@ATL@@2GB 100825b8     HVDDxva1Binder.obj
 0003:000025bc       ?pmField@?$CVarTypeInfo@PAUIDispatch@@@ATL@@2QQtagVARIANT@@PAUIDispatch@@Q3@ 100825bc     HVDDxva1Binder.obj
 0003:000025c0       ?VT@?$CVarTypeInfo@PAPAUIDispatch@@@ATL@@2GB 100825c0     HVDDxva1Binder.obj
 0003:000025c4       ?pmField@?$CVarTypeInfo@PAPAUIDispatch@@@ATL@@2QQtagVARIANT@@PAPAUIDispatch@@Q3@ 100825c4     HVDDxva1Binder.obj
 0003:000025c8       ?VT@?$CVarTypeInfo@TtagCY@@@ATL@@2GB 100825c8     HVDDxva1Binder.obj
 0003:000025cc       ?pmField@?$CVarTypeInfo@TtagCY@@@ATL@@2QQtagVARIANT@@TtagCY@@Q3@ 100825cc     HVDDxva1Binder.obj
 0003:000025d0       ?VT@?$CVarTypeInfo@PATtagCY@@@ATL@@2GB 100825d0     HVDDxva1Binder.obj
 0003:000025d4       ?pmField@?$CVarTypeInfo@PATtagCY@@@ATL@@2QQtagVARIANT@@PATtagCY@@Q3@ 100825d4     HVDDxva1Binder.obj
 0003:000025d8       _LIBID_ATLLib              100825d8     HVDDxva1Binder.obj
 0003:000025ec       _CLSID_Registrar           100825ec     HVDDxva1Binder.obj
 0003:00002600       _IID_IRegistrar            10082600     HVDDxva1Binder.obj
 0003:00002614       _IID_IAxWinHostWindow      10082614     HVDDxva1Binder.obj
 0003:00002628       _IID_IAxWinAmbientDispatch 10082628     HVDDxva1Binder.obj
 0003:0000263c       _IID_IInternalConnection   1008263c     HVDDxva1Binder.obj
 0003:00002650       _IID_IDocHostUIHandlerDispatch 10082650     HVDDxva1Binder.obj
 0003:00002664       _IID_IAxWinHostWindowLic   10082664     HVDDxva1Binder.obj
 0003:00002678       _IID_IAxWinAmbientDispatchEx 10082678     HVDDxva1Binder.obj
 0003:000026b0       ?m_pPinInfo@CHVDDxva1Binder@HVDService@@0QBU__MIDL___MIDL_itf_strmif_0000_0022_0002@@B 100826b0     HVDDxva1Binder.obj
 0003:0000270c       ?MAX_VALUE@CRegParser@ATL@@1HB 1008270c     HVDDxva1Binder.obj
 0003:00002710       ?MAX_TYPE@CRegParser@ATL@@1HB 10082710     HVDDxva1Binder.obj
 0003:00002714       ?rgszNeverDelete@CRegParser@ATL@@1QBQBDB 10082714     HVDDxva1Binder.obj
 0003:00002750       ?cbNeverDelete@CRegParser@ATL@@1HB 10082750     HVDDxva1Binder.obj
 0003:00002754       _IID_IDDVideoPortContainer 10082754     HVDDxva1Binder.obj
 0003:00002768       _IID_IDirectDrawVideoPort  10082768     HVDDxva1Binder.obj
 0003:0000277c       _IID_IDirectDrawVideoPortNotify 1008277c     HVDDxva1Binder.obj
 0003:00002790       _DDVPTYPE_E_HREFH_VREFH    10082790     HVDDxva1Binder.obj
 0003:000027a4       _DDVPTYPE_E_HREFH_VREFL    100827a4     HVDDxva1Binder.obj
 0003:000027b8       _DDVPTYPE_E_HREFL_VREFH    100827b8     HVDDxva1Binder.obj
 0003:000027cc       _DDVPTYPE_E_HREFL_VREFL    100827cc     HVDDxva1Binder.obj
 0003:000027e0       _DDVPTYPE_CCIR656          100827e0     HVDDxva1Binder.obj
 0003:000027f4       _DDVPTYPE_BROOKTREE        100827f4     HVDDxva1Binder.obj
 0003:00002808       _DDVPTYPE_PHILIPS          10082808     HVDDxva1Binder.obj
 0003:0000281c       ??_C@_0BD@CMFGDIHO@?$HOSubpicture?5Output?$AA@ 1008281c     HVDDxva1Binder.obj
 0003:00002834       ??_C@_0N@NGNIGINN@Video?5Output?$AA@ 10082834     HVDDxva1Binder.obj
 0003:00002844       ??_C@_0CB@LOBOBMPM@CHVDDxva1Binder?3?3m_OutputPinList@ 10082844     HVDDxva1Binder.obj
 0003:00002870       ??_7CHVDDxva1Binder@HVDService@@6BIAMovieSetup@@@ 10082870     HVDDxva1Binder.obj
 0003:0000288c       ??_7CHVDDxva1Binder@HVDService@@6BIBaseFilter@@@ 1008288c     HVDDxva1Binder.obj
 0003:000028d8       ??_7CHVDDxva1Binder@HVDService@@6BCUnknown@@@ 100828d8     HVDDxva1Binder.obj
 0003:00002918       ??_C@_0M@MMJLILGG@DXVA?5Binder?$AA@ 10082918     HVDDxva1Binder.obj
 0003:00002928       ??_C@_1BC@HNPPBCHI@?$AAO?$AAu?$AAt?$AAp?$AAu?$AAt?$AA?$CF?$AAd?$AA?$AA@ 10082928     HVDDxva1Binder.obj
 0003:00002940       ??_C@_0BE@IABLDCBL@DShow?5filter?5Output?$AA@ 10082940     HVDDxva1Binder.obj
 0003:00002958       __GUID_a215fb8d_13c2_4f7f_993c_003d6271a459 10082958     HVDDxva1Binder.obj
 0003:00002970       ??_C@_1JC@OEGBPCIB@?$AAc?$AA?3?$AA?2?$AAp?$AAr?$AAo?$AAg?$AAr?$AAa?$AAm?$AA?5?$AAf?$AAi?$AAl?$AAe?$AAs?$AA?2?$AAm?$AAi?$AAc?$AAr?$AAo?$AAs?$AAo?$AAf?$AAt?$AA?5?$AAv?$AAi?$AAs?$AAu?$AAa@ 10082970     HVDDxva1Binder.obj
 0003:00002a20       ??_C@_19LMDLLIGP@?$AAp?$AA?$DN?$AA?$DN?$AA0?$AA?$AA@ 10082a20     HVDDxva1Binder.obj
 0003:00002a2c       ??_C@_19JHCPJMAL@?$AAp?$AA?$CB?$AA?$DN?$AA0?$AA?$AA@ 10082a2c     HVDDxva1Binder.obj
 0003:00002a3c       ??_7Thank_you@Define_the_symbol__ATL_MIXED@@6B@ 10082a3c     HVDDxva1Binder.obj
 0003:00002a44       ??_C@_0P@GHFPNOJB@bad?5allocation?$AA@ 10082a44     HVDFastReadback.obj
 0003:00002ac4       _LIBID_Accessibility       10082ac4     HVDFastReadback.obj
 0003:00002ad8       _IID_IAccessible           10082ad8     HVDFastReadback.obj
 0003:00002aec       _IID_IAccessibleHandler    10082aec     HVDFastReadback.obj
 0003:00002b00       _IID_IAccIdentity          10082b00     HVDFastReadback.obj
 0003:00002b14       _IID_IAccPropServer        10082b14     HVDFastReadback.obj
 0003:00002b28       _IID_IAccPropServices      10082b28     HVDFastReadback.obj
 0003:00002b3c       _IID_IAccPropMgrInternal   10082b3c     HVDFastReadback.obj
 0003:00002b50       _CLSID_AccPropServices     10082b50     HVDFastReadback.obj
 0003:00002b64       _IIS_IsOleaccProxy         10082b64     HVDFastReadback.obj
 0003:00002b78       _PROPID_ACC_NAME           10082b78     HVDFastReadback.obj
 0003:00002b8c       _PROPID_ACC_VALUE          10082b8c     HVDFastReadback.obj
 0003:00002ba0       _PROPID_ACC_DESCRIPTION    10082ba0     HVDFastReadback.obj
 0003:00002bb4       _PROPID_ACC_ROLE           10082bb4     HVDFastReadback.obj
 0003:00002bc8       _PROPID_ACC_STATE          10082bc8     HVDFastReadback.obj
 0003:00002bdc       _PROPID_ACC_HELP           10082bdc     HVDFastReadback.obj
 0003:00002bf0       _PROPID_ACC_KEYBOARDSHORTCUT 10082bf0     HVDFastReadback.obj
 0003:00002c04       _PROPID_ACC_DEFAULTACTION  10082c04     HVDFastReadback.obj
 0003:00002c18       _PROPID_ACC_HELPTOPIC      10082c18     HVDFastReadback.obj
 0003:00002c2c       _PROPID_ACC_FOCUS          10082c2c     HVDFastReadback.obj
 0003:00002c40       _PROPID_ACC_SELECTION      10082c40     HVDFastReadback.obj
 0003:00002c54       _PROPID_ACC_PARENT         10082c54     HVDFastReadback.obj
 0003:00002c68       _PROPID_ACC_NAV_UP         10082c68     HVDFastReadback.obj
 0003:00002c7c       _PROPID_ACC_NAV_DOWN       10082c7c     HVDFastReadback.obj
 0003:00002c90       _PROPID_ACC_NAV_LEFT       10082c90     HVDFastReadback.obj
 0003:00002ca4       _PROPID_ACC_NAV_RIGHT      10082ca4     HVDFastReadback.obj
 0003:00002cb8       _PROPID_ACC_NAV_PREV       10082cb8     HVDFastReadback.obj
 0003:00002ccc       _PROPID_ACC_NAV_NEXT       10082ccc     HVDFastReadback.obj
 0003:00002ce0       _PROPID_ACC_NAV_FIRSTCHILD 10082ce0     HVDFastReadback.obj
 0003:00002cf4       _PROPID_ACC_NAV_LASTCHILD  10082cf4     HVDFastReadback.obj
 0003:00002d08       _PROPID_ACC_ROLEMAP        10082d08     HVDFastReadback.obj
 0003:00002d1c       _PROPID_ACC_VALUEMAP       10082d1c     HVDFastReadback.obj
 0003:00002d30       _PROPID_ACC_STATEMAP       10082d30     HVDFastReadback.obj
 0003:00002d44       _PROPID_ACC_DESCRIPTIONMAP 10082d44     HVDFastReadback.obj
 0003:00002d58       _PROPID_ACC_DODEFAULTACTION 10082d58     HVDFastReadback.obj
 0003:00002d70       ??_7CFastReadback@HVDService@@6B@ 10082d70     HVDFastReadback.obj
 0003:00002d8c       ??_7CD3DFastReadback@HVDService@@6B@ 10082d8c     HVDFastReadback.obj
 0003:00002da8       __real@3fb99999a0000000    10082da8     HVDFastReadback.obj
 0003:00002db8       __real@3fe07ae140000000    10082db8     HVDFastReadback.obj
 0003:00002dc8       __real@3fe3ae1480000000    10082dc8     HVDFastReadback.obj
 0003:00002dd8       __real@3fdbe76c80000000    10082dd8     HVDFastReadback.obj
 0003:00002de8       __real@3fd27ef9e0000000    10082de8     HVDFastReadback.obj
 0003:00002df8       __real@4060000000000000    10082df8     HVDFastReadback.obj
 0003:00002e08       __real@3fc2d0e560000000    10082e08     HVDFastReadback.obj
 0003:00002e18       __real@3fbd2f1aa0000000    10082e18     HVDFastReadback.obj
 0003:00002e28       __real@3fe2c8b440000000    10082e28     HVDFastReadback.obj
 0003:00002e38       __real@3fd322d0e0000000    10082e38     HVDFastReadback.obj
 0003:00002e48       ??_7CNVFastReadback@HVDService@@6B@ 10082e48     HVDFastReadback.obj
 0003:00002e64       ??_7CIntelFastReadback@HVDService@@6B@ 10082e64     HVDFastReadback.obj
 0003:00002e7c       __GUID_fc51a551_d5e7_11d9_af55_00054e43ff02 10082e7c     HVDFastReadback.obj
 0003:00002e90       __GUID_fc51a552_d5e7_11d9_af55_00054e43ff02 10082e90     HVDFastReadback.obj
 0003:00002ea8       ??_7CATIFastReadback@HVDService@@6B@ 10082ea8     HVDFastReadback.obj
 0003:00002ec0       _CLSID_DirectDraw          10082ec0     HVDSelector.obj
 0003:00002ed4       _CLSID_DirectDraw7         10082ed4     HVDSelector.obj
 0003:00002ee8       _CLSID_DirectDrawClipper   10082ee8     HVDSelector.obj
 0003:00002efc       _IID_IDirectDraw           10082efc     HVDSelector.obj
 0003:00002f10       _IID_IDirectDraw2          10082f10     HVDSelector.obj
 0003:00002f24       _IID_IDirectDraw4          10082f24     HVDSelector.obj
 0003:00002f38       _IID_IDirectDraw7          10082f38     HVDSelector.obj
 0003:00002f4c       _IID_IDirectDrawSurface    10082f4c     HVDSelector.obj
 0003:00002f60       _IID_IDirectDrawSurface2   10082f60     HVDSelector.obj
 0003:00002f74       _IID_IDirectDrawSurface3   10082f74     HVDSelector.obj
 0003:00002f88       _IID_IDirectDrawSurface4   10082f88     HVDSelector.obj
 0003:00002f9c       _IID_IDirectDrawSurface7   10082f9c     HVDSelector.obj
 0003:00002fb0       _IID_IDirectDrawPalette    10082fb0     HVDSelector.obj
 0003:00002fc4       _IID_IDirectDrawClipper    10082fc4     HVDSelector.obj
 0003:00002fd8       _IID_IDirectDrawColorControl 10082fd8     HVDSelector.obj
 0003:00002fec       _IID_IDirectDrawGammaControl 10082fec     HVDSelector.obj
 0003:00003000       _DXVA_ATIDRM_Encrypt       10083000     HVDSelector.obj
 0003:00003014       _ATI_DECODE_MPEG2_SD_ONLY_GUID 10083014     HVDSelector.obj
 0003:00003028       _AMD_DECODE_MPEG2_HD_FILE_GUID 10083028     HVDSelector.obj
 0003:0000303c       _DXVA_ATIDRM_Profile       1008303c     HVDSelector.obj
 0003:00003050       _DXVA_ModeH264_ATI_A       10083050     HVDSelector.obj
 0003:00003064       _DXVA_ModeH264_ATI_B       10083064     HVDSelector.obj
 0003:00003078       _DXVA_ATI_BA_H264          10083078     HVDSelector.obj
 0003:0000308c       _DXVADDI_ModeH264_E        1008308c     HVDSelector.obj
 0003:000030a0       _DXVADDI_ModeH264_F        100830a0     HVDSelector.obj
 0003:000030b4       _DXVA_ModeH264_ATI_RESTRICTED 100830b4     HVDSelector.obj
 0003:000030c8       _DXVA2_Intel_ModeVC1_D     100830c8     HVDSelector.obj
 0003:000030dc       _DXVADDI_Intel_ModeVC1_D_2ndCtxt 100830dc     HVDSelector.obj
 0003:000030f0       _DXVADDI_Intel_ModeH264_A  100830f0     HVDSelector.obj
 0003:00003104       _DXVADDI_Intel_ModeH264_B  10083104     HVDSelector.obj
 0003:00003118       _DXVADDI_Intel_ModeH264_C  10083118     HVDSelector.obj
 0003:0000312c       _DXVADDI_Intel_ModeH264_D  1008312c     HVDSelector.obj
 0003:00003140       _DXVADDI_Intel_ModeH264_E  10083140     HVDSelector.obj
 0003:00003154       _DXVADDI_Intel_ModeH264_F  10083154     HVDSelector.obj
 0003:00003168       _DXVA2_Intel_Pavp          10083168     HVDSelector.obj
 0003:0000317c       _DXVADDI_Intel_ModeH264_E_2ndCtxt 1008317c     HVDSelector.obj
 0003:00003190       _DXVADDI_Intel_ModeH264_F_2ndCtxt 10083190     HVDSelector.obj
 0003:000031a4       _DXVA_ModeH264_VP1         100831a4     HVDSelector.obj
 0003:000031b8       _DXVA_ModeMPEG2_VLD        100831b8     HVDSelector.obj
 0003:000031cc       _DXVA_EncryptProt1         100831cc     HVDSelector.obj
 0003:000031e0       _MEDIASUBTYPE_VC1          100831e0     HVDSelector.obj
 0003:000031f4       _MEDIASUBTYPE_WVC1_ES      100831f4     HVDSelector.obj
 0003:00003208       _MEDIASUBTYPE_WVC1         10083208     HVDSelector.obj
 0003:0000321c       _MEDIASUBTYPE_MLH264       1008321c     HVDSelector.obj
 0003:00003230       _MEDIASUBTYPE_HLH264       10083230     HVDSelector.obj
 0003:00003244       _MEDIASUBTYPE_BLH264       10083244     HVDSelector.obj
 0003:00003258       _MEDIASUBTYPE_ELH264       10083258     HVDSelector.obj
 0003:0000326c       _MEDIASUBTYPE_DIVX         1008326c     HVDSelector.obj
 0003:00003280       _MEDIASUBTYPE_IGOR         10083280     HVDSelector.obj
 0003:00003294       _MEDIASUBTYPE_MCS3         10083294     HVDSelector.obj
 0003:000032a8       _MEDIASUBTYPE_SISI         100832a8     HVDSelector.obj
 0003:000032bc       _MEDIASUBTYPE_MC12         100832bc     HVDSelector.obj
 0003:000032d0       _MEDIASUBTYPE_MCAM         100832d0     HVDSelector.obj
 0003:000032e4       _MEDIASUBTYPE_M2AM         100832e4     HVDSelector.obj
 0003:000032f8       _MEDIASUBTYPE_NMGA         100832f8     HVDSelector.obj
 0003:0000330c       _MEDIASUBTYPE_SMM1         1008330c     HVDSelector.obj
 0003:00003320       _MEDIASUBTYPE_SIMC         10083320     HVDSelector.obj
 0003:00003334       _MEDIASUBTYPE_TDMC         10083334     HVDSelector.obj
 0003:00003348       _MEDIASUBTYPE_NVDS         10083348     HVDSelector.obj
 0003:0000335c       _MEDIASUBTYPE_NVMC         1008335c     HVDSelector.obj
 0003:00003370       _MEDIASUBTYPE_I81X         10083370     HVDSelector.obj
 0003:00003384       _MEDIASUBTYPE_SISMC        10083384     HVDSelector.obj
 0003:00003398       _MEDIASUBTYPE_SISADV       10083398     HVDSelector.obj
 0003:000033ac       _MEDIASUBTYPE_NV10MC0      100833ac     HVDSelector.obj
 0003:000033c0       _MEDIASUBTYPE_ARGB4444     100833c0     HVDSelector.obj
 0003:000033d4       _DXVA_Inverse32PullDown    100833d4     HVDSelector.obj
 0003:000033e8       _MF_BYTESTREAM_ORIGIN_NAME 100833e8     HVDService.obj
 0003:000033fc       _MF_BYTESTREAM_CONTENT_TYPE 100833fc     HVDService.obj
 0003:00003410       _MF_BYTESTREAM_DURATION    10083410     HVDService.obj
 0003:00003424       _MF_BYTESTREAM_LAST_MODIFIED_TIME 10083424     HVDService.obj
 0003:00003438       _MF_SESSION_TOPOLOADER     10083438     HVDService.obj
 0003:0000344c       _MF_SESSION_GLOBAL_TIME    1008344c     HVDService.obj
 0003:00003460       _MF_SESSION_QUALITY_MANAGER 10083460     HVDService.obj
 0003:00003474       _MF_SESSION_CONTENT_PROTECTION_MANAGER 10083474     HVDService.obj
 0003:00003488       _MF_SESSION_SERVER_CONTEXT 10083488     HVDService.obj
 0003:0000349c       _MF_SESSION_REMOTE_SOURCE_MODE 1008349c     HVDService.obj
 0003:000034b0       _MF_SESSION_APPROX_EVENT_OCCURRENCE_TIME 100834b0     HVDService.obj
 0003:000034c4       _MF_PMP_SERVER_CONTEXT     100834c4     HVDService.obj
 0003:000034d8       _MF_TOPOLOGY_PROJECTSTART  100834d8     HVDService.obj
 0003:000034ec       _MF_TOPOLOGY_PROJECTSTOP   100834ec     HVDService.obj
 0003:00003500       _MF_TOPOLOGY_NO_MARKIN_MARKOUT 10083500     HVDService.obj
 0003:00003514       _MF_TOPONODE_FLUSH         10083514     HVDService.obj
 0003:00003528       _MF_TOPONODE_DRAIN         10083528     HVDService.obj
 0003:0000353c       _MF_TOPONODE_D3DAWARE      1008353c     HVDService.obj
 0003:00003550       _MF_TOPOLOGY_RESOLUTION_STATUS 10083550     HVDService.obj
 0003:00003564       _MF_TOPONODE_ERRORCODE     10083564     HVDService.obj
 0003:00003578       _MF_TOPONODE_CONNECT_METHOD 10083578     HVDService.obj
 0003:0000358c       _MF_TOPONODE_LOCKED        1008358c     HVDService.obj
 0003:000035a0       _MF_TOPONODE_WORKQUEUE_ID  100835a0     HVDService.obj
 0003:000035b4       _MF_TOPONODE_WORKQUEUE_MMCSS_CLASS 100835b4     HVDService.obj
 0003:000035c8       _MF_TOPONODE_DECRYPTOR     100835c8     HVDService.obj
 0003:000035dc       _MF_TOPONODE_DISCARDABLE   100835dc     HVDService.obj
 0003:000035f0       _MF_TOPONODE_ERROR_MAJORTYPE 100835f0     HVDService.obj
 0003:00003604       _MF_TOPONODE_ERROR_SUBTYPE 10083604     HVDService.obj
 0003:00003618       _MF_TOPONODE_WORKQUEUE_MMCSS_TASKID 10083618     HVDService.obj
 0003:0000362c       _MF_TOPONODE_MARKIN_HERE   1008362c     HVDService.obj
 0003:00003640       _MF_TOPONODE_MARKOUT_HERE  10083640     HVDService.obj
 0003:00003654       _MF_TOPONODE_DECODER       10083654     HVDService.obj
 0003:00003668       _MF_TOPONODE_MEDIASTART    10083668     HVDService.obj
 0003:0000367c       _MF_TOPONODE_MEDIASTOP     1008367c     HVDService.obj
 0003:00003690       _MF_TOPONODE_SOURCE        10083690     HVDService.obj
 0003:000036a4       _MF_TOPONODE_PRESENTATION_DESCRIPTOR 100836a4     HVDService.obj
 0003:000036b8       _MF_TOPONODE_STREAM_DESCRIPTOR 100836b8     HVDService.obj
 0003:000036cc       _MF_TOPONODE_SEQUENCE_ELEMENTID 100836cc     HVDService.obj
 0003:000036e0       _MF_TOPONODE_TRANSFORM_OBJECTID 100836e0     HVDService.obj
 0003:000036f4       _MF_TOPONODE_STREAMID      100836f4     HVDService.obj
 0003:00003708       _MF_TOPONODE_NOSHUTDOWN_ON_REMOVE 10083708     HVDService.obj
 0003:0000371c       _MF_TOPONODE_RATELESS      1008371c     HVDService.obj
 0003:00003730       _MF_TOPONODE_DISABLE_PREROLL 10083730     HVDService.obj
 0003:00003744       _MF_TOPONODE_PRIMARYOUTPUT 10083744     HVDService.obj
 0003:00003758       _MF_PD_PMPHOST_CONTEXT     10083758     HVDService.obj
 0003:0000376c       _MF_PD_APP_CONTEXT         1008376c     HVDService.obj
 0003:00003780       _MF_PD_DURATION            10083780     HVDService.obj
 0003:00003794       _MF_PD_TOTAL_FILE_SIZE     10083794     HVDService.obj
 0003:000037a8       _MF_PD_AUDIO_ENCODING_BITRATE 100837a8     HVDService.obj
 0003:000037bc       _MF_PD_VIDEO_ENCODING_BITRATE 100837bc     HVDService.obj
 0003:000037d0       _MF_PD_MIME_TYPE           100837d0     HVDService.obj
 0003:000037e4       _MF_PD_LAST_MODIFIED_TIME  100837e4     HVDService.obj
 0003:000037f8       _MF_SD_LANGUAGE            100837f8     HVDService.obj
 0003:0000380c       _MF_SD_PROTECTED           1008380c     HVDService.obj
 0003:00003820       _MF_ACTIVATE_CUSTOM_VIDEO_MIXER_CLSID 10083820     HVDService.obj
 0003:00003834       _MF_ACTIVATE_CUSTOM_VIDEO_MIXER_ACTIVATE 10083834     HVDService.obj
 0003:00003848       _MF_ACTIVATE_CUSTOM_VIDEO_MIXER_FLAGS 10083848     HVDService.obj
 0003:0000385c       _MF_ACTIVATE_CUSTOM_VIDEO_PRESENTER_CLSID 1008385c     HVDService.obj
 0003:00003870       _MF_ACTIVATE_CUSTOM_VIDEO_PRESENTER_ACTIVATE 10083870     HVDService.obj
 0003:00003884       _MF_ACTIVATE_CUSTOM_VIDEO_PRESENTER_FLAGS 10083884     HVDService.obj
 0003:00003898       _MF_ACTIVATE_MFT_LOCKED    10083898     HVDService.obj
 0003:000038ac       _MF_ACTIVATE_VIDEO_WINDOW  100838ac     HVDService.obj
 0003:000038c0       _MF_AUDIO_RENDERER_ATTRIBUTE_FLAGS 100838c0     HVDService.obj
 0003:000038d4       _MF_AUDIO_RENDERER_ATTRIBUTE_SESSION_ID 100838d4     HVDService.obj
 0003:000038e8       _MF_AUDIO_RENDERER_ATTRIBUTE_ENDPOINT_ID 100838e8     HVDService.obj
 0003:000038fc       _MF_AUDIO_RENDERER_ATTRIBUTE_ENDPOINT_ROLE 100838fc     HVDService.obj
 0003:00003910       _MFENABLETYPE_WMDRMV1_LicenseAcquisition 10083910     HVDService.obj
 0003:00003924       _MFENABLETYPE_WMDRMV7_LicenseAcquisition 10083924     HVDService.obj
 0003:00003938       _MFENABLETYPE_WMDRMV7_Individualization 10083938     HVDService.obj
 0003:0000394c       _MFENABLETYPE_MF_UpdateRevocationInformation 1008394c     HVDService.obj
 0003:00003960       _MFENABLETYPE_MF_UpdateUntrustedComponent 10083960     HVDService.obj
 0003:00003974       _MFENABLETYPE_MF_RebootRequired 10083974     HVDService.obj
 0003:00003988       _MF_METADATA_PROVIDER_SERVICE 10083988     HVDService.obj
 0003:0000399c       _MF_RATE_CONTROL_SERVICE   1008399c     HVDService.obj
 0003:000039b0       _MR_POLICY_VOLUME_SERVICE  100839b0     HVDService.obj
 0003:000039c4       _MR_STREAM_VOLUME_SERVICE  100839c4     HVDService.obj
 0003:000039d8       _MR_AUDIO_POLICY_SERVICE   100839d8     HVDService.obj
 0003:000039ec       _MF_SAMPLEGRABBERSINK_SAMPLE_TIME_OFFSET 100839ec     HVDService.obj
 0003:00003a00       _MF_QUALITY_SERVICES       10083a00     HVDService.obj
 0003:00003a14       _MF_WORKQUEUE_SERVICES     10083a14     HVDService.obj
 0003:00003a28       _MF_QUALITY_NOTIFY_PROCESSING_LATENCY 10083a28     HVDService.obj
 0003:00003a3c       _MF_QUALITY_NOTIFY_SAMPLE_LAG 10083a3c     HVDService.obj
 0003:00003a50       _MF_TIME_FORMAT_SEGMENT_OFFSET 10083a50     HVDService.obj
 0003:00003a64       _MF_SOURCE_PRESENTATION_PROVIDER_SERVICE 10083a64     HVDService.obj
 0003:00003a78       _MF_TOPONODE_ATTRIBUTE_EDITOR_SERVICE 10083a78     HVDService.obj
 0003:00003a8c       _MFNET_SAVEJOB_SERVICE     10083a8c     HVDService.obj
 0003:00003aa0       _MFNETSOURCE_STATISTICS_SERVICE 10083aa0     HVDService.obj
 0003:00003ab4       _MFNETSOURCE_STATISTICS    10083ab4     HVDService.obj
 0003:00003ac8       _MFNETSOURCE_BUFFERINGTIME 10083ac8     HVDService.obj
 0003:00003adc       _MFNETSOURCE_ACCELERATEDSTREAMINGDURATION 10083adc     HVDService.obj
 0003:00003af0       _MFNETSOURCE_MAXUDPACCELERATEDSTREAMINGDURATION 10083af0     HVDService.obj
 0003:00003b04       _MFNETSOURCE_MAXBUFFERTIMEMS 10083b04     HVDService.obj
 0003:00003b18       _MFNETSOURCE_CONNECTIONBANDWIDTH 10083b18     HVDService.obj
 0003:00003b2c       _MFNETSOURCE_CACHEENABLED  10083b2c     HVDService.obj
 0003:00003b40       _MFNETSOURCE_AUTORECONNECTLIMIT 10083b40     HVDService.obj
 0003:00003b54       _MFNETSOURCE_RESENDSENABLED 10083b54     HVDService.obj
 0003:00003b68       _MFNETSOURCE_THINNINGENABLED 10083b68     HVDService.obj
 0003:00003b7c       _MFNETSOURCE_PROTOCOL      10083b7c     HVDService.obj
 0003:00003b90       _MFNETSOURCE_TRANSPORT     10083b90     HVDService.obj
 0003:00003ba4       _MFNETSOURCE_CREDENTIAL_MANAGER 10083ba4     HVDService.obj
 0003:00003bb8       _MFNETSOURCE_PPBANDWIDTH   10083bb8     HVDService.obj
 0003:00003bcc       _MFNETSOURCE_AUTORECONNECTPROGRESS 10083bcc     HVDService.obj
 0003:00003be0       _MFNETSOURCE_PROXYLOCATORFACTORY 10083be0     HVDService.obj
 0003:00003bf4       _MFNETSOURCE_BROWSERUSERAGENT 10083bf4     HVDService.obj
 0003:00003c08       _MFNETSOURCE_BROWSERWEBPAGE 10083c08     HVDService.obj
 0003:00003c1c       _MFNETSOURCE_PLAYERVERSION 10083c1c     HVDService.obj
 0003:00003c30       _MFNETSOURCE_PLAYERID      10083c30     HVDService.obj
 0003:00003c44       _MFNETSOURCE_HOSTEXE       10083c44     HVDService.obj
 0003:00003c58       _MFNETSOURCE_HOSTVERSION   10083c58     HVDService.obj
 0003:00003c6c       _MFNETSOURCE_PLAYERUSERAGENT 10083c6c     HVDService.obj
 0003:00003c80       _MFNETSOURCE_LOGURL        10083c80     HVDService.obj
 0003:00003c94       _MFNETSOURCE_ENABLE_UDP    10083c94     HVDService.obj
 0003:00003ca8       _MFNETSOURCE_ENABLE_TCP    10083ca8     HVDService.obj
 0003:00003cbc       _MFNETSOURCE_ENABLE_RTSP   10083cbc     HVDService.obj
 0003:00003cd0       _MFNETSOURCE_ENABLE_HTTP   10083cd0     HVDService.obj
 0003:00003ce4       _MFNETSOURCE_ENABLE_STREAMING 10083ce4     HVDService.obj
 0003:00003cf8       _MFNETSOURCE_ENABLE_DOWNLOAD 10083cf8     HVDService.obj
 0003:00003d0c       _MFNETSOURCE_UDP_PORT_RANGE 10083d0c     HVDService.obj
 0003:00003d20       _MFNETSOURCE_PROXYINFO     10083d20     HVDService.obj
 0003:00003d34       _MFNETSOURCE_DRMNET_LICENSE_REPRESENTATION 10083d34     HVDService.obj
 0003:00003d48       _MFNETSOURCE_PROXYSETTINGS 10083d48     HVDService.obj
 0003:00003d5c       _MFNETSOURCE_PROXYHOSTNAME 10083d5c     HVDService.obj
 0003:00003d70       _MFNETSOURCE_PROXYPORT     10083d70     HVDService.obj
 0003:00003d84       _MFNETSOURCE_PROXYEXCEPTIONLIST 10083d84     HVDService.obj
 0003:00003d98       _MFNETSOURCE_PROXYBYPASSFORLOCAL 10083d98     HVDService.obj
 0003:00003dac       _MFNETSOURCE_PROXYRERUNAUTODETECTION 10083dac     HVDService.obj
 0003:00003dc0       _MFCONNECTOR_SPDIF         10083dc0     HVDService.obj
 0003:00003dd4       _MFCONNECTOR_UNKNOWN       10083dd4     HVDService.obj
 0003:00003de8       _MFCONNECTOR_PCI           10083de8     HVDService.obj
 0003:00003dfc       _MFCONNECTOR_PCIX          10083dfc     HVDService.obj
 0003:00003e10       _MFCONNECTOR_PCI_Express   10083e10     HVDService.obj
 0003:00003e24       _MFCONNECTOR_AGP           10083e24     HVDService.obj
 0003:00003e38       _MFCONNECTOR_VGA           10083e38     HVDService.obj
 0003:00003e4c       _MFCONNECTOR_SVIDEO        10083e4c     HVDService.obj
 0003:00003e60       _MFCONNECTOR_COMPOSITE     10083e60     HVDService.obj
 0003:00003e74       _MFCONNECTOR_COMPONENT     10083e74     HVDService.obj
 0003:00003e88       _MFCONNECTOR_DVI           10083e88     HVDService.obj
 0003:00003e9c       _MFCONNECTOR_HDMI          10083e9c     HVDService.obj
 0003:00003eb0       _MFCONNECTOR_LVDS          10083eb0     HVDService.obj
 0003:00003ec4       _MFCONNECTOR_D_JPN         10083ec4     HVDService.obj
 0003:00003ed8       _MFCONNECTOR_SDI           10083ed8     HVDService.obj
 0003:00003eec       _MFCONNECTOR_DISPLAYPORT_EXTERNAL 10083eec     HVDService.obj
 0003:00003f00       _MFCONNECTOR_DISPLAYPORT_EMBEDDED 10083f00     HVDService.obj
 0003:00003f14       _MFCONNECTOR_UDI_EXTERNAL  10083f14     HVDService.obj
 0003:00003f28       _MFCONNECTOR_UDI_EMBEDDED  10083f28     HVDService.obj
 0003:00003f3c       _MFPROTECTION_DISABLE      10083f3c     HVDService.obj
 0003:00003f50       _MFPROTECTION_CONSTRICTVIDEO 10083f50     HVDService.obj
 0003:00003f64       _MFPROTECTION_CONSTRICTAUDIO 10083f64     HVDService.obj
 0003:00003f78       _MFPROTECTION_TRUSTEDAUDIODRIVERS 10083f78     HVDService.obj
 0003:00003f8c       _MFPROTECTION_HDCP         10083f8c     HVDService.obj
 0003:00003fa0       _MFPROTECTION_CGMSA        10083fa0     HVDService.obj
 0003:00003fb4       _MFPROTECTION_ACP          10083fb4     HVDService.obj
 0003:00003fc8       _MFPROTECTION_WMDRMOTA     10083fc8     HVDService.obj
 0003:00003fdc       _MFPROTECTION_FFT          10083fdc     HVDService.obj
 0003:00003ff0       _MFPROTECTIONATTRIBUTE_CONSTRICTVIDEO_IMAGESIZE 10083ff0     HVDService.obj
 0003:00004004       _MFPROTECTIONATTRIBUTE_HDCP_SRM 10084004     HVDService.obj
 0003:00004018       _MF_SampleProtectionSalt   10084018     HVDService.obj
 0003:0000402c       _MF_REMOTE_PROXY           1008402c     HVDService.obj
 0003:00004040       _MF_SAMI_SERVICE           10084040     HVDService.obj
 0003:00004054       _MF_PD_SAMI_STYLELIST      10084054     HVDService.obj
 0003:00004068       _MF_SD_SAMI_LANGUAGE       10084068     HVDService.obj
 0003:000040a4       __GUID_a44da533_81ce_47a8_ac95_8a564b5a7f47 100840a4     HVDService.obj
 0003:000040bc       ??_7CHVDServiceBase@HVDService@@6B@ 100840bc     HVDServiceBase.obj
 0003:00004118       ??_7IHVDService@@6B@       10084118     HVDServiceBase.obj
 0003:00004154       __GUID_00000000_0000_0000_c000_000000000046 10084154     HVDServiceBase.obj
 0003:00004168       ??_C@_08IFLPDCNK@lRef?5?$DO?50?$AA@ 10084168     HVDServiceBase.obj
 0003:00004178       ??_C@_0ED@GAPLEMGF@d?3?2p2?2components?2video?2dec?2core?2@ 10084178     HVDServiceBase.obj
 0003:000041c8       ??_C@_09HJAJODJ@lRef?5?$DO?$DN?50?$AA@ 100841c8     HVDServiceBase.obj
 0003:000041d4       ??_C@_0CE@CBCBFONG@0?5?$CG?$CG?5?$CCFail?5to?5get?5vendor?1device?5@ 100841d4     HVDServiceBase.obj
 0003:00004200       ??_C@_1DC@POOIKBAO@?$AAI?$AAT?$AAE?$AAR?$AAA?$AAT?$AAO?$AAR?$AA?5?$AAL?$AAI?$AAS?$AAT?$AA?5?$AAC?$AAO?$AAR?$AAR?$AAU?$AAP?$AAT?$AAE?$AAD?$AA?$CB?$AA?$AA@ 10084200     HVDServiceBase.obj
 0003:00004240       ??_C@_1HO@NAKOAEEB@?$AAc?$AA?3?$AA?2?$AAp?$AAr?$AAo?$AAg?$AAr?$AAa?$AAm?$AA?5?$AAf?$AAi?$AAl?$AAe?$AAs?$AA?2?$AAm?$AAi?$AAc?$AAr?$AAo?$AAs?$AAo?$AAf?$AAt?$AA?5?$AAv?$AAi?$AAs?$AAu?$AAa@ 10084240     HVDServiceBase.obj
 0003:000042d8       ??_C@_1EI@HGIDLLCM@?$AAv?$AAe?$AAc?$AAt?$AAo?$AAr?$AA?5?$AAe?$AAr?$AAa?$AAs?$AAe?$AA?5?$AAi?$AAt?$AAe?$AAr?$AAa?$AAt?$AAo?$AAr?$AA?5?$AAo?$AAu?$AAt?$AAs?$AAi?$AAd?$AAe?$AA?5?$AAr?$AAa@ 100842d8     HVDServiceBase.obj
 0003:00004330       ??_C@_1HK@HNILGGDB@?$AAc?$AA?3?$AA?2?$AAp?$AAr?$AAo?$AAg?$AAr?$AAa?$AAm?$AA?5?$AAf?$AAi?$AAl?$AAe?$AAs?$AA?2?$AAm?$AAi?$AAc?$AAr?$AAo?$AAs?$AAo?$AAf?$AAt?$AA?5?$AAv?$AAi?$AAs?$AAu?$AAa@ 10084330     HVDServiceBase.obj
 0003:000043c4       ??_C@_1BO@MEPPHOO@?$AA?$CC?$AAo?$AAu?$AAt?$AA?5?$AAo?$AAf?$AA?5?$AAr?$AAa?$AAn?$AAg?$AAe?$AA?$CC?$AA?$AA@ 100843c4     HVDServiceBase.obj
 0003:000043e8       ??_C@_1OM@HLLEECDA@?$AAs?$AAt?$AAd?$AA?3?$AA?3?$AA_?$AAV?$AAe?$AAc?$AAt?$AAo?$AAr?$AA_?$AAc?$AAo?$AAn?$AAs?$AAt?$AA_?$AAi?$AAt?$AAe?$AAr?$AAa?$AAt?$AAo?$AAr?$AA?$DM?$AAs?$AAt?$AAr?$AAu@ 100843e8     HVDServiceBase.obj
 0003:00004508       ??_C@_1FG@CMLDHNON@?$AA?$CI?$AA?$CC?$AAS?$AAt?$AAa?$AAn?$AAd?$AAa?$AAr?$AAd?$AA?5?$AAC?$AA?$CL?$AA?$CL?$AA?5?$AAL?$AAi?$AAb?$AAr?$AAa?$AAr?$AAi?$AAe?$AAs?$AA?5?$AAO?$AAu?$AAt?$AA?5?$AAo?$AAf?$AA?5@ 10084508     HVDServiceBase.obj
 0003:00004570       ??_C@_1EG@FOHJJHAC@?$AAv?$AAe?$AAc?$AAt?$AAo?$AAr?$AA?5?$AAi?$AAt?$AAe?$AAr?$AAa?$AAt?$AAo?$AAr?$AA?5?$AAn?$AAo?$AAt?$AA?5?$AAd?$AAe?$AAr?$AAe?$AAf?$AAe?$AAr?$AAe?$AAn?$AAc?$AAa?$AAb@ 10084570     HVDServiceBase.obj
 0003:000045c8       ??_C@_1GK@EDIDANOD@?$AA?$CI?$AA?$CC?$AA_?$AAM?$AAy?$AAp?$AAt?$AAr?$AA?5?$AA?$DM?$AA?5?$AA?$CI?$AA?$CI?$AA_?$AAM?$AAy?$AAv?$AAe?$AAc?$AA?5?$AA?$CK?$AA?$CJ?$AA?$CI?$AAt?$AAh?$AAi?$AAs?$AA?9?$AA?$DO?$AA_?$AAM?$AAy@ 100845c8     HVDServiceBase.obj
 0003:00004648       ??_C@_1CG@JNLFBNGN@?$AA?$CC?$AAi?$AAn?$AAv?$AAa?$AAl?$AAi?$AAd?$AA?5?$AAa?$AAr?$AAg?$AAu?$AAm?$AAe?$AAn?$AAt?$AA?$CC?$AA?$AA@ 10084648     HVDServiceBase.obj
 0003:00004678       ??_C@_1OO@PLPLJGGB@?$AAs?$AAt?$AAd?$AA?3?$AA?3?$AA_?$AAV?$AAe?$AAc?$AAt?$AAo?$AAr?$AA_?$AAc?$AAo?$AAn?$AAs?$AAt?$AA_?$AAi?$AAt?$AAe?$AAr?$AAa?$AAt?$AAo?$AAr?$AA?$DM?$AAs?$AAt?$AAr?$AAu@ 10084678     HVDServiceBase.obj
 0003:00004798       ??_C@_1DK@LIMPPGHH@?$AA?$CI?$AA?$CC?$AAt?$AAh?$AAi?$AAs?$AA?9?$AA?$DO?$AA_?$AAM?$AAy?$AAc?$AAo?$AAn?$AAt?$AA?5?$AA?$CB?$AA?$DN?$AA?5?$AAN?$AAU?$AAL?$AAL?$AA?$CC?$AA?0?$AA?5?$AA0?$AA?$CJ?$AA?$AA@ 10084798     HVDServiceBase.obj
 0003:000047e0       ??_C@_1EK@EEHFMKDC@?$AAv?$AAe?$AAc?$AAt?$AAo?$AAr?$AA?5?$AAi?$AAn?$AAs?$AAe?$AAr?$AAt?$AA?5?$AAi?$AAt?$AAe?$AAr?$AAa?$AAt?$AAo?$AAr?$AA?5?$AAo?$AAu?$AAt?$AAs?$AAi?$AAd?$AAe?$AA?5?$AAr@ 100847e0     HVDServiceBase.obj
 0003:00004838       ??_C@_0BD@OLBABOEK@vector?$DMT?$DO?5too?5long?$AA@ 10084838     HVDServiceBase.obj
 0003:00004854       ??_7length_error@std@@6B@  10084854     HVDServiceBase.obj
 0003:00004864       ??_7logic_error@std@@6B@   10084864     HVDServiceBase.obj
 0003:00004870       ??_C@_1BAE@ILEOIME@?$AAs?$AAt?$AAd?$AA?3?$AA?3?$AA_?$AAV?$AAe?$AAc?$AAt?$AAo?$AAr?$AA_?$AAc?$AAo?$AAn?$AAs?$AAt?$AA_?$AAi?$AAt?$AAe?$AAr?$AAa?$AAt?$AAo?$AAr?$AA?$DM?$AAs?$AAt?$AAr?$AAu@ 10084870     HVDServiceBase.obj
 0003:000049a8       ??_C@_1NK@JLHOCNGO@?$AA?$CI?$AA?$CC?$AA_?$AAP?$AAv?$AAe?$AAc?$AAt?$AAo?$AAr?$AA?5?$AA?$DN?$AA?$DN?$AA?5?$AAN?$AAU?$AAL?$AAL?$AA?5?$AA?$HM?$AA?$HM?$AA?5?$AA?$CI?$AA?$CI?$AA?$CI?$AA_?$AAM?$AAy?$AAv?$AAe?$AAc?$AA?5@ 100849a8     HVDServiceBase.obj
 0003:00004ab0       ??_C@_1OG@PNNKGPFA@?$AAs?$AAt?$AAd?$AA?3?$AA?3?$AA_?$AAV?$AAe?$AAc?$AAt?$AAo?$AAr?$AA_?$AAc?$AAo?$AAn?$AAs?$AAt?$AA_?$AAi?$AAt?$AAe?$AAr?$AAa?$AAt?$AAo?$AAr?$AA?$DM?$AAs?$AAt?$AAr?$AAu@ 10084ab0     HVDServiceBase.obj
 0003:00004bc8       ??_C@_1FO@OCPOOAIA@?$AA?$CI?$AA?$CC?$AAS?$AAt?$AAa?$AAn?$AAd?$AAa?$AAr?$AAd?$AA?5?$AAC?$AA?$CL?$AA?$CL?$AA?5?$AAL?$AAi?$AAb?$AAr?$AAa?$AAr?$AAi?$AAe?$AAs?$AA?5?$AAI?$AAn?$AAv?$AAa?$AAl?$AAi?$AAd@ 10084bc8     HVDServiceBase.obj
 0003:00004c38       ??_C@_1DM@HINDPMBP@?$AAv?$AAe?$AAc?$AAt?$AAo?$AAr?$AA?5?$AAi?$AAt?$AAe?$AAr?$AAa?$AAt?$AAo?$AAr?$AAs?$AA?5?$AAi?$AAn?$AAc?$AAo?$AAm?$AAp?$AAa?$AAt?$AAi?$AAb?$AAl?$AAe?$AA?$AA@ 10084c38     HVDServiceBase.obj
 0003:00004c80       ??_C@_1OO@PBNBABMO@?$AA?$CI?$AA?$CC?$AA_?$AAM?$AAy?$AAp?$AAt?$AAr?$AA?5?$AA?$CL?$AA?5?$AA_?$AAO?$AAf?$AAf?$AA?5?$AA?$DM?$AA?$DN?$AA?5?$AA?$CI?$AA?$CI?$AA_?$AAM?$AAy?$AAv?$AAe?$AAc?$AA?5?$AA?$CK?$AA?$CJ?$AA?$CI?$AAt@ 10084c80     HVDServiceBase.obj
 0003:00004da0       ??_C@_1OO@IOIJJOCC@?$AAs?$AAt?$AAd?$AA?3?$AA?3?$AA_?$AAV?$AAe?$AAc?$AAt?$AAo?$AAr?$AA_?$AAc?$AAo?$AAn?$AAs?$AAt?$AA_?$AAi?$AAt?$AAe?$AAr?$AAa?$AAt?$AAo?$AAr?$AA?$DM?$AAs?$AAt?$AAr?$AAu@ 10084da0     HVDServiceBase.obj
 0003:00004ec4       ??_7bad_alloc@std@@6B@     10084ec4     HVDServiceBase.obj
 0003:00004ed0       ??_C@_1CK@EOPGIILJ@?$AAi?$AAn?$AAv?$AAa?$AAl?$AAi?$AAd?$AA?5?$AAn?$AAu?$AAl?$AAl?$AA?5?$AAp?$AAo?$AAi?$AAn?$AAt?$AAe?$AAr?$AA?$AA@ 10084ed0     HVDServiceBase.obj
 0003:00004f04       ??_C@_1CO@DGLIKNHI@?$AAi?$AAn?$AAv?$AAa?$AAl?$AAi?$AAd?$AA?5?$AAi?$AAt?$AAe?$AAr?$AAa?$AAt?$AAo?$AAr?$AA?5?$AAr?$AAa?$AAn?$AAg?$AAe?$AA?$AA@ 10084f04     HVDServiceBase.obj
 0003:00004f40       ??_C@_1HK@DFAOKDK@?$AAc?$AA?3?$AA?2?$AAp?$AAr?$AAo?$AAg?$AAr?$AAa?$AAm?$AA?5?$AAf?$AAi?$AAl?$AAe?$AAs?$AA?2?$AAm?$AAi?$AAc?$AAr?$AAo?$AAs?$AAo?$AAf?$AAt?$AA?5?$AAv?$AAi?$AAs?$AAu?$AAa@ 10084f40     HVDServiceBase.obj
 0003:00004fdc       ??_7CHVDServiceDxva1@HVDService@@6BIHVDServiceDxva1@@@ 10084fdc     HVDServiceDxva1.obj
 0003:0000504c       ??_7CHVDServiceDxva1@HVDService@@6BCHVDServiceBase@1@@ 1008504c     HVDServiceDxva1.obj
 0003:000050ac       ??_7IHVDServiceDxva1@@6B@  100850ac     HVDServiceDxva1.obj
 0003:00005118       ??_7IHVDServiceDxva@@6B@   10085118     HVDServiceDxva1.obj
 0003:00005154       __GUID_0bc8bc88_8b90_4641_87a6_2b8f795b4914 10085154     HVDServiceDxva1.obj
 0003:00005168       __GUID_d1476698_96ed_4649_985a_511660a1fe54 10085168     HVDServiceDxva1.obj
 0003:00005180       ??_C@_0EE@LDBKGNLA@d?3?2p2?2components?2video?2dec?2core?2@ 10085180     HVDServiceDxva1.obj
 0003:000051d8       ??_C@_0EL@PAOFADH@CHVDServiceDxva1?3?3_Initialize?3?5u@ 100851d8     HVDServiceDxva1.obj
 0003:00005238       ??_C@_0FB@JNOLCBDA@CHVDServiceDxva1?3?3_StartService?3@ 10085238     HVDServiceDxva1.obj
 0003:0000529c       ??_C@_1CM@HLGFOGGA@?$AAV?$AAi?$AAd?$AAe?$AAo?$AA?5?$AAR?$AAe?$AAn?$AAd?$AAe?$AAr?$AAe?$AAr?$AA?5?$AAB?$AAi?$AAn?$AAd?$AAe?$AAr?$AA?$AA@ 1008529c     HVDServiceDxva1.obj
 0003:000052d0       ??_C@_0DG@FPECBCO@CHVDServiceDxva1?3?3RunDXVAGraph?3?5@ 100852d0     HVDServiceDxva1.obj
 0003:00005310       ??_C@_0EN@LCLHCDGK@CHVDServiceDxva1?3?3RunDXVAGraph?3?5@ 10085310     HVDServiceDxva1.obj
 0003:00005370       ??_C@_0EC@NMHBGMLL@CHVDServiceDxva1?3?3RunDXVAGraph?3?5@ 10085370     HVDServiceDxva1.obj
 0003:000053c0       ??_C@_0EI@CGJEDEEM@CHVDServiceDxva1?3?3RunDXVAGraph?3?5@ 100853c0     HVDServiceDxva1.obj
 0003:00005418       ??_C@_0DI@GEPDBMEF@CHVDServiceDxva1?3?3RunDXVAGraph?3?5@ 10085418     HVDServiceDxva1.obj
 0003:00005460       ??_C@_0EI@IFLONLMF@CHVDServiceDxva1?3?3RunDXVAGraph?3?5@ 10085460     HVDServiceDxva1.obj
 0003:000054b8       ??_C@_0CM@HMAPDJNC@after?5m_pVideoAccel?9?$DODisplayFram@ 100854b8     HVDServiceDxva1.obj
 0003:000054f0       ??_C@_0EG@BPHIPIBJ@before?5m_pVideoAccel?9?$DODisplayFra@ 100854f0     HVDServiceDxva1.obj
 0003:00005548       ??_C@_0FB@IAJNIGOD@CHVDServiceDxva1?3?3DisplayFrame?0?5@ 10085548     HVDServiceDxva1.obj
 0003:000055b0       __real@4202a05f20000000    100855b0     HVDServiceDxva1.obj
 0003:000055bc       ??_C@_0CB@PGLFENIB@QuaryStatus?3?5sleep?52ms?5Count?$DN?$CFd?6@ 100855bc     HVDServiceDxva1.obj
 0003:000055e8       ??_C@_0FA@JGJFCLFK@CHVDServiceDxva1?3?3CreateGraphBui@ 100855e8     HVDServiceDxva1.obj
 0003:00005648       ??_C@_0FI@CGFCJJOH@CHVDServiceDxva1?3?3CreateVideoRen@ 10085648     HVDServiceDxva1.obj
 0003:000056b8       ??_C@_0EO@BJEANHGJ@CHVDServiceDxva1?3?3CreateVideoRen@ 100856b8     HVDServiceDxva1.obj
 0003:00005718       ??_C@_0FP@KCAGBPDH@CHVDServiceDxva1?3?3CreateVideoRen@ 10085718     HVDServiceDxva1.obj
 0003:0000578c       ??_C@_1DA@BGHDHKPM@?$AAV?$AAi?$AAd?$AAe?$AAo?$AA?5?$AAM?$AAi?$AAx?$AAi?$AAn?$AAg?$AA?5?$AAR?$AAe?$AAn?$AAd?$AAe?$AAr?$AAe?$AAr?$AA?5?$AA9?$AA?$AA@ 1008578c     HVDServiceDxva1.obj
 0003:000057c8       ??_C@_1CM@DGHPBOIA@?$AAV?$AAi?$AAd?$AAe?$AAo?$AA?5?$AAM?$AAi?$AAx?$AAi?$AAn?$AAg?$AA?5?$AAR?$AAe?$AAn?$AAd?$AAe?$AAr?$AAe?$AAr?$AA?$AA@ 100857c8     HVDServiceDxva1.obj
 0003:00005800       ??_C@_0FA@ODIIGNMK@CHVDServiceDxva1?3?3ConnectGraph?3?5@ 10085800     HVDServiceDxva1.obj
 0003:00005860       ??_C@_0FC@JPHCPFDL@CHVDServiceDxva1?3?3ConnectGraph?3?5@ 10085860     HVDServiceDxva1.obj
 0003:000058c8       ??_C@_0HI@OAAIKAOP@CHVDServiceDxva1?3?3ConnectGraph?3?5@ 100858c8     HVDServiceDxva1.obj
 0003:00005958       ??_C@_0ID@NHFICDKH@CHVDServiceDxva1?3?3ConnectGraph?3?5@ 10085958     HVDServiceDxva1.obj
 0003:000059f8       ??_C@_0FO@IEOJILJO@CHVDServiceDxva1?3?3UpdateAMVideoA@ 100859f8     HVDServiceDxva1.obj
 0003:00005a68       ??_C@_0GH@CODENCKL@CHVDServiceDxva1?3?3UpdateAMVideoA@ 10085a68     HVDServiceDxva1.obj
 0003:00005ae8       ??_C@_0FO@JJGEBAHH@CHVDServiceDxva1?3?3UpdateAMVideoA@ 10085ae8     HVDServiceDxva1.obj
 0003:00005b58       ??_C@_0P@EPLLJAAP@m_pVideoRender?$AA@ 10085b58     HVDServiceDxva1.obj
 0003:00005b6c       ??_C@_0DF@FLMBALCE@MSample?3?$FL?$CFc?$CFc?$CFc?$FN?5Length?$DN?$CFd?1?$CFd?5St@ 10085b6c     HVDServiceDxva1.obj
 0003:00005bac       __GUID_56a8689c_0ad4_11ce_b03a_0020af0ba770 10085bac     HVDServiceDxva1.obj
 0003:00005bc0       __GUID_5a804648_4f66_4867_9c43_4f5c822cf1b8 10085bc0     HVDServiceDxva1.obj
 0003:00005bd4       __GUID_256a6a22_fbad_11d1_82bf_00a0c9696c8f 10085bd4     HVDServiceDxva1.obj
 0003:00005be8       __GUID_1a777eaa_47c8_4930_b2c9_8fee1c1b0f3b 10085be8     HVDServiceDxva1.obj
 0003:00005bfc       __GUID_56a868b1_0ad4_11ce_b03a_0020af0ba770 10085bfc     HVDServiceDxva1.obj
 0003:00005c10       __GUID_56a868b4_0ad4_11ce_b03a_0020af0ba770 10085c10     HVDServiceDxva1.obj
 0003:00005c50       _CLSID_IVICP_ATI           10085c50     HVDServiceDxva2.obj
 0003:00005c64       _CLSID_IVICP_ATI_MP2IDCT   10085c64     HVDServiceDxva2.obj
 0003:00005c78       _CLSID_IVICP_NVIDIA        10085c78     HVDServiceDxva2.obj
 0003:00005c8c       _CLSID_IVICP_NVIDIA_MP2IDCT 10085c8c     HVDServiceDxva2.obj
 0003:00005ca0       _CLSID_IVICP_INTEL         10085ca0     HVDServiceDxva2.obj
 0003:00005cb4       _CLSID_IVICP_INTEL_PAVP    10085cb4     HVDServiceDxva2.obj
 0003:00005cc8       _CLSID_IVICP_S3            10085cc8     HVDServiceDxva2.obj
 0003:00005cdc       _CLSID_IVICP_WIN7          10085cdc     HVDServiceDxva2.obj
 0003:00005cf0       _IID_ICPService            10085cf0     HVDServiceDxva2.obj
 0003:00005d04       _IID_ICPServiceAtiMp2IDCT  10085d04     HVDServiceDxva2.obj
 0003:00005d18       _IID_ICPServiceNvidiaMp2IDCT 10085d18     HVDServiceDxva2.obj
 0003:00005d2c       _IID_ICheckPavpDevice      10085d2c     HVDServiceDxva2.obj
 0003:00005d40       _IID_IGetParams            10085d40     HVDServiceDxva2.obj
 0003:00005d54       _DXVA_Intel_Encryption     10085d54     HVDServiceDxva2.obj
 0003:00005d6c       ??_7CSurfacePool@HVDService@@6B@ 10085d6c     HVDServiceDxva2.obj
 0003:00005d74       ??_C@_09EEMFDENE@nRef?5?$DN?$DN?50?$AA@ 10085d74     HVDServiceDxva2.obj
 0003:00005d80       ??_C@_0EE@DFIOBPBO@d?3?2p2?2components?2video?2dec?2core?2@ 10085d80     HVDServiceDxva2.obj
 0003:00005dd4       ??_C@_09MDHOMMHA@dxva2?4dll?$AA@ 10085dd4     HVDServiceDxva2.obj
 0003:00005de4       ??_7CHVDServiceDxva2@HVDService@@6BIHVDServiceDxva2@@@ 10085de4     HVDServiceDxva2.obj
 0003:00005e3c       ??_7CHVDServiceDxva2@HVDService@@6BCHVDServiceBase@1@@ 10085e3c     HVDServiceDxva2.obj
 0003:00005e9c       ??_7IHVDServiceDxva2@@6B@  10085e9c     HVDServiceDxva2.obj
 0003:00005ef0       __GUID_1471d86b_dbac_47f2_9a51_597c78da215f 10085ef0     HVDServiceDxva2.obj
 0003:00005f04       __GUID_a0cade0f_06d5_4cf4_a1c7_f3cdd725aa75 10085f04     HVDServiceDxva2.obj
 0003:00005f18       __GUID_fa993888_4383_415a_a930_dd472a8cf6f7 10085f18     HVDServiceDxva2.obj
 0003:00005f2c       __GUID_d0223b96_bf7a_43fd_92bd_a43b0d82b9eb 10085f2c     HVDServiceDxva2.obj
 0003:00005f64       ??_C@_0BG@FDDOILLD@?5?5?5?5Obj?5?$CFd?5ref?$CL?$CL?5?$DN?5?$CFd?$AA@ 10085f64     strmbasd:combase.obj
 0003:00005f80       ??_C@_0DE@MICHMKHB@d?3?2sdk?2windows?2v6?40?2include?2base@ 10085f80     strmbasd:combase.obj
 0003:00005fc0       ??_C@_0BJ@BFKNAMFH@?5?5?5?5Object?5?$CFd?5ref?9?9?5?$DN?5?$CFd?$AA@ 10085fc0     strmbasd:combase.obj
 0003:00005fe0       ??_C@_09OOGEBIHG@pUnknown2?$AA@ 10085fe0     strmbasd:combase.obj
 0003:00005fec       ??_C@_09MFEJELLF@pUnknown1?$AA@ 10085fec     strmbasd:combase.obj
 0003:00005ff8       ??_C@_07ICIGHOIE@pSecond?$AA@ 10085ff8     strmbasd:combase.obj
 0003:00006004       ??_C@_06BPAKAOAL@pFirst?$AA@ 10086004     strmbasd:combase.obj
 0003:0000600c       _MEDIASUBTYPE_None         1008600c     strmbasd:strmiids.obj
 0003:00006020       _MEDIATYPE_Video           10086020     strmbasd:strmiids.obj
 0003:00006034       _MEDIATYPE_Audio           10086034     strmbasd:strmiids.obj
 0003:00006048       _MEDIATYPE_Text            10086048     strmbasd:strmiids.obj
 0003:0000605c       _MEDIATYPE_Midi            1008605c     strmbasd:strmiids.obj
 0003:00006070       _MEDIATYPE_Stream          10086070     strmbasd:strmiids.obj
 0003:00006084       _MEDIATYPE_Interleaved     10086084     strmbasd:strmiids.obj
 0003:00006098       _MEDIATYPE_File            10086098     strmbasd:strmiids.obj
 0003:000060ac       _MEDIATYPE_ScriptCommand   100860ac     strmbasd:strmiids.obj
 0003:000060c0       _MEDIATYPE_AUXLine21Data   100860c0     strmbasd:strmiids.obj
 0003:000060d4       _MEDIATYPE_DTVCCData       100860d4     strmbasd:strmiids.obj
 0003:000060e8       _MEDIATYPE_MSTVCaption     100860e8     strmbasd:strmiids.obj
 0003:000060fc       _MEDIATYPE_VBI             100860fc     strmbasd:strmiids.obj
 0003:00006110       _MEDIATYPE_Timecode        10086110     strmbasd:strmiids.obj
 0003:00006124       _MEDIATYPE_LMRT            10086124     strmbasd:strmiids.obj
 0003:00006138       _MEDIATYPE_URL_STREAM      10086138     strmbasd:strmiids.obj
 0003:0000614c       _MEDIASUBTYPE_CLPL         1008614c     strmbasd:strmiids.obj
 0003:00006160       _MEDIASUBTYPE_YUYV         10086160     strmbasd:strmiids.obj
 0003:00006174       _MEDIASUBTYPE_IYUV         10086174     strmbasd:strmiids.obj
 0003:00006188       _MEDIASUBTYPE_YVU9         10086188     strmbasd:strmiids.obj
 0003:0000619c       _MEDIASUBTYPE_Y411         1008619c     strmbasd:strmiids.obj
 0003:000061b0       _MEDIASUBTYPE_Y41P         100861b0     strmbasd:strmiids.obj
 0003:000061c4       _MEDIASUBTYPE_YUY2         100861c4     strmbasd:strmiids.obj
 0003:000061d8       _MEDIASUBTYPE_YVYU         100861d8     strmbasd:strmiids.obj
 0003:000061ec       _MEDIASUBTYPE_UYVY         100861ec     strmbasd:strmiids.obj
 0003:00006200       _MEDIASUBTYPE_Y211         10086200     strmbasd:strmiids.obj
 0003:00006214       _MEDIASUBTYPE_CLJR         10086214     strmbasd:strmiids.obj
 0003:00006228       _MEDIASUBTYPE_IF09         10086228     strmbasd:strmiids.obj
 0003:0000623c       _MEDIASUBTYPE_CPLA         1008623c     strmbasd:strmiids.obj
 0003:00006250       _MEDIASUBTYPE_MJPG         10086250     strmbasd:strmiids.obj
 0003:00006264       _MEDIASUBTYPE_TVMJ         10086264     strmbasd:strmiids.obj
 0003:00006278       _MEDIASUBTYPE_WAKE         10086278     strmbasd:strmiids.obj
 0003:0000628c       _MEDIASUBTYPE_CFCC         1008628c     strmbasd:strmiids.obj
 0003:000062a0       _MEDIASUBTYPE_IJPG         100862a0     strmbasd:strmiids.obj
 0003:000062b4       _MEDIASUBTYPE_Plum         100862b4     strmbasd:strmiids.obj
 0003:000062c8       _MEDIASUBTYPE_DVCS         100862c8     strmbasd:strmiids.obj
 0003:000062dc       _MEDIASUBTYPE_H264         100862dc     strmbasd:strmiids.obj
 0003:000062f0       _MEDIASUBTYPE_DVSD         100862f0     strmbasd:strmiids.obj
 0003:00006304       _MEDIASUBTYPE_MDVF         10086304     strmbasd:strmiids.obj
 0003:00006318       _MEDIASUBTYPE_RGB1         10086318     strmbasd:strmiids.obj
 0003:0000632c       _MEDIASUBTYPE_RGB4         1008632c     strmbasd:strmiids.obj
 0003:00006340       _MEDIASUBTYPE_RGB8         10086340     strmbasd:strmiids.obj
 0003:00006354       _MEDIASUBTYPE_RGB565       10086354     strmbasd:strmiids.obj
 0003:00006368       _MEDIASUBTYPE_RGB555       10086368     strmbasd:strmiids.obj
 0003:0000637c       _MEDIASUBTYPE_RGB24        1008637c     strmbasd:strmiids.obj
 0003:00006390       _MEDIASUBTYPE_RGB32        10086390     strmbasd:strmiids.obj
 0003:000063a4       _MEDIASUBTYPE_ARGB1555     100863a4     strmbasd:strmiids.obj
 0003:000063b8       _MEDIASUBTYPE_ARGB32       100863b8     strmbasd:strmiids.obj
 0003:000063cc       _MEDIASUBTYPE_A2R10G10B10  100863cc     strmbasd:strmiids.obj
 0003:000063e0       _MEDIASUBTYPE_A2B10G10R10  100863e0     strmbasd:strmiids.obj
 0003:000063f4       _MEDIASUBTYPE_AYUV         100863f4     strmbasd:strmiids.obj
 0003:00006408       _MEDIASUBTYPE_AI44         10086408     strmbasd:strmiids.obj
 0003:0000641c       _MEDIASUBTYPE_IA44         1008641c     strmbasd:strmiids.obj
 0003:00006430       _MEDIASUBTYPE_RGB32_D3D_DX7_RT 10086430     strmbasd:strmiids.obj
 0003:00006444       _MEDIASUBTYPE_RGB16_D3D_DX7_RT 10086444     strmbasd:strmiids.obj
 0003:00006458       _MEDIASUBTYPE_ARGB32_D3D_DX7_RT 10086458     strmbasd:strmiids.obj
 0003:0000646c       _MEDIASUBTYPE_ARGB4444_D3D_DX7_RT 1008646c     strmbasd:strmiids.obj
 0003:00006480       _MEDIASUBTYPE_ARGB1555_D3D_DX7_RT 10086480     strmbasd:strmiids.obj
 0003:00006494       _MEDIASUBTYPE_RGB32_D3D_DX9_RT 10086494     strmbasd:strmiids.obj
 0003:000064a8       _MEDIASUBTYPE_RGB16_D3D_DX9_RT 100864a8     strmbasd:strmiids.obj
 0003:000064bc       _MEDIASUBTYPE_ARGB32_D3D_DX9_RT 100864bc     strmbasd:strmiids.obj
 0003:000064d0       _MEDIASUBTYPE_ARGB4444_D3D_DX9_RT 100864d0     strmbasd:strmiids.obj
 0003:000064e4       _MEDIASUBTYPE_ARGB1555_D3D_DX9_RT 100864e4     strmbasd:strmiids.obj
 0003:000064f8       _MEDIASUBTYPE_YV12         100864f8     strmbasd:strmiids.obj
 0003:0000650c       _MEDIASUBTYPE_NV12         1008650c     strmbasd:strmiids.obj
 0003:00006520       _MEDIASUBTYPE_NV24         10086520     strmbasd:strmiids.obj
 0003:00006534       _MEDIASUBTYPE_IMC1         10086534     strmbasd:strmiids.obj
 0003:00006548       _MEDIASUBTYPE_IMC2         10086548     strmbasd:strmiids.obj
 0003:0000655c       _MEDIASUBTYPE_IMC3         1008655c     strmbasd:strmiids.obj
 0003:00006570       _MEDIASUBTYPE_IMC4         10086570     strmbasd:strmiids.obj
 0003:00006584       _MEDIASUBTYPE_S340         10086584     strmbasd:strmiids.obj
 0003:00006598       _MEDIASUBTYPE_S342         10086598     strmbasd:strmiids.obj
 0003:000065ac       _MEDIASUBTYPE_Overlay      100865ac     strmbasd:strmiids.obj
 0003:000065c0       _MEDIASUBTYPE_MPEG1Packet  100865c0     strmbasd:strmiids.obj
 0003:000065d4       _MEDIASUBTYPE_MPEG1Payload 100865d4     strmbasd:strmiids.obj
 0003:000065e8       _MEDIASUBTYPE_MPEG1AudioPayload 100865e8     strmbasd:strmiids.obj
 0003:000065fc       _MEDIATYPE_MPEG1SystemStream 100865fc     strmbasd:strmiids.obj
 0003:00006610       _MEDIASUBTYPE_MPEG1System  10086610     strmbasd:strmiids.obj
 0003:00006624       _MEDIASUBTYPE_MPEG1VideoCD 10086624     strmbasd:strmiids.obj
 0003:00006638       _MEDIASUBTYPE_MPEG1Video   10086638     strmbasd:strmiids.obj
 0003:0000664c       _MEDIASUBTYPE_MPEG1Audio   1008664c     strmbasd:strmiids.obj
 0003:00006660       _MEDIASUBTYPE_Avi          10086660     strmbasd:strmiids.obj
 0003:00006674       _MEDIASUBTYPE_Asf          10086674     strmbasd:strmiids.obj
 0003:00006688       _MEDIASUBTYPE_QTMovie      10086688     strmbasd:strmiids.obj
 0003:0000669c       _MEDIASUBTYPE_QTRpza       1008669c     strmbasd:strmiids.obj
 0003:000066b0       _MEDIASUBTYPE_QTSmc        100866b0     strmbasd:strmiids.obj
 0003:000066c4       _MEDIASUBTYPE_QTRle        100866c4     strmbasd:strmiids.obj
 0003:000066d8       _MEDIASUBTYPE_QTJpeg       100866d8     strmbasd:strmiids.obj
 0003:000066ec       _MEDIASUBTYPE_PCMAudio_Obsolete 100866ec     strmbasd:strmiids.obj
 0003:00006700       _MEDIASUBTYPE_PCM          10086700     strmbasd:strmiids.obj
 0003:00006714       _MEDIASUBTYPE_WAVE         10086714     strmbasd:strmiids.obj
 0003:00006728       _MEDIASUBTYPE_AU           10086728     strmbasd:strmiids.obj
 0003:0000673c       _MEDIASUBTYPE_AIFF         1008673c     strmbasd:strmiids.obj
 0003:00006750       _MEDIASUBTYPE_dvsd         10086750     strmbasd:strmiids.obj
 0003:00006764       _MEDIASUBTYPE_dvhd         10086764     strmbasd:strmiids.obj
 0003:00006778       _MEDIASUBTYPE_dvsl         10086778     strmbasd:strmiids.obj
 0003:0000678c       _MEDIASUBTYPE_dv25         1008678c     strmbasd:strmiids.obj
 0003:000067a0       _MEDIASUBTYPE_dv50         100867a0     strmbasd:strmiids.obj
 0003:000067b4       _MEDIASUBTYPE_dvh1         100867b4     strmbasd:strmiids.obj
 0003:000067c8       _MEDIASUBTYPE_Line21_BytePair 100867c8     strmbasd:strmiids.obj
 0003:000067dc       _MEDIASUBTYPE_Line21_GOPPacket 100867dc     strmbasd:strmiids.obj
 0003:000067f0       _MEDIASUBTYPE_Line21_VBIRawData 100867f0     strmbasd:strmiids.obj
 0003:00006804       _MEDIASUBTYPE_708_608Data  10086804     strmbasd:strmiids.obj
 0003:00006818       _MEDIASUBTYPE_DtvCcData    10086818     strmbasd:strmiids.obj
 0003:0000682c       _MEDIASUBTYPE_TELETEXT     1008682c     strmbasd:strmiids.obj
 0003:00006840       _MEDIASUBTYPE_WSS          10086840     strmbasd:strmiids.obj
 0003:00006854       _MEDIASUBTYPE_VPS          10086854     strmbasd:strmiids.obj
 0003:00006868       _MEDIASUBTYPE_DRM_Audio    10086868     strmbasd:strmiids.obj
 0003:0000687c       _MEDIASUBTYPE_IEEE_FLOAT   1008687c     strmbasd:strmiids.obj
 0003:00006890       _MEDIASUBTYPE_DOLBY_AC3_SPDIF 10086890     strmbasd:strmiids.obj
 0003:000068a4       _MEDIASUBTYPE_RAW_SPORT    100868a4     strmbasd:strmiids.obj
 0003:000068b8       _MEDIASUBTYPE_SPDIF_TAG_241h 100868b8     strmbasd:strmiids.obj
 0003:000068cc       _MEDIASUBTYPE_DssVideo     100868cc     strmbasd:strmiids.obj
 0003:000068e0       _MEDIASUBTYPE_DssAudio     100868e0     strmbasd:strmiids.obj
 0003:000068f4       _MEDIASUBTYPE_VPVideo      100868f4     strmbasd:strmiids.obj
 0003:00006908       _MEDIASUBTYPE_VPVBI        10086908     strmbasd:strmiids.obj
 0003:0000691c       _CLSID_CaptureGraphBuilder 1008691c     strmbasd:strmiids.obj
 0003:00006930       _CLSID_CaptureGraphBuilder2 10086930     strmbasd:strmiids.obj
 0003:00006944       _CLSID_ProtoFilterGraph    10086944     strmbasd:strmiids.obj
 0003:00006958       _CLSID_SystemClock         10086958     strmbasd:strmiids.obj
 0003:0000696c       _CLSID_FilterMapper        1008696c     strmbasd:strmiids.obj
 0003:00006980       _CLSID_FilterGraph         10086980     strmbasd:strmiids.obj
 0003:00006994       _CLSID_FilterGraphNoThread 10086994     strmbasd:strmiids.obj
 0003:000069a8       _CLSID_FilterGraphPrivateThread 100869a8     strmbasd:strmiids.obj
 0003:000069bc       _CLSID_MPEG1Doc            100869bc     strmbasd:strmiids.obj
 0003:000069d0       _CLSID_FileSource          100869d0     strmbasd:strmiids.obj
 0003:000069e4       _CLSID_MPEG1PacketPlayer   100869e4     strmbasd:strmiids.obj
 0003:000069f8       _CLSID_MPEG1Splitter       100869f8     strmbasd:strmiids.obj
 0003:00006a0c       _CLSID_CMpegVideoCodec     10086a0c     strmbasd:strmiids.obj
 0003:00006a20       _CLSID_CMpegAudioCodec     10086a20     strmbasd:strmiids.obj
 0003:00006a34       _CLSID_TextRender          10086a34     strmbasd:strmiids.obj
 0003:00006a48       _CLSID_InfTee              10086a48     strmbasd:strmiids.obj
 0003:00006a5c       _CLSID_AviSplitter         10086a5c     strmbasd:strmiids.obj
 0003:00006a70       _CLSID_AviReader           10086a70     strmbasd:strmiids.obj
 0003:00006a84       _CLSID_VfwCapture          10086a84     strmbasd:strmiids.obj
 0003:00006a98       _CLSID_CaptureProperties   10086a98     strmbasd:strmiids.obj
 0003:00006aac       _CLSID_FGControl           10086aac     strmbasd:strmiids.obj
 0003:00006ac0       _CLSID_MOVReader           10086ac0     strmbasd:strmiids.obj
 0003:00006ad4       _CLSID_QuickTimeParser     10086ad4     strmbasd:strmiids.obj
 0003:00006ae8       _CLSID_QTDec               10086ae8     strmbasd:strmiids.obj
 0003:00006afc       _CLSID_AVIDoc              10086afc     strmbasd:strmiids.obj
 0003:00006b10       _CLSID_VideoRenderer       10086b10     strmbasd:strmiids.obj
 0003:00006b24       _CLSID_Colour              10086b24     strmbasd:strmiids.obj
 0003:00006b38       _CLSID_Dither              10086b38     strmbasd:strmiids.obj
 0003:00006b4c       _CLSID_ModexRenderer       10086b4c     strmbasd:strmiids.obj
 0003:00006b60       _CLSID_AudioRender         10086b60     strmbasd:strmiids.obj
 0003:00006b74       _CLSID_AudioProperties     10086b74     strmbasd:strmiids.obj
 0003:00006b88       _CLSID_DSoundRender        10086b88     strmbasd:strmiids.obj
 0003:00006b9c       _CLSID_AudioRecord         10086b9c     strmbasd:strmiids.obj
 0003:00006bb0       _CLSID_AudioInputMixerProperties 10086bb0     strmbasd:strmiids.obj
 0003:00006bc4       _CLSID_AVIDec              10086bc4     strmbasd:strmiids.obj
 0003:00006bd8       _CLSID_AVIDraw             10086bd8     strmbasd:strmiids.obj
 0003:00006bec       _CLSID_ACMWrapper          10086bec     strmbasd:strmiids.obj
 0003:00006c00       _CLSID_AsyncReader         10086c00     strmbasd:strmiids.obj
 0003:00006c14       _CLSID_URLReader           10086c14     strmbasd:strmiids.obj
 0003:00006c28       _CLSID_PersistMonikerPID   10086c28     strmbasd:strmiids.obj
 0003:00006c3c       _CLSID_AVICo               10086c3c     strmbasd:strmiids.obj
 0003:00006c50       _CLSID_FileWriter          10086c50     strmbasd:strmiids.obj
 0003:00006c64       _CLSID_AviDest             10086c64     strmbasd:strmiids.obj
 0003:00006c78       _CLSID_AviMuxProptyPage    10086c78     strmbasd:strmiids.obj
 0003:00006c8c       _CLSID_AviMuxProptyPage1   10086c8c     strmbasd:strmiids.obj
 0003:00006ca0       _CLSID_AVIMIDIRender       10086ca0     strmbasd:strmiids.obj
 0003:00006cb4       _CLSID_WMAsfReader         10086cb4     strmbasd:strmiids.obj
 0003:00006cc8       _CLSID_WMAsfWriter         10086cc8     strmbasd:strmiids.obj
 0003:00006cdc       _CLSID_MPEG2Demultiplexer  10086cdc     strmbasd:strmiids.obj
 0003:00006cf0       _CLSID_MMSPLITTER          10086cf0     strmbasd:strmiids.obj
 0003:00006d04       _CLSID_StreamBufferSink    10086d04     strmbasd:strmiids.obj
 0003:00006d18       _CLSID_StreamBufferSource  10086d18     strmbasd:strmiids.obj
 0003:00006d2c       _CLSID_StreamBufferConfig  10086d2c     strmbasd:strmiids.obj
 0003:00006d40       _CLSID_Mpeg2VideoStreamAnalyzer 10086d40     strmbasd:strmiids.obj
 0003:00006d54       _CLSID_StreamBufferRecordingAttributes 10086d54     strmbasd:strmiids.obj
 0003:00006d68       _CLSID_StreamBufferComposeRecording 10086d68     strmbasd:strmiids.obj
 0003:00006d7c       _CLSID_DVVideoCodec        10086d7c     strmbasd:strmiids.obj
 0003:00006d90       _CLSID_DVVideoEnc          10086d90     strmbasd:strmiids.obj
 0003:00006da4       _CLSID_DVSplitter          10086da4     strmbasd:strmiids.obj
 0003:00006db8       _CLSID_DVMux               10086db8     strmbasd:strmiids.obj
 0003:00006dcc       _CLSID_SeekingPassThru     10086dcc     strmbasd:strmiids.obj
 0003:00006de0       _CLSID_Line21Decoder       10086de0     strmbasd:strmiids.obj
 0003:00006df4       _CLSID_Line21Decoder2      10086df4     strmbasd:strmiids.obj
 0003:00006e08       _CLSID_OverlayMixer        10086e08     strmbasd:strmiids.obj
 0003:00006e1c       _CLSID_VBISurfaces         10086e1c     strmbasd:strmiids.obj
 0003:00006e30       _CLSID_WSTDecoder          10086e30     strmbasd:strmiids.obj
 0003:00006e44       _CLSID_MjpegDec            10086e44     strmbasd:strmiids.obj
 0003:00006e58       _CLSID_MJPGEnc             10086e58     strmbasd:strmiids.obj
 0003:00006e6c       _CLSID_SystemDeviceEnum    10086e6c     strmbasd:strmiids.obj
 0003:00006e80       _CLSID_CDeviceMoniker      10086e80     strmbasd:strmiids.obj
 0003:00006e94       _CLSID_VideoInputDeviceCategory 10086e94     strmbasd:strmiids.obj
 0003:00006ea8       _CLSID_CVidCapClassManager 10086ea8     strmbasd:strmiids.obj
 0003:00006ebc       _CLSID_LegacyAmFilterCategory 10086ebc     strmbasd:strmiids.obj
 0003:00006ed0       _CLSID_CQzFilterClassManager 10086ed0     strmbasd:strmiids.obj
 0003:00006ee4       _CLSID_VideoCompressorCategory 10086ee4     strmbasd:strmiids.obj
 0003:00006ef8       _CLSID_CIcmCoClassManager  10086ef8     strmbasd:strmiids.obj
 0003:00006f0c       _CLSID_AudioCompressorCategory 10086f0c     strmbasd:strmiids.obj
 0003:00006f20       _CLSID_CAcmCoClassManager  10086f20     strmbasd:strmiids.obj
 0003:00006f34       _CLSID_AudioInputDeviceCategory 10086f34     strmbasd:strmiids.obj
 0003:00006f48       _CLSID_CWaveinClassManager 10086f48     strmbasd:strmiids.obj
 0003:00006f5c       _CLSID_AudioRendererCategory 10086f5c     strmbasd:strmiids.obj
 0003:00006f70       _CLSID_CWaveOutClassManager 10086f70     strmbasd:strmiids.obj
 0003:00006f84       _CLSID_MidiRendererCategory 10086f84     strmbasd:strmiids.obj
 0003:00006f98       _CLSID_CMidiOutClassManager 10086f98     strmbasd:strmiids.obj
 0003:00006fac       _CLSID_TransmitCategory    10086fac     strmbasd:strmiids.obj
 0003:00006fc0       _CLSID_DeviceControlCategory 10086fc0     strmbasd:strmiids.obj
 0003:00006fd4       _CLSID_ActiveMovieCategories 10086fd4     strmbasd:strmiids.obj
 0003:00006fe8       _CLSID_DVDHWDecodersCategory 10086fe8     strmbasd:strmiids.obj
 0003:00006ffc       _CLSID_MediaEncoderCategory 10086ffc     strmbasd:strmiids.obj
 0003:00007010       _CLSID_MediaMultiplexerCategory 10087010     strmbasd:strmiids.obj
 0003:00007024       _CLSID_FilterMapper2       10087024     strmbasd:strmiids.obj
 0003:00007038       _CLSID_MemoryAllocator     10087038     strmbasd:strmiids.obj
 0003:0000704c       _CLSID_MediaPropertyBag    1008704c     strmbasd:strmiids.obj
 0003:00007060       _CLSID_DvdGraphBuilder     10087060     strmbasd:strmiids.obj
 0003:00007074       _CLSID_DVDNavigator        10087074     strmbasd:strmiids.obj
 0003:00007088       _CLSID_DVDState            10087088     strmbasd:strmiids.obj
 0003:0000709c       _CLSID_SmartTee            1008709c     strmbasd:strmiids.obj
 0003:000070b0       _CLSID_DtvCcFilter         100870b0     strmbasd:strmiids.obj
 0003:000070c4       _CLSID_MSTVCaptionFilter   100870c4     strmbasd:strmiids.obj
 0003:000070d8       _FORMAT_None               100870d8     strmbasd:strmiids.obj
 0003:000070ec       _FORMAT_VideoInfo          100870ec     strmbasd:strmiids.obj
 0003:00007100       _FORMAT_VideoInfo2         10087100     strmbasd:strmiids.obj
 0003:00007114       _FORMAT_WaveFormatEx       10087114     strmbasd:strmiids.obj
 0003:00007128       _FORMAT_MPEGVideo          10087128     strmbasd:strmiids.obj
 0003:0000713c       _FORMAT_MPEGStreams        1008713c     strmbasd:strmiids.obj
 0003:00007150       _FORMAT_DvInfo             10087150     strmbasd:strmiids.obj
 0003:00007164       _FORMAT_525WSS             10087164     strmbasd:strmiids.obj
 0003:00007178       _CLSID_DirectDrawProperties 10087178     strmbasd:strmiids.obj
 0003:0000718c       _CLSID_PerformanceProperties 1008718c     strmbasd:strmiids.obj
 0003:000071a0       _CLSID_QualityProperties   100871a0     strmbasd:strmiids.obj
 0003:000071b4       _IID_IBaseVideoMixer       100871b4     strmbasd:strmiids.obj
 0003:000071c8       _IID_IDirectDrawVideo      100871c8     strmbasd:strmiids.obj
 0003:000071dc       _IID_IQualProp             100871dc     strmbasd:strmiids.obj
 0003:000071f0       _CLSID_VPObject            100871f0     strmbasd:strmiids.obj
 0003:00007204       _IID_IVPObject             10087204     strmbasd:strmiids.obj
 0003:00007218       _IID_IVPControl            10087218     strmbasd:strmiids.obj
 0003:0000722c       _CLSID_VPVBIObject         1008722c     strmbasd:strmiids.obj
 0003:00007240       _IID_IVPVBIObject          10087240     strmbasd:strmiids.obj
 0003:00007254       _IID_IVPConfig             10087254     strmbasd:strmiids.obj
 0003:00007268       _IID_IVPNotify             10087268     strmbasd:strmiids.obj
 0003:0000727c       _IID_IVPNotify2            1008727c     strmbasd:strmiids.obj
 0003:00007290       _IID_IVPVBIConfig          10087290     strmbasd:strmiids.obj
 0003:000072a4       _IID_IVPVBINotify          100872a4     strmbasd:strmiids.obj
 0003:000072b8       _IID_IMixerPinConfig       100872b8     strmbasd:strmiids.obj
 0003:000072cc       _IID_IMixerPinConfig2      100872cc     strmbasd:strmiids.obj
 0003:000072e0       _IID_IDirectDrawKernel     100872e0     strmbasd:strmiids.obj
 0003:000072f4       _IID_IDirectDrawSurfaceKernel 100872f4     strmbasd:strmiids.obj
 0003:00007308       _CLSID_ModexProperties     10087308     strmbasd:strmiids.obj
 0003:0000731c       _IID_IFullScreenVideo      1008731c     strmbasd:strmiids.obj
 0003:00007330       _IID_IFullScreenVideoEx    10087330     strmbasd:strmiids.obj
 0003:00007344       _CLSID_DVDecPropertiesPage 10087344     strmbasd:strmiids.obj
 0003:00007358       _CLSID_DVEncPropertiesPage 10087358     strmbasd:strmiids.obj
 0003:0000736c       _CLSID_DVMuxPropertyPage   1008736c     strmbasd:strmiids.obj
 0003:00007380       _IID_IAMDirectSound        10087380     strmbasd:strmiids.obj
 0003:00007394       _IID_IMpegAudioDecoder     10087394     strmbasd:strmiids.obj
 0003:000073a8       _IID_IAMLine21Decoder      100873a8     strmbasd:strmiids.obj
 0003:000073bc       _IID_IAMWstDecoder         100873bc     strmbasd:strmiids.obj
 0003:000073d0       _CLSID_WstDecoderPropertyPage 100873d0     strmbasd:strmiids.obj
 0003:000073e4       _FORMAT_AnalogVideo        100873e4     strmbasd:strmiids.obj
 0003:000073f8       _MEDIATYPE_AnalogVideo     100873f8     strmbasd:strmiids.obj
 0003:0000740c       _MEDIASUBTYPE_AnalogVideo_NTSC_M 1008740c     strmbasd:strmiids.obj
 0003:00007420       _MEDIASUBTYPE_AnalogVideo_PAL_B 10087420     strmbasd:strmiids.obj
 0003:00007434       _MEDIASUBTYPE_AnalogVideo_PAL_D 10087434     strmbasd:strmiids.obj
 0003:00007448       _MEDIASUBTYPE_AnalogVideo_PAL_G 10087448     strmbasd:strmiids.obj
 0003:0000745c       _MEDIASUBTYPE_AnalogVideo_PAL_H 1008745c     strmbasd:strmiids.obj
 0003:00007470       _MEDIASUBTYPE_AnalogVideo_PAL_I 10087470     strmbasd:strmiids.obj
 0003:00007484       _MEDIASUBTYPE_AnalogVideo_PAL_M 10087484     strmbasd:strmiids.obj
 0003:00007498       _MEDIASUBTYPE_AnalogVideo_PAL_N 10087498     strmbasd:strmiids.obj
 0003:000074ac       _MEDIASUBTYPE_AnalogVideo_PAL_N_COMBO 100874ac     strmbasd:strmiids.obj
 0003:000074c0       _MEDIASUBTYPE_AnalogVideo_SECAM_B 100874c0     strmbasd:strmiids.obj
 0003:000074d4       _MEDIASUBTYPE_AnalogVideo_SECAM_D 100874d4     strmbasd:strmiids.obj
 0003:000074e8       _MEDIASUBTYPE_AnalogVideo_SECAM_G 100874e8     strmbasd:strmiids.obj
 0003:000074fc       _MEDIASUBTYPE_AnalogVideo_SECAM_H 100874fc     strmbasd:strmiids.obj
 0003:00007510       _MEDIASUBTYPE_AnalogVideo_SECAM_K 10087510     strmbasd:strmiids.obj
 0003:00007524       _MEDIASUBTYPE_AnalogVideo_SECAM_K1 10087524     strmbasd:strmiids.obj
 0003:00007538       _MEDIASUBTYPE_AnalogVideo_SECAM_L 10087538     strmbasd:strmiids.obj
 0003:0000754c       _MEDIATYPE_AnalogAudio     1008754c     strmbasd:strmiids.obj
 0003:00007560       _MEDIATYPE_MPEG2_PACK      10087560     strmbasd:strmiids.obj
 0003:00007574       _MEDIATYPE_MPEG2_PES       10087574     strmbasd:strmiids.obj
 0003:00007588       _MEDIATYPE_MPEG2_SECTIONS  10087588     strmbasd:strmiids.obj
 0003:0000759c       _MEDIASUBTYPE_MPEG2_VERSIONED_TABLES 1008759c     strmbasd:strmiids.obj
 0003:000075b0       _MEDIASUBTYPE_ATSC_SI      100875b0     strmbasd:strmiids.obj
 0003:000075c4       _MEDIASUBTYPE_DVB_SI       100875c4     strmbasd:strmiids.obj
 0003:000075d8       _MEDIASUBTYPE_TIF_SI       100875d8     strmbasd:strmiids.obj
 0003:000075ec       _MEDIASUBTYPE_MPEG2DATA    100875ec     strmbasd:strmiids.obj
 0003:00007600       _MEDIASUBTYPE_MPEG2_WMDRM_TRANSPORT 10087600     strmbasd:strmiids.obj
 0003:00007614       _MEDIASUBTYPE_MPEG2_VIDEO  10087614     strmbasd:strmiids.obj
 0003:00007628       _FORMAT_MPEG2_VIDEO        10087628     strmbasd:strmiids.obj
 0003:0000763c       _FORMAT_VIDEOINFO2         1008763c     strmbasd:strmiids.obj
 0003:00007650       _MEDIASUBTYPE_MPEG2_PROGRAM 10087650     strmbasd:strmiids.obj
 0003:00007664       _MEDIASUBTYPE_MPEG2_TRANSPORT 10087664     strmbasd:strmiids.obj
 0003:00007678       _MEDIASUBTYPE_MPEG2_TRANSPORT_STRIDE 10087678     strmbasd:strmiids.obj
 0003:0000768c       _MEDIASUBTYPE_MPEG2_UDCR_TRANSPORT 1008768c     strmbasd:strmiids.obj
 0003:000076a0       _MEDIASUBTYPE_MPEG2_AUDIO  100876a0     strmbasd:strmiids.obj
 0003:000076b4       _MEDIASUBTYPE_DOLBY_AC3    100876b4     strmbasd:strmiids.obj
 0003:000076c8       _MEDIASUBTYPE_DVD_SUBPICTURE 100876c8     strmbasd:strmiids.obj
 0003:000076dc       _MEDIASUBTYPE_DVD_LPCM_AUDIO 100876dc     strmbasd:strmiids.obj
 0003:000076f0       _MEDIASUBTYPE_DTS          100876f0     strmbasd:strmiids.obj
 0003:00007704       _MEDIASUBTYPE_SDDS         10087704     strmbasd:strmiids.obj
 0003:00007718       _MEDIATYPE_DVD_ENCRYPTED_PACK 10087718     strmbasd:strmiids.obj
 0003:0000772c       _MEDIATYPE_DVD_NAVIGATION  1008772c     strmbasd:strmiids.obj
 0003:00007740       _MEDIASUBTYPE_DVD_NAVIGATION_PCI 10087740     strmbasd:strmiids.obj
 0003:00007754       _MEDIASUBTYPE_DVD_NAVIGATION_DSI 10087754     strmbasd:strmiids.obj
 0003:00007768       _MEDIASUBTYPE_DVD_NAVIGATION_PROVIDER 10087768     strmbasd:strmiids.obj
 0003:0000777c       _FORMAT_MPEG2Video         1008777c     strmbasd:strmiids.obj
 0003:00007790       _FORMAT_DolbyAC3           10087790     strmbasd:strmiids.obj
 0003:000077a4       _FORMAT_MPEG2Audio         100877a4     strmbasd:strmiids.obj
 0003:000077b8       _FORMAT_DVD_LPCMAudio      100877b8     strmbasd:strmiids.obj
 0003:000077cc       _AM_KSPROPSETID_AC3        100877cc     strmbasd:strmiids.obj
 0003:000077e0       _AM_KSPROPSETID_DvdSubPic  100877e0     strmbasd:strmiids.obj
 0003:000077f4       _AM_KSPROPSETID_CopyProt   100877f4     strmbasd:strmiids.obj
 0003:00007808       _AM_KSPROPSETID_TSRateChange 10087808     strmbasd:strmiids.obj
 0003:0000781c       _AM_KSPROPSETID_DVD_RateChange 1008781c     strmbasd:strmiids.obj
 0003:00007830       _AM_KSPROPSETID_DvdKaraoke 10087830     strmbasd:strmiids.obj
 0003:00007844       _AM_KSPROPSETID_FrameStep  10087844     strmbasd:strmiids.obj
 0003:00007858       _AM_KSCATEGORY_CAPTURE     10087858     strmbasd:strmiids.obj
 0003:0000786c       _AM_KSCATEGORY_RENDER      1008786c     strmbasd:strmiids.obj
 0003:00007880       _AM_KSCATEGORY_DATACOMPRESSOR 10087880     strmbasd:strmiids.obj
 0003:00007894       _AM_KSCATEGORY_AUDIO       10087894     strmbasd:strmiids.obj
 0003:000078a8       _AM_KSCATEGORY_VIDEO       100878a8     strmbasd:strmiids.obj
 0003:000078bc       _AM_KSCATEGORY_TVTUNER     100878bc     strmbasd:strmiids.obj
 0003:000078d0       _AM_KSCATEGORY_CROSSBAR    100878d0     strmbasd:strmiids.obj
 0003:000078e4       _AM_KSCATEGORY_TVAUDIO     100878e4     strmbasd:strmiids.obj
 0003:000078f8       _AM_KSCATEGORY_VBICODEC    100878f8     strmbasd:strmiids.obj
 0003:0000790c       _AM_KSCATEGORY_VBICODEC_MI 1008790c     strmbasd:strmiids.obj
 0003:00007920       _AM_KSCATEGORY_SPLITTER    10087920     strmbasd:strmiids.obj
 0003:00007934       _IID_IKsInterfaceHandler   10087934     strmbasd:strmiids.obj
 0003:00007948       _IID_IKsDataTypeHandler    10087948     strmbasd:strmiids.obj
 0003:0000795c       _IID_IKsPin                1008795c     strmbasd:strmiids.obj
 0003:00007970       _IID_IKsControl            10087970     strmbasd:strmiids.obj
 0003:00007984       _IID_IKsPinFactory         10087984     strmbasd:strmiids.obj
 0003:00007998       _AM_INTERFACESETID_Standard 10087998     strmbasd:strmiids.obj
 0003:000079ac       _TIME_FORMAT_NONE          100879ac     strmbasd:strmiids.obj
 0003:000079c0       _TIME_FORMAT_FRAME         100879c0     strmbasd:strmiids.obj
 0003:000079d4       _TIME_FORMAT_BYTE          100879d4     strmbasd:strmiids.obj
 0003:000079e8       _TIME_FORMAT_SAMPLE        100879e8     strmbasd:strmiids.obj
 0003:000079fc       _TIME_FORMAT_FIELD         100879fc     strmbasd:strmiids.obj
 0003:00007a10       _TIME_FORMAT_MEDIA_TIME    10087a10     strmbasd:strmiids.obj
 0003:00007a24       _AMPROPSETID_Pin           10087a24     strmbasd:strmiids.obj
 0003:00007a38       _PIN_CATEGORY_CAPTURE      10087a38     strmbasd:strmiids.obj
 0003:00007a4c       _PIN_CATEGORY_PREVIEW      10087a4c     strmbasd:strmiids.obj
 0003:00007a60       _PIN_CATEGORY_ANALOGVIDEOIN 10087a60     strmbasd:strmiids.obj
 0003:00007a74       _PIN_CATEGORY_VBI          10087a74     strmbasd:strmiids.obj
 0003:00007a88       _PIN_CATEGORY_VIDEOPORT    10087a88     strmbasd:strmiids.obj
 0003:00007a9c       _PIN_CATEGORY_NABTS        10087a9c     strmbasd:strmiids.obj
 0003:00007ab0       _PIN_CATEGORY_EDS          10087ab0     strmbasd:strmiids.obj
 0003:00007ac4       _PIN_CATEGORY_TELETEXT     10087ac4     strmbasd:strmiids.obj
 0003:00007ad8       _PIN_CATEGORY_CC           10087ad8     strmbasd:strmiids.obj
 0003:00007aec       _PIN_CATEGORY_STILL        10087aec     strmbasd:strmiids.obj
 0003:00007b00       _PIN_CATEGORY_TIMECODE     10087b00     strmbasd:strmiids.obj
 0003:00007b14       _PIN_CATEGORY_VIDEOPORT_VBI 10087b14     strmbasd:strmiids.obj
 0003:00007b28       _LOOK_UPSTREAM_ONLY        10087b28     strmbasd:strmiids.obj
 0003:00007b3c       _LOOK_DOWNSTREAM_ONLY      10087b3c     strmbasd:strmiids.obj
 0003:00007b50       _CLSID_TVTunerFilterPropertyPage 10087b50     strmbasd:strmiids.obj
 0003:00007b64       _CLSID_CrossbarFilterPropertyPage 10087b64     strmbasd:strmiids.obj
 0003:00007b78       _CLSID_TVAudioFilterPropertyPage 10087b78     strmbasd:strmiids.obj
 0003:00007b8c       _CLSID_VideoProcAmpPropertyPage 10087b8c     strmbasd:strmiids.obj
 0003:00007ba0       _CLSID_CameraControlPropertyPage 10087ba0     strmbasd:strmiids.obj
 0003:00007bb4       _CLSID_AnalogVideoDecoderPropertyPage 10087bb4     strmbasd:strmiids.obj
 0003:00007bc8       _CLSID_VideoStreamConfigPropertyPage 10087bc8     strmbasd:strmiids.obj
 0003:00007bdc       _CLSID_AudioRendererAdvancedProperties 10087bdc     strmbasd:strmiids.obj
 0003:00007bf0       _CLSID_VideoMixingRenderer 10087bf0     strmbasd:strmiids.obj
 0003:00007c04       _CLSID_VideoRendererDefault 10087c04     strmbasd:strmiids.obj
 0003:00007c18       _CLSID_AllocPresenter      10087c18     strmbasd:strmiids.obj
 0003:00007c2c       _CLSID_AllocPresenterDDXclMode 10087c2c     strmbasd:strmiids.obj
 0003:00007c40       _CLSID_VideoPortManager    10087c40     strmbasd:strmiids.obj
 0003:00007c54       _CLSID_VideoMixingRenderer9 10087c54     strmbasd:strmiids.obj
 0003:00007c68       _CLSID_EnhancedVideoRenderer 10087c68     strmbasd:strmiids.obj
 0003:00007c7c       _CLSID_MFVideoMixer9       10087c7c     strmbasd:strmiids.obj
 0003:00007c90       _CLSID_MFVideoPresenter9   10087c90     strmbasd:strmiids.obj
 0003:00007ca4       _CLSID_EVRTearlessWindowPresenter9 10087ca4     strmbasd:strmiids.obj
 0003:00007cb8       _CLSID_NetworkProvider     10087cb8     strmbasd:strmiids.obj
 0003:00007ccc       _CLSID_ATSCNetworkProvider 10087ccc     strmbasd:strmiids.obj
 0003:00007ce0       _CLSID_ATSCNetworkPropertyPage 10087ce0     strmbasd:strmiids.obj
 0003:00007cf4       _CLSID_DVBSNetworkProvider 10087cf4     strmbasd:strmiids.obj
 0003:00007d08       _CLSID_DVBTNetworkProvider 10087d08     strmbasd:strmiids.obj
 0003:00007d1c       _CLSID_DVBCNetworkProvider 10087d1c     strmbasd:strmiids.obj
 0003:00007d30       _DSATTRIB_UDCRTag          10087d30     strmbasd:strmiids.obj
 0003:00007d44       _DSATTRIB_PicSampleSeq     10087d44     strmbasd:strmiids.obj
 0003:00007d58       _CLSID_DShowTVEFilter      10087d58     strmbasd:strmiids.obj
 0003:00007d6c       _CLSID_TVEFilterTuneProperties 10087d6c     strmbasd:strmiids.obj
 0003:00007d80       _CLSID_TVEFilterCCProperties 10087d80     strmbasd:strmiids.obj
 0003:00007d94       _CLSID_TVEFilterStatsProperties 10087d94     strmbasd:strmiids.obj
 0003:00007da8       _CLSID_IVideoEncoderProxy  10087da8     strmbasd:strmiids.obj
 0003:00007dbc       _CLSID_ICodecAPIProxy      10087dbc     strmbasd:strmiids.obj
 0003:00007dd0       _CLSID_IVideoEncoderCodecAPIProxy 10087dd0     strmbasd:strmiids.obj
 0003:00007de4       _ENCAPIPARAM_BITRATE       10087de4     strmbasd:strmiids.obj
 0003:00007df8       _ENCAPIPARAM_PEAK_BITRATE  10087df8     strmbasd:strmiids.obj
 0003:00007e0c       _ENCAPIPARAM_BITRATE_MODE  10087e0c     strmbasd:strmiids.obj
 0003:00007e20       _ENCAPIPARAM_SAP_MODE      10087e20     strmbasd:strmiids.obj
 0003:00007e34       _CODECAPI_CHANGELISTS      10087e34     strmbasd:strmiids.obj
 0003:00007e48       _CODECAPI_VIDEO_ENCODER    10087e48     strmbasd:strmiids.obj
 0003:00007e5c       _CODECAPI_AUDIO_ENCODER    10087e5c     strmbasd:strmiids.obj
 0003:00007e70       _CODECAPI_SETALLDEFAULTS   10087e70     strmbasd:strmiids.obj
 0003:00007e84       _CODECAPI_ALLSETTINGS      10087e84     strmbasd:strmiids.obj
 0003:00007e98       _CODECAPI_SUPPORTSEVENTS   10087e98     strmbasd:strmiids.obj
 0003:00007eac       _CODECAPI_CURRENTCHANGELIST 10087eac     strmbasd:strmiids.obj
 0003:00007ec0       _CODECAPI_AVEncCommonFormatConstraint 10087ec0     strmbasd:strmiids.obj
 0003:00007ed4       _CODECAPI_GUID_AVEncCommonFormatUnSpecified 10087ed4     strmbasd:strmiids.obj
 0003:00007ee8       _CODECAPI_GUID_AVEncCommonFormatDVD_V 10087ee8     strmbasd:strmiids.obj
 0003:00007efc       _CODECAPI_GUID_AVEncCommonFormatDVD_DashVR 10087efc     strmbasd:strmiids.obj
 0003:00007f10       _CODECAPI_GUID_AVEncCommonFormatDVD_PlusVR 10087f10     strmbasd:strmiids.obj
 0003:00007f24       _CODECAPI_GUID_AVEncCommonFormatVCD 10087f24     strmbasd:strmiids.obj
 0003:00007f38       _CODECAPI_GUID_AVEncCommonFormatSVCD 10087f38     strmbasd:strmiids.obj
 0003:00007f4c       _CODECAPI_GUID_AVEncCommonFormatATSC 10087f4c     strmbasd:strmiids.obj
 0003:00007f60       _CODECAPI_GUID_AVEncCommonFormatDVB 10087f60     strmbasd:strmiids.obj
 0003:00007f74       _CODECAPI_GUID_AVEncCommonFormatMP3 10087f74     strmbasd:strmiids.obj
 0003:00007f88       _CODECAPI_GUID_AVEncCommonFormatHighMAT 10087f88     strmbasd:strmiids.obj
 0003:00007f9c       _CODECAPI_GUID_AVEncCommonFormatHighMPV 10087f9c     strmbasd:strmiids.obj
 0003:00007fb0       _CODECAPI_AVEncCodecType   10087fb0     strmbasd:strmiids.obj
 0003:00007fc4       _CODECAPI_GUID_AVEncMPEG1Video 10087fc4     strmbasd:strmiids.obj
 0003:00007fd8       _CODECAPI_GUID_AVEncMPEG2Video 10087fd8     strmbasd:strmiids.obj
 0003:00007fec       _CODECAPI_GUID_AVEncMPEG1Audio 10087fec     strmbasd:strmiids.obj
 0003:00008000       _CODECAPI_GUID_AVEncMPEG2Audio 10088000     strmbasd:strmiids.obj
 0003:00008014       _CODECAPI_GUID_AVEncWMV    10088014     strmbasd:strmiids.obj
 0003:00008028       _CODECAPI_GUID_AVEndMPEG4Video 10088028     strmbasd:strmiids.obj
 0003:0000803c       _CODECAPI_GUID_AVEncH264Video 1008803c     strmbasd:strmiids.obj
 0003:00008050       _CODECAPI_GUID_AVEncDV     10088050     strmbasd:strmiids.obj
 0003:00008064       _CODECAPI_GUID_AVEncWMAPro 10088064     strmbasd:strmiids.obj
 0003:00008078       _CODECAPI_GUID_AVEncWMALossless 10088078     strmbasd:strmiids.obj
 0003:0000808c       _CODECAPI_GUID_AVEncWMAVoice 1008808c     strmbasd:strmiids.obj
 0003:000080a0       _CODECAPI_GUID_AVEncDolbyDigitalPro 100880a0     strmbasd:strmiids.obj
 0003:000080b4       _CODECAPI_GUID_AVEncDolbyDigitalConsumer 100880b4     strmbasd:strmiids.obj
 0003:000080c8       _CODECAPI_GUID_AVEncDolbyDigitalPlus 100880c8     strmbasd:strmiids.obj
 0003:000080dc       _CODECAPI_GUID_AVEncDTSHD  100880dc     strmbasd:strmiids.obj
 0003:000080f0       _CODECAPI_GUID_AVEncDTS    100880f0     strmbasd:strmiids.obj
 0003:00008104       _CODECAPI_GUID_AVEncMLP    10088104     strmbasd:strmiids.obj
 0003:00008118       _CODECAPI_GUID_AVEncPCM    10088118     strmbasd:strmiids.obj
 0003:0000812c       _CODECAPI_GUID_AVEncSDDS   1008812c     strmbasd:strmiids.obj
 0003:00008140       _CODECAPI_AVEncCommonRateControlMode 10088140     strmbasd:strmiids.obj
 0003:00008154       _CODECAPI_AVEncCommonLowLatency 10088154     strmbasd:strmiids.obj
 0003:00008168       _CODECAPI_AVEncCommonMultipassMode 10088168     strmbasd:strmiids.obj
 0003:0000817c       _CODECAPI_AVEncCommonPassStart 1008817c     strmbasd:strmiids.obj
 0003:00008190       _CODECAPI_AVEncCommonPassEnd 10088190     strmbasd:strmiids.obj
 0003:000081a4       _CODECAPI_AVEncCommonRealTime 100881a4     strmbasd:strmiids.obj
 0003:000081b8       _CODECAPI_AVEncCommonQuality 100881b8     strmbasd:strmiids.obj
 0003:000081cc       _CODECAPI_AVEncCommonQualityVsSpeed 100881cc     strmbasd:strmiids.obj
 0003:000081e0       _CODECAPI_AVEncCommonMeanBitRate 100881e0     strmbasd:strmiids.obj
 0003:000081f4       _CODECAPI_AVEncCommonMeanBitRateInterval 100881f4     strmbasd:strmiids.obj
 0003:00008208       _CODECAPI_AVEncCommonMaxBitRate 10088208     strmbasd:strmiids.obj
 0003:0000821c       _CODECAPI_AVEncCommonMinBitRate 1008821c     strmbasd:strmiids.obj
 0003:00008230       _CODECAPI_AVEncCommonBufferSize 10088230     strmbasd:strmiids.obj
 0003:00008244       _CODECAPI_AVEncCommonBufferInLevel 10088244     strmbasd:strmiids.obj
 0003:00008258       _CODECAPI_AVEncCommonBufferOutLevel 10088258     strmbasd:strmiids.obj
 0003:0000826c       _CODECAPI_AVEncCommonStreamEndHandling 1008826c     strmbasd:strmiids.obj
 0003:00008280       _CODECAPI_AVEncStatCommonCompletedPasses 10088280     strmbasd:strmiids.obj
 0003:00008294       _CODECAPI_AVEncVideoOutputFrameRate 10088294     strmbasd:strmiids.obj
 0003:000082a8       _CODECAPI_AVEncVideoOutputFrameRateConversion 100882a8     strmbasd:strmiids.obj
 0003:000082bc       _CODECAPI_AVEncVideoPixelAspectRatio 100882bc     strmbasd:strmiids.obj
 0003:000082d0       _CODECAPI_AVEncVideoForceSourceScanType 100882d0     strmbasd:strmiids.obj
 0003:000082e4       _CODECAPI_AVEncVideoNoOfFieldsToEncode 100882e4     strmbasd:strmiids.obj
 0003:000082f8       _CODECAPI_AVEncVideoNoOfFieldsToSkip 100882f8     strmbasd:strmiids.obj
 0003:0000830c       _CODECAPI_AVEncVideoEncodeDimension 1008830c     strmbasd:strmiids.obj
 0003:00008320       _CODECAPI_AVEncVideoEncodeOffsetOrigin 10088320     strmbasd:strmiids.obj
 0003:00008334       _CODECAPI_AVEncVideoDisplayDimension 10088334     strmbasd:strmiids.obj
 0003:00008348       _CODECAPI_AVEncVideoOutputScanType 10088348     strmbasd:strmiids.obj
 0003:0000835c       _CODECAPI_AVEncVideoInverseTelecineEnable 1008835c     strmbasd:strmiids.obj
 0003:00008370       _CODECAPI_AVEncVideoInverseTelecineThreshold 10088370     strmbasd:strmiids.obj
 0003:00008384       _CODECAPI_AVEncVideoSourceFilmContent 10088384     strmbasd:strmiids.obj
 0003:00008398       _CODECAPI_AVEncVideoSourceIsBW 10088398     strmbasd:strmiids.obj
 0003:000083ac       _CODECAPI_AVEncVideoFieldSwap 100883ac     strmbasd:strmiids.obj
 0003:000083c0       _CODECAPI_AVEncVideoInputChromaResolution 100883c0     strmbasd:strmiids.obj
 0003:000083d4       _CODECAPI_AVEncVideoOutputChromaResolution 100883d4     strmbasd:strmiids.obj
 0003:000083e8       _CODECAPI_AVEncVideoInputChromaSubsampling 100883e8     strmbasd:strmiids.obj
 0003:000083fc       _CODECAPI_AVEncVideoOutputChromaSubsampling 100883fc     strmbasd:strmiids.obj
 0003:00008410       _CODECAPI_AVEncVideoInputColorPrimaries 10088410     strmbasd:strmiids.obj
 0003:00008424       _CODECAPI_AVEncVideoOutputColorPrimaries 10088424     strmbasd:strmiids.obj
 0003:00008438       _CODECAPI_AVEncVideoInputColorTransferFunction 10088438     strmbasd:strmiids.obj
 0003:0000844c       _CODECAPI_AVEncVideoOutputColorTransferFunction 1008844c     strmbasd:strmiids.obj
 0003:00008460       _CODECAPI_AVEncVideoInputColorTransferMatrix 10088460     strmbasd:strmiids.obj
 0003:00008474       _CODECAPI_AVEncVideoOutputColorTransferMatrix 10088474     strmbasd:strmiids.obj
 0003:00008488       _CODECAPI_AVEncVideoInputColorLighting 10088488     strmbasd:strmiids.obj
 0003:0000849c       _CODECAPI_AVEncVideoOutputColorLighting 1008849c     strmbasd:strmiids.obj
 0003:000084b0       _CODECAPI_AVEncVideoInputColorNominalRange 100884b0     strmbasd:strmiids.obj
 0003:000084c4       _CODECAPI_AVEncVideoOutputColorNominalRange 100884c4     strmbasd:strmiids.obj
 0003:000084d8       _CODECAPI_AVEncInputVideoSystem 100884d8     strmbasd:strmiids.obj
 0003:000084ec       _CODECAPI_AVEncVideoHeaderDropFrame 100884ec     strmbasd:strmiids.obj
 0003:00008500       _CODECAPI_AVEncVideoHeaderHours 10088500     strmbasd:strmiids.obj
 0003:00008514       _CODECAPI_AVEncVideoHeaderMinutes 10088514     strmbasd:strmiids.obj
 0003:00008528       _CODECAPI_AVEncVideoHeaderSeconds 10088528     strmbasd:strmiids.obj
 0003:0000853c       _CODECAPI_AVEncVideoHeaderFrames 1008853c     strmbasd:strmiids.obj
 0003:00008550       _CODECAPI_AVEncVideoDefaultUpperFieldDominant 10088550     strmbasd:strmiids.obj
 0003:00008564       _CODECAPI_AVEncVideoCBRMotionTradeoff 10088564     strmbasd:strmiids.obj
 0003:00008578       _CODECAPI_AVEncVideoCodedVideoAccessUnitSize 10088578     strmbasd:strmiids.obj
 0003:0000858c       _CODECAPI_AVEncVideoMaxKeyframeDistance 1008858c     strmbasd:strmiids.obj
 0003:000085a0       _CODECAPI_AVEncStatVideoOutputFrameRate 100885a0     strmbasd:strmiids.obj
 0003:000085b4       _CODECAPI_AVEncStatVideoCodedFrames 100885b4     strmbasd:strmiids.obj
 0003:000085c8       _CODECAPI_AVEncStatVideoTotalFrames 100885c8     strmbasd:strmiids.obj
 0003:000085dc       _CODECAPI_AVEncAudioIntervalToEncode 100885dc     strmbasd:strmiids.obj
 0003:000085f0       _CODECAPI_AVEncAudioIntervalToSkip 100885f0     strmbasd:strmiids.obj
 0003:00008604       _CODECAPI_AVEncAudioDualMono 10088604     strmbasd:strmiids.obj
 0003:00008618       _CODECAPI_AVEncAudioMapDestChannel0 10088618     strmbasd:strmiids.obj
 0003:0000862c       _CODECAPI_AVEncAudioMapDestChannel1 1008862c     strmbasd:strmiids.obj
 0003:00008640       _CODECAPI_AVEncAudioMapDestChannel2 10088640     strmbasd:strmiids.obj
 0003:00008654       _CODECAPI_AVEncAudioMapDestChannel3 10088654     strmbasd:strmiids.obj
 0003:00008668       _CODECAPI_AVEncAudioMapDestChannel4 10088668     strmbasd:strmiids.obj
 0003:0000867c       _CODECAPI_AVEncAudioMapDestChannel5 1008867c     strmbasd:strmiids.obj
 0003:00008690       _CODECAPI_AVEncAudioMapDestChannel6 10088690     strmbasd:strmiids.obj
 0003:000086a4       _CODECAPI_AVEncAudioMapDestChannel7 100886a4     strmbasd:strmiids.obj
 0003:000086b8       _CODECAPI_AVEncAudioMapDestChannel8 100886b8     strmbasd:strmiids.obj
 0003:000086cc       _CODECAPI_AVEncAudioMapDestChannel9 100886cc     strmbasd:strmiids.obj
 0003:000086e0       _CODECAPI_AVEncAudioMapDestChannel10 100886e0     strmbasd:strmiids.obj
 0003:000086f4       _CODECAPI_AVEncAudioMapDestChannel11 100886f4     strmbasd:strmiids.obj
 0003:00008708       _CODECAPI_AVEncAudioMapDestChannel12 10088708     strmbasd:strmiids.obj
 0003:0000871c       _CODECAPI_AVEncAudioMapDestChannel13 1008871c     strmbasd:strmiids.obj
 0003:00008730       _CODECAPI_AVEncAudioMapDestChannel14 10088730     strmbasd:strmiids.obj
 0003:00008744       _CODECAPI_AVEncAudioMapDestChannel15 10088744     strmbasd:strmiids.obj
 0003:00008758       _CODECAPI_AVEncAudioInputContent 10088758     strmbasd:strmiids.obj
 0003:0000876c       _CODECAPI_AVEncStatAudioPeakPCMValue 1008876c     strmbasd:strmiids.obj
 0003:00008780       _CODECAPI_AVEncStatAudioAveragePCMValue 10088780     strmbasd:strmiids.obj
 0003:00008794       _CODECAPI_AVEncStatAudioAverageBPS 10088794     strmbasd:strmiids.obj
 0003:000087a8       _CODECAPI_AVEncMPVGOPSize  100887a8     strmbasd:strmiids.obj
 0003:000087bc       _CODECAPI_AVEncMPVGOPOpen  100887bc     strmbasd:strmiids.obj
 0003:000087d0       _CODECAPI_AVEncMPVDefaultBPictureCount 100887d0     strmbasd:strmiids.obj
 0003:000087e4       _CODECAPI_AVEncMPVProfile  100887e4     strmbasd:strmiids.obj
 0003:000087f8       _CODECAPI_AVEncMPVLevel    100887f8     strmbasd:strmiids.obj
 0003:0000880c       _CODECAPI_AVEncMPVFrameFieldMode 1008880c     strmbasd:strmiids.obj
 0003:00008820       _CODECAPI_AVEncMPVAddSeqEndCode 10088820     strmbasd:strmiids.obj
 0003:00008834       _CODECAPI_AVEncMPVGOPSInSeq 10088834     strmbasd:strmiids.obj
 0003:00008848       _CODECAPI_AVEncMPVUseConcealmentMotionVectors 10088848     strmbasd:strmiids.obj
 0003:0000885c       _CODECAPI_AVEncMPVSceneDetection 1008885c     strmbasd:strmiids.obj
 0003:00008870       _CODECAPI_AVEncMPVGenerateHeaderSeqExt 10088870     strmbasd:strmiids.obj
 0003:00008884       _CODECAPI_AVEncMPVGenerateHeaderSeqDispExt 10088884     strmbasd:strmiids.obj
 0003:00008898       _CODECAPI_AVEncMPVGenerateHeaderPicExt 10088898     strmbasd:strmiids.obj
 0003:000088ac       _CODECAPI_AVEncMPVGenerateHeaderPicDispExt 100888ac     strmbasd:strmiids.obj
 0003:000088c0       _CODECAPI_AVEncMPVGenerateHeaderSeqScaleExt 100888c0     strmbasd:strmiids.obj
 0003:000088d4       _CODECAPI_AVEncMPVScanPattern 100888d4     strmbasd:strmiids.obj
 0003:000088e8       _CODECAPI_AVEncMPVIntraDCPrecision 100888e8     strmbasd:strmiids.obj
 0003:000088fc       _CODECAPI_AVEncMPVQScaleType 100888fc     strmbasd:strmiids.obj
 0003:00008910       _CODECAPI_AVEncMPVIntraVLCTable 10088910     strmbasd:strmiids.obj
 0003:00008924       _CODECAPI_AVEncMPVQuantMatrixIntra 10088924     strmbasd:strmiids.obj
 0003:00008938       _CODECAPI_AVEncMPVQuantMatrixNonIntra 10088938     strmbasd:strmiids.obj
 0003:0000894c       _CODECAPI_AVEncMPVQuantMatrixChromaIntra 1008894c     strmbasd:strmiids.obj
 0003:00008960       _CODECAPI_AVEncMPVQuantMatrixChromaNonIntra 10088960     strmbasd:strmiids.obj
 0003:00008974       _CODECAPI_AVEncMPALayer    10088974     strmbasd:strmiids.obj
 0003:00008988       _CODECAPI_AVEncMPACodingMode 10088988     strmbasd:strmiids.obj
 0003:0000899c       _CODECAPI_AVEncMPACopyright 1008899c     strmbasd:strmiids.obj
 0003:000089b0       _CODECAPI_AVEncMPAOriginalBitstream 100889b0     strmbasd:strmiids.obj
 0003:000089c4       _CODECAPI_AVEncMPAEnableRedundancyProtection 100889c4     strmbasd:strmiids.obj
 0003:000089d8       _CODECAPI_AVEncMPAPrivateUserBit 100889d8     strmbasd:strmiids.obj
 0003:000089ec       _CODECAPI_AVEncMPAEmphasisType 100889ec     strmbasd:strmiids.obj
 0003:00008a00       _CODECAPI_AVEncDDService   10088a00     strmbasd:strmiids.obj
 0003:00008a14       _CODECAPI_AVEncDDDialogNormalization 10088a14     strmbasd:strmiids.obj
 0003:00008a28       _CODECAPI_AVEncDDCentreDownMixLevel 10088a28     strmbasd:strmiids.obj
 0003:00008a3c       _CODECAPI_AVEncDDSurroundDownMixLevel 10088a3c     strmbasd:strmiids.obj
 0003:00008a50       _CODECAPI_AVEncDDProductionInfoExists 10088a50     strmbasd:strmiids.obj
 0003:00008a64       _CODECAPI_AVEncDDProductionRoomType 10088a64     strmbasd:strmiids.obj
 0003:00008a78       _CODECAPI_AVEncDDProductionMixLevel 10088a78     strmbasd:strmiids.obj
 0003:00008a8c       _CODECAPI_AVEncDDCopyright 10088a8c     strmbasd:strmiids.obj
 0003:00008aa0       _CODECAPI_AVEncDDOriginalBitstream 10088aa0     strmbasd:strmiids.obj
 0003:00008ab4       _CODECAPI_AVEncDDDigitalDeemphasis 10088ab4     strmbasd:strmiids.obj
 0003:00008ac8       _CODECAPI_AVEncDDDCHighPassFilter 10088ac8     strmbasd:strmiids.obj
 0003:00008adc       _CODECAPI_AVEncDDChannelBWLowPassFilter 10088adc     strmbasd:strmiids.obj
 0003:00008af0       _CODECAPI_AVEncDDLFELowPassFilter 10088af0     strmbasd:strmiids.obj
 0003:00008b04       _CODECAPI_AVEncDDSurround90DegreeePhaseShift 10088b04     strmbasd:strmiids.obj
 0003:00008b18       _CODECAPI_AVEncDDSurround3dBAttenuation 10088b18     strmbasd:strmiids.obj
 0003:00008b2c       _CODECAPI_AVEncDDDynamicRangeCompressionControl 10088b2c     strmbasd:strmiids.obj
 0003:00008b40       _CODECAPI_AVEncDDRFPreEmphasisFilter 10088b40     strmbasd:strmiids.obj
 0003:00008b54       _CODECAPI_AVEncDDSurroundExMode 10088b54     strmbasd:strmiids.obj
 0003:00008b68       _CODECAPI_AVEncDDPreferredStereoDownMixMode 10088b68     strmbasd:strmiids.obj
 0003:00008b7c       _CODECAPI_AVEncDDLtRtCenterMixLvl_x10 10088b7c     strmbasd:strmiids.obj
 0003:00008b90       _CODECAPI_AVEncDDLtRtSurroundMixLvl_x10 10088b90     strmbasd:strmiids.obj
 0003:00008ba4       _CODECAPI_AVEncDDLoRoCenterMixLvl_x10 10088ba4     strmbasd:strmiids.obj
 0003:00008bb8       _CODECAPI_AVEncDDLoRoSurroundMixLvl_x10 10088bb8     strmbasd:strmiids.obj
 0003:00008bcc       _CODECAPI_AVEncDDAtoDConverterType 10088bcc     strmbasd:strmiids.obj
 0003:00008be0       _CODECAPI_AVEncDDHeadphoneMode 10088be0     strmbasd:strmiids.obj
 0003:00008bf4       _CODECAPI_AVEncWMVKeyFrameDistance 10088bf4     strmbasd:strmiids.obj
 0003:00008c08       _CODECAPI_AVEncWMVInterlacedEncoding 10088c08     strmbasd:strmiids.obj
 0003:00008c1c       _CODECAPI_AVEncWMVDecoderComplexity 10088c1c     strmbasd:strmiids.obj
 0003:00008c30       _CODECAPI_AVEncWMVKeyFrameBufferLevelMarker 10088c30     strmbasd:strmiids.obj
 0003:00008c44       _CODECAPI_AVEncWMVProduceDummyFrames 10088c44     strmbasd:strmiids.obj
 0003:00008c58       _CODECAPI_AVEncStatWMVCBAvg 10088c58     strmbasd:strmiids.obj
 0003:00008c6c       _CODECAPI_AVEncStatWMVCBMax 10088c6c     strmbasd:strmiids.obj
 0003:00008c80       _CODECAPI_AVEncStatWMVDecoderComplexityProfile 10088c80     strmbasd:strmiids.obj
 0003:00008c94       _CODECAPI_AVEncStatMPVSkippedEmptyFrames 10088c94     strmbasd:strmiids.obj
 0003:00008ca8       _CODECAPI_AVEncMP12PktzSTDBuffer 10088ca8     strmbasd:strmiids.obj
 0003:00008cbc       _CODECAPI_AVEncMP12PktzStreamID 10088cbc     strmbasd:strmiids.obj
 0003:00008cd0       _CODECAPI_AVEncMP12PktzInitialPTS 10088cd0     strmbasd:strmiids.obj
 0003:00008ce4       _CODECAPI_AVEncMP12PktzPacketSize 10088ce4     strmbasd:strmiids.obj
 0003:00008cf8       _CODECAPI_AVEncMP12PktzCopyright 10088cf8     strmbasd:strmiids.obj
 0003:00008d0c       _CODECAPI_AVEncMP12PktzOriginal 10088d0c     strmbasd:strmiids.obj
 0003:00008d20       _CODECAPI_AVEncMP12MuxPacketOverhead 10088d20     strmbasd:strmiids.obj
 0003:00008d34       _CODECAPI_AVEncMP12MuxNumStreams 10088d34     strmbasd:strmiids.obj
 0003:00008d48       _CODECAPI_AVEncMP12MuxEarliestPTS 10088d48     strmbasd:strmiids.obj
 0003:00008d5c       _CODECAPI_AVEncMP12MuxLargestPacketSize 10088d5c     strmbasd:strmiids.obj
 0003:00008d70       _CODECAPI_AVEncMP12MuxInitialSCR 10088d70     strmbasd:strmiids.obj
 0003:00008d84       _CODECAPI_AVEncMP12MuxMuxRate 10088d84     strmbasd:strmiids.obj
 0003:00008d98       _CODECAPI_AVEncMP12MuxPackSize 10088d98     strmbasd:strmiids.obj
 0003:00008dac       _CODECAPI_AVEncMP12MuxSysSTDBufferBound 10088dac     strmbasd:strmiids.obj
 0003:00008dc0       _CODECAPI_AVEncMP12MuxSysRateBound 10088dc0     strmbasd:strmiids.obj
 0003:00008dd4       _CODECAPI_AVEncMP12MuxTargetPacketizer 10088dd4     strmbasd:strmiids.obj
 0003:00008de8       _CODECAPI_AVEncMP12MuxSysFixed 10088de8     strmbasd:strmiids.obj
 0003:00008dfc       _CODECAPI_AVEncMP12MuxSysCSPS 10088dfc     strmbasd:strmiids.obj
 0003:00008e10       _CODECAPI_AVEncMP12MuxSysVideoLock 10088e10     strmbasd:strmiids.obj
 0003:00008e24       _CODECAPI_AVEncMP12MuxSysAudioLock 10088e24     strmbasd:strmiids.obj
 0003:00008e38       _CODECAPI_AVEncMP12MuxDVDNavPacks 10088e38     strmbasd:strmiids.obj
 0003:00008e4c       _CODECAPI_AVDecCommonInputFormat 10088e4c     strmbasd:strmiids.obj
 0003:00008e60       _CODECAPI_AVDecCommonOutputFormat 10088e60     strmbasd:strmiids.obj
 0003:00008e74       _CODECAPI_AVDecCommonMeanBitRate 10088e74     strmbasd:strmiids.obj
 0003:00008e88       _CODECAPI_AVDecCommonMeanBitRateInterval 10088e88     strmbasd:strmiids.obj
 0003:00008e9c       _CODECAPI_GUID_AVDecAudioOutputFormat_PCM_Stereo_MatrixEncoded 10088e9c     strmbasd:strmiids.obj
 0003:00008eb0       _CODECAPI_GUID_AVDecAudioOutputFormat_PCM 10088eb0     strmbasd:strmiids.obj
 0003:00008ec4       _CODECAPI_GUID_AVDecAudioOutputFormat_SPDIF_PCM 10088ec4     strmbasd:strmiids.obj
 0003:00008ed8       _CODECAPI_GUID_AVDecAudioOutputFormat_SPDIF_Bitstream 10088ed8     strmbasd:strmiids.obj
 0003:00008eec       _CODECAPI_GUID_AVDecAudioOutputFormat_PCM_Headphones 10088eec     strmbasd:strmiids.obj
 0003:00008f00       _CODECAPI_GUID_AVDecAudioOutputFormat_PCM_Stereo_Auto 10088f00     strmbasd:strmiids.obj
 0003:00008f14       _CODECAPI_AVDecVideoImageSize 10088f14     strmbasd:strmiids.obj
 0003:00008f28       _CODECAPI_AVDecVideoPixelAspectRatio 10088f28     strmbasd:strmiids.obj
 0003:00008f3c       _CODECAPI_AVDecVideoInputScanType 10088f3c     strmbasd:strmiids.obj
 0003:00008f50       _CODECAPI_GUID_AVDecAudioInputWMA 10088f50     strmbasd:strmiids.obj
 0003:00008f64       _CODECAPI_GUID_AVDecAudioInputWMAPro 10088f64     strmbasd:strmiids.obj
 0003:00008f78       _CODECAPI_GUID_AVDecAudioInputDolby 10088f78     strmbasd:strmiids.obj
 0003:00008f8c       _CODECAPI_GUID_AVDecAudioInputDTS 10088f8c     strmbasd:strmiids.obj
 0003:00008fa0       _CODECAPI_GUID_AVDecAudioInputPCM 10088fa0     strmbasd:strmiids.obj
 0003:00008fb4       _CODECAPI_GUID_AVDecAudioInputMPEG 10088fb4     strmbasd:strmiids.obj
 0003:00008fc8       _CODECAPI_AVDecAudioDualMono 10088fc8     strmbasd:strmiids.obj
 0003:00008fdc       _CODECAPI_AVDecAudioDualMonoReproMode 10088fdc     strmbasd:strmiids.obj
 0003:00008ff0       _CODECAPI_AVAudioChannelCount 10088ff0     strmbasd:strmiids.obj
 0003:00009004       _CODECAPI_AVAudioChannelConfig 10089004     strmbasd:strmiids.obj
 0003:00009018       _CODECAPI_AVAudioSampleRate 10089018     strmbasd:strmiids.obj
 0003:0000902c       _CODECAPI_AVDDSurroundMode 1008902c     strmbasd:strmiids.obj
 0003:00009040       _CODECAPI_AVDecDDOperationalMode 10089040     strmbasd:strmiids.obj
 0003:00009054       _CODECAPI_AVDecDDMatrixDecodingMode 10089054     strmbasd:strmiids.obj
 0003:00009068       _CODECAPI_AVDecDDDynamicRangeScaleHigh 10089068     strmbasd:strmiids.obj
 0003:0000907c       _CODECAPI_AVDecDDDynamicRangeScaleLow 1008907c     strmbasd:strmiids.obj
 0003:00009090       _CODECAPI_AVDecMmcssClass  10089090     strmbasd:strmiids.obj
 0003:000090a4       _LIBID_QuartzTypeLib       100890a4     strmbasd:strmiids.obj
 0003:000090b8       _IID_IAMCollection         100890b8     strmbasd:strmiids.obj
 0003:000090cc       _IID_IMediaControl         100890cc     strmbasd:strmiids.obj
 0003:000090e0       _IID_IMediaEvent           100890e0     strmbasd:strmiids.obj
 0003:000090f4       _IID_IMediaEventEx         100890f4     strmbasd:strmiids.obj
 0003:00009108       _IID_IMediaPosition        10089108     strmbasd:strmiids.obj
 0003:0000911c       _IID_IBasicAudio           1008911c     strmbasd:strmiids.obj
 0003:00009130       _IID_IVideoWindow          10089130     strmbasd:strmiids.obj
 0003:00009144       _IID_IBasicVideo           10089144     strmbasd:strmiids.obj
 0003:00009158       _IID_IBasicVideo2          10089158     strmbasd:strmiids.obj
 0003:0000916c       _IID_IDeferredCommand      1008916c     strmbasd:strmiids.obj
 0003:00009180       _IID_IQueueCommand         10089180     strmbasd:strmiids.obj
 0003:00009194       _CLSID_FilgraphManager     10089194     strmbasd:strmiids.obj
 0003:000091a8       _IID_IFilterInfo           100891a8     strmbasd:strmiids.obj
 0003:000091bc       _IID_IRegFilterInfo        100891bc     strmbasd:strmiids.obj
 0003:000091d0       _IID_IMediaTypeInfo        100891d0     strmbasd:strmiids.obj
 0003:000091e4       _IID_IPinInfo              100891e4     strmbasd:strmiids.obj
 0003:000091f8       _IID_IAMStats              100891f8     strmbasd:strmiids.obj
 0003:0000920c       _MR_VIDEO_RENDER_SERVICE   1008920c     strmbasd:strmiids.obj
 0003:00009220       _MR_VIDEO_MIXER_SERVICE    10089220     strmbasd:strmiids.obj
 0003:00009234       _IID_IBitBltVideoDevice    10089234     strmbasd:strmiids.obj
 0003:00009248       _MR_VIDEO_ACCELERATION_SERVICE 10089248     strmbasd:strmiids.obj
 0003:0000925c       _MR_BUFFER_SERVICE         1008925c     strmbasd:strmiids.obj
 0003:00009270       _VIDEO_ZOOM_RECT           10089270     strmbasd:strmiids.obj
 0003:00009284       _IID_IAMMultiMediaStream   10089284     strmbasd:strmiids.obj
 0003:00009298       _IID_IAMMediaStream        10089298     strmbasd:strmiids.obj
 0003:000092ac       _IID_IMediaStreamFilter    100892ac     strmbasd:strmiids.obj
 0003:000092c0       _IID_IDirectDrawMediaSampleAllocator 100892c0     strmbasd:strmiids.obj
 0003:000092d4       _IID_IDirectDrawMediaSample 100892d4     strmbasd:strmiids.obj
 0003:000092e8       _IID_IAMMediaTypeStream    100892e8     strmbasd:strmiids.obj
 0003:000092fc       _IID_IAMMediaTypeSample    100892fc     strmbasd:strmiids.obj
 0003:00009310       _IID_IAudioMediaStream     10089310     strmbasd:strmiids.obj
 0003:00009324       _IID_IAudioStreamSample    10089324     strmbasd:strmiids.obj
 0003:00009338       _IID_IMemoryData           10089338     strmbasd:strmiids.obj
 0003:0000934c       _IID_IAudioData            1008934c     strmbasd:strmiids.obj
 0003:00009360       _IID_IDirectDrawMediaStream 10089360     strmbasd:strmiids.obj
 0003:00009374       _IID_IDirectDrawStreamSample 10089374     strmbasd:strmiids.obj
 0003:00009388       _IID_IMultiMediaStream     10089388     strmbasd:strmiids.obj
 0003:0000939c       _IID_IMediaStream          1008939c     strmbasd:strmiids.obj
 0003:000093b0       _IID_IStreamSample         100893b0     strmbasd:strmiids.obj
 0003:000093c4       _IID_IPropertySetter       100893c4     strmbasd:strmiids.obj
 0003:000093d8       _IID_IDxtCompositor        100893d8     strmbasd:strmiids.obj
 0003:000093ec       _IID_IDxtAlphaSetter       100893ec     strmbasd:strmiids.obj
 0003:00009400       _IID_IDxtJpeg              10089400     strmbasd:strmiids.obj
 0003:00009414       _IID_IDxtKey               10089414     strmbasd:strmiids.obj
 0003:00009428       _IID_IMediaLocator         10089428     strmbasd:strmiids.obj
 0003:0000943c       _IID_IMediaDet             1008943c     strmbasd:strmiids.obj
 0003:00009450       _IID_IGrfCache             10089450     strmbasd:strmiids.obj
 0003:00009464       _IID_IRenderEngine         10089464     strmbasd:strmiids.obj
 0003:00009478       _IID_IRenderEngine2        10089478     strmbasd:strmiids.obj
 0003:0000948c       _IID_IFindCompressorCB     1008948c     strmbasd:strmiids.obj
 0003:000094a0       _IID_ISmartRenderEngine    100894a0     strmbasd:strmiids.obj
 0003:000094b4       _IID_IAMTimelineObj        100894b4     strmbasd:strmiids.obj
 0003:000094c8       _IID_IAMTimelineEffectable 100894c8     strmbasd:strmiids.obj
 0003:000094dc       _IID_IAMTimelineEffect     100894dc     strmbasd:strmiids.obj
 0003:000094f0       _IID_IAMTimelineTransable  100894f0     strmbasd:strmiids.obj
 0003:00009504       _IID_IAMTimelineSplittable 10089504     strmbasd:strmiids.obj
 0003:00009518       _IID_IAMTimelineTrans      10089518     strmbasd:strmiids.obj
 0003:0000952c       _IID_IAMTimelineSrc        1008952c     strmbasd:strmiids.obj
 0003:00009540       _IID_IAMTimelineTrack      10089540     strmbasd:strmiids.obj
 0003:00009554       _IID_IAMTimelineVirtualTrack 10089554     strmbasd:strmiids.obj
 0003:00009568       _IID_IAMTimelineComp       10089568     strmbasd:strmiids.obj
 0003:0000957c       _IID_IAMTimelineGroup      1008957c     strmbasd:strmiids.obj
 0003:00009590       _IID_IAMTimeline           10089590     strmbasd:strmiids.obj
 0003:000095a4       _IID_IXml2Dex              100895a4     strmbasd:strmiids.obj
 0003:000095b8       _IID_IAMErrorLog           100895b8     strmbasd:strmiids.obj
 0003:000095cc       _IID_IAMSetErrorLog        100895cc     strmbasd:strmiids.obj
 0003:000095e0       _IID_ISampleGrabberCB      100895e0     strmbasd:strmiids.obj
 0003:000095f4       _IID_ISampleGrabber        100895f4     strmbasd:strmiids.obj
 0003:00009608       _LIBID_DexterLib           10089608     strmbasd:strmiids.obj
 0003:0000961c       _IID_IResize               1008961c     strmbasd:strmiids.obj
 0003:00009630       _CLSID_AMTimeline          10089630     strmbasd:strmiids.obj
 0003:00009644       _CLSID_AMTimelineObj       10089644     strmbasd:strmiids.obj
 0003:00009658       _CLSID_AMTimelineSrc       10089658     strmbasd:strmiids.obj
 0003:0000966c       _CLSID_AMTimelineTrack     1008966c     strmbasd:strmiids.obj
 0003:00009680       _CLSID_AMTimelineComp      10089680     strmbasd:strmiids.obj
 0003:00009694       _CLSID_AMTimelineGroup     10089694     strmbasd:strmiids.obj
 0003:000096a8       _CLSID_AMTimelineTrans     100896a8     strmbasd:strmiids.obj
 0003:000096bc       _CLSID_AMTimelineEffect    100896bc     strmbasd:strmiids.obj
 0003:000096d0       _CLSID_RenderEngine        100896d0     strmbasd:strmiids.obj
 0003:000096e4       _CLSID_SmartRenderEngine   100896e4     strmbasd:strmiids.obj
 0003:000096f8       _CLSID_AudMixer            100896f8     strmbasd:strmiids.obj
 0003:0000970c       _CLSID_Xml2Dex             1008970c     strmbasd:strmiids.obj
 0003:00009720       _CLSID_MediaLocator        10089720     strmbasd:strmiids.obj
 0003:00009734       _CLSID_PropertySetter      10089734     strmbasd:strmiids.obj
 0003:00009748       _CLSID_MediaDet            10089748     strmbasd:strmiids.obj
 0003:0000975c       _CLSID_SampleGrabber       1008975c     strmbasd:strmiids.obj
 0003:00009770       _CLSID_NullRenderer        10089770     strmbasd:strmiids.obj
 0003:00009784       _CLSID_DxtCompositor       10089784     strmbasd:strmiids.obj
 0003:00009798       _CLSID_DxtAlphaSetter      10089798     strmbasd:strmiids.obj
 0003:000097ac       _CLSID_DxtJpeg             100897ac     strmbasd:strmiids.obj
 0003:000097c0       _CLSID_ColorSource         100897c0     strmbasd:strmiids.obj
 0003:000097d4       _CLSID_DxtKey              100897d4     strmbasd:strmiids.obj
 0003:000097e8       _IID_ICreateDevEnum        100897e8     strmbasd:strmiids.obj
 0003:000097fc       _IID_IPin                  100897fc     strmbasd:strmiids.obj
 0003:00009810       _IID_IEnumPins             10089810     strmbasd:strmiids.obj
 0003:00009824       _IID_IEnumMediaTypes       10089824     strmbasd:strmiids.obj
 0003:00009838       _IID_IFilterGraph          10089838     strmbasd:strmiids.obj
 0003:0000984c       _IID_IEnumFilters          1008984c     strmbasd:strmiids.obj
 0003:00009860       _IID_IMediaFilter          10089860     strmbasd:strmiids.obj
 0003:00009874       _IID_IBaseFilter           10089874     strmbasd:strmiids.obj
 0003:00009888       _IID_IReferenceClock       10089888     strmbasd:strmiids.obj
 0003:0000989c       _IID_IReferenceClockTimerControl 1008989c     strmbasd:strmiids.obj
 0003:000098b0       _IID_IReferenceClock2      100898b0     strmbasd:strmiids.obj
 0003:000098c4       _IID_IMediaSample          100898c4     strmbasd:strmiids.obj
 0003:000098d8       _IID_IMediaSample2         100898d8     strmbasd:strmiids.obj
 0003:000098ec       _IID_IMediaSample2Config   100898ec     strmbasd:strmiids.obj
 0003:00009900       _IID_IMemAllocator         10089900     strmbasd:strmiids.obj
 0003:00009914       _IID_IMemAllocatorCallbackTemp 10089914     strmbasd:strmiids.obj
 0003:00009928       _IID_IMemAllocatorNotifyCallbackTemp 10089928     strmbasd:strmiids.obj
 0003:0000993c       _IID_IMemInputPin          1008993c     strmbasd:strmiids.obj
 0003:00009950       _IID_IAMovieSetup          10089950     strmbasd:strmiids.obj
 0003:00009964       _IID_IMediaSeeking         10089964     strmbasd:strmiids.obj
 0003:00009978       _IID_IEnumRegFilters       10089978     strmbasd:strmiids.obj
 0003:0000998c       _IID_IFilterMapper         1008998c     strmbasd:strmiids.obj
 0003:000099a0       _IID_IFilterMapper2        100899a0     strmbasd:strmiids.obj
 0003:000099b4       _IID_IFilterMapper3        100899b4     strmbasd:strmiids.obj
 0003:000099c8       _IID_IQualityControl       100899c8     strmbasd:strmiids.obj
 0003:000099dc       _IID_IOverlayNotify        100899dc     strmbasd:strmiids.obj
 0003:000099f0       _IID_IOverlayNotify2       100899f0     strmbasd:strmiids.obj
 0003:00009a04       _IID_IOverlay              10089a04     strmbasd:strmiids.obj
 0003:00009a18       _IID_IMediaEventSink       10089a18     strmbasd:strmiids.obj
 0003:00009a2c       _IID_IFileSourceFilter     10089a2c     strmbasd:strmiids.obj
 0003:00009a40       _IID_IFileSinkFilter       10089a40     strmbasd:strmiids.obj
 0003:00009a54       _IID_IFileSinkFilter2      10089a54     strmbasd:strmiids.obj
 0003:00009a68       _IID_IGraphBuilder         10089a68     strmbasd:strmiids.obj
 0003:00009a7c       _IID_ICaptureGraphBuilder  10089a7c     strmbasd:strmiids.obj
 0003:00009a90       _IID_IAMCopyCaptureFileProgress 10089a90     strmbasd:strmiids.obj
 0003:00009aa4       _IID_ICaptureGraphBuilder2 10089aa4     strmbasd:strmiids.obj
 0003:00009ab8       _IID_IFilterGraph2         10089ab8     strmbasd:strmiids.obj
 0003:00009acc       _IID_IFilterGraph3         10089acc     strmbasd:strmiids.obj
 0003:00009ae0       _IID_IStreamBuilder        10089ae0     strmbasd:strmiids.obj
 0003:00009af4       _IID_IAsyncReader          10089af4     strmbasd:strmiids.obj
 0003:00009b08       _IID_IGraphVersion         10089b08     strmbasd:strmiids.obj
 0003:00009b1c       _IID_IResourceConsumer     10089b1c     strmbasd:strmiids.obj
 0003:00009b30       _IID_IResourceManager      10089b30     strmbasd:strmiids.obj
 0003:00009b44       _IID_IDistributorNotify    10089b44     strmbasd:strmiids.obj
 0003:00009b58       _IID_IAMStreamControl      10089b58     strmbasd:strmiids.obj
 0003:00009b6c       _IID_ISeekingPassThru      10089b6c     strmbasd:strmiids.obj
 0003:00009b80       _IID_IAMStreamConfig       10089b80     strmbasd:strmiids.obj
 0003:00009b94       _IID_IConfigInterleaving   10089b94     strmbasd:strmiids.obj
 0003:00009ba8       _IID_IConfigAviMux         10089ba8     strmbasd:strmiids.obj
 0003:00009bbc       _IID_IAMVideoCompression   10089bbc     strmbasd:strmiids.obj
 0003:00009bd0       _IID_IAMVfwCaptureDialogs  10089bd0     strmbasd:strmiids.obj
 0003:00009be4       _IID_IAMVfwCompressDialogs 10089be4     strmbasd:strmiids.obj
 0003:00009bf8       _IID_IAMDroppedFrames      10089bf8     strmbasd:strmiids.obj
 0003:00009c0c       _IID_IAMAudioInputMixer    10089c0c     strmbasd:strmiids.obj
 0003:00009c20       _IID_IAMBufferNegotiation  10089c20     strmbasd:strmiids.obj
 0003:00009c34       _IID_IAMAnalogVideoDecoder 10089c34     strmbasd:strmiids.obj
 0003:00009c48       _IID_IAMVideoProcAmp       10089c48     strmbasd:strmiids.obj
 0003:00009c5c       _IID_IAMCameraControl      10089c5c     strmbasd:strmiids.obj
 0003:00009c70       _IID_IAMVideoControl       10089c70     strmbasd:strmiids.obj
 0003:00009c84       _IID_IAMCrossbar           10089c84     strmbasd:strmiids.obj
 0003:00009c98       _IID_IAMTuner              10089c98     strmbasd:strmiids.obj
 0003:00009cac       _IID_IAMTunerNotification  10089cac     strmbasd:strmiids.obj
 0003:00009cc0       _IID_IAMTVTuner            10089cc0     strmbasd:strmiids.obj
 0003:00009cd4       _IID_IBPCSatelliteTuner    10089cd4     strmbasd:strmiids.obj
 0003:00009ce8       _IID_IAMTVAudio            10089ce8     strmbasd:strmiids.obj
 0003:00009cfc       _IID_IAMTVAudioNotification 10089cfc     strmbasd:strmiids.obj
 0003:00009d10       _IID_IAMAnalogVideoEncoder 10089d10     strmbasd:strmiids.obj
 0003:00009d24       _IID_IKsPropertySet        10089d24     strmbasd:strmiids.obj
 0003:00009d38       _IID_IMediaPropertyBag     10089d38     strmbasd:strmiids.obj
 0003:00009d4c       _IID_IPersistMediaPropertyBag 10089d4c     strmbasd:strmiids.obj
 0003:00009d60       _IID_IAMPhysicalPinInfo    10089d60     strmbasd:strmiids.obj
 0003:00009d74       _IID_IAMExtDevice          10089d74     strmbasd:strmiids.obj
 0003:00009d88       _IID_IAMExtTransport       10089d88     strmbasd:strmiids.obj
 0003:00009d9c       _IID_IAMTimecodeReader     10089d9c     strmbasd:strmiids.obj
 0003:00009db0       _IID_IAMTimecodeGenerator  10089db0     strmbasd:strmiids.obj
 0003:00009dc4       _IID_IAMTimecodeDisplay    10089dc4     strmbasd:strmiids.obj
 0003:00009dd8       _IID_IAMDevMemoryAllocator 10089dd8     strmbasd:strmiids.obj
 0003:00009dec       _IID_IAMDevMemoryControl   10089dec     strmbasd:strmiids.obj
 0003:00009e00       _IID_IAMStreamSelect       10089e00     strmbasd:strmiids.obj
 0003:00009e14       _IID_IAMResourceControl    10089e14     strmbasd:strmiids.obj
 0003:00009e28       _IID_IAMClockAdjust        10089e28     strmbasd:strmiids.obj
 0003:00009e3c       _IID_IAMFilterMiscFlags    10089e3c     strmbasd:strmiids.obj
 0003:00009e50       _IID_IDrawVideoImage       10089e50     strmbasd:strmiids.obj
 0003:00009e64       _IID_IDecimateVideoImage   10089e64     strmbasd:strmiids.obj
 0003:00009e78       _IID_IAMVideoDecimationProperties 10089e78     strmbasd:strmiids.obj
 0003:00009e8c       _IID_IVideoFrameStep       10089e8c     strmbasd:strmiids.obj
 0003:00009ea0       _IID_IAMLatency            10089ea0     strmbasd:strmiids.obj
 0003:00009eb4       _IID_IAMPushSource         10089eb4     strmbasd:strmiids.obj
 0003:00009ec8       _IID_IAMDeviceRemoval      10089ec8     strmbasd:strmiids.obj
 0003:00009edc       _IID_IDVEnc                10089edc     strmbasd:strmiids.obj
 0003:00009ef0       _IID_IIPDVDec              10089ef0     strmbasd:strmiids.obj
 0003:00009f04       _IID_IDVRGB219             10089f04     strmbasd:strmiids.obj
 0003:00009f18       _IID_IDVSplitter           10089f18     strmbasd:strmiids.obj
 0003:00009f2c       _IID_IAMAudioRendererStats 10089f2c     strmbasd:strmiids.obj
 0003:00009f40       _IID_IAMGraphStreams       10089f40     strmbasd:strmiids.obj
 0003:00009f54       _IID_IAMOverlayFX          10089f54     strmbasd:strmiids.obj
 0003:00009f68       _IID_IAMOpenProgress       10089f68     strmbasd:strmiids.obj
 0003:00009f7c       _IID_IMpeg2Demultiplexer   10089f7c     strmbasd:strmiids.obj
 0003:00009f90       _IID_IEnumStreamIdMap      10089f90     strmbasd:strmiids.obj
 0003:00009fa4       _IID_IMPEG2StreamIdMap     10089fa4     strmbasd:strmiids.obj
 0003:00009fb8       _IID_IRegisterServiceProvider 10089fb8     strmbasd:strmiids.obj
 0003:00009fcc       _IID_IAMClockSlave         10089fcc     strmbasd:strmiids.obj
 0003:00009fe0       _IID_IAMGraphBuilderCallback 10089fe0     strmbasd:strmiids.obj
 0003:00009ff4       _IID_ICodecAPI             10089ff4     strmbasd:strmiids.obj
 0003:0000a008       _IID_IGetCapabilitiesKey   1008a008     strmbasd:strmiids.obj
 0003:0000a01c       _IID_IEncoderAPI           1008a01c     strmbasd:strmiids.obj
 0003:0000a030       _IID_IVideoEncoder         1008a030     strmbasd:strmiids.obj
 0003:0000a044       _IID_IAMDecoderCaps        1008a044     strmbasd:strmiids.obj
 0003:0000a058       _IID_IAMCertifiedOutputProtection 1008a058     strmbasd:strmiids.obj
 0003:0000a06c       _IID_IDvdControl           1008a06c     strmbasd:strmiids.obj
 0003:0000a080       _IID_IDvdInfo              1008a080     strmbasd:strmiids.obj
 0003:0000a094       _IID_IDvdCmd               1008a094     strmbasd:strmiids.obj
 0003:0000a0a8       _IID_IDvdState             1008a0a8     strmbasd:strmiids.obj
 0003:0000a0bc       _IID_IDvdControl2          1008a0bc     strmbasd:strmiids.obj
 0003:0000a0d0       _IID_IDvdInfo2             1008a0d0     strmbasd:strmiids.obj
 0003:0000a0e4       _IID_IDvdGraphBuilder      1008a0e4     strmbasd:strmiids.obj
 0003:0000a0f8       _IID_IDDrawExclModeVideo   1008a0f8     strmbasd:strmiids.obj
 0003:0000a10c       _IID_IDDrawExclModeVideoCallback 1008a10c     strmbasd:strmiids.obj
 0003:0000a120       _IID_IPinConnection        1008a120     strmbasd:strmiids.obj
 0003:0000a134       _IID_IPinFlowControl       1008a134     strmbasd:strmiids.obj
 0003:0000a148       _IID_IGraphConfig          1008a148     strmbasd:strmiids.obj
 0003:0000a15c       _IID_IGraphConfigCallback  1008a15c     strmbasd:strmiids.obj
 0003:0000a170       _IID_IFilterChain          1008a170     strmbasd:strmiids.obj
 0003:0000a184       _IID_IVMRImagePresenter    1008a184     strmbasd:strmiids.obj
 0003:0000a198       _IID_IVMRSurfaceAllocator  1008a198     strmbasd:strmiids.obj
 0003:0000a1ac       _IID_IVMRSurfaceAllocatorNotify 1008a1ac     strmbasd:strmiids.obj
 0003:0000a1c0       _IID_IVMRWindowlessControl 1008a1c0     strmbasd:strmiids.obj
 0003:0000a1d4       _IID_IVMRMixerControl      1008a1d4     strmbasd:strmiids.obj
 0003:0000a1e8       _IID_IVMRMonitorConfig     1008a1e8     strmbasd:strmiids.obj
 0003:0000a1fc       _IID_IVMRFilterConfig      1008a1fc     strmbasd:strmiids.obj
 0003:0000a210       _IID_IVMRAspectRatioControl 1008a210     strmbasd:strmiids.obj
 0003:0000a224       _IID_IVMRDeinterlaceControl 1008a224     strmbasd:strmiids.obj
 0003:0000a238       _IID_IVMRMixerBitmap       1008a238     strmbasd:strmiids.obj
 0003:0000a24c       _IID_IVMRImageCompositor   1008a24c     strmbasd:strmiids.obj
 0003:0000a260       _IID_IVMRVideoStreamControl 1008a260     strmbasd:strmiids.obj
 0003:0000a274       _IID_IVMRSurface           1008a274     strmbasd:strmiids.obj
 0003:0000a288       _IID_IVMRImagePresenterConfig 1008a288     strmbasd:strmiids.obj
 0003:0000a29c       _IID_IVMRImagePresenterExclModeConfig 1008a29c     strmbasd:strmiids.obj
 0003:0000a2b0       _IID_IVPManager            1008a2b0     strmbasd:strmiids.obj
 0003:0000a2c4       _IID_ICreatePropBagOnRegKey 1008a2c4     strmbasd:strmiids.obj
 0003:0000a2d8       _IID_ITuningSpaces         1008a2d8     strmbasd:strmiids.obj
 0003:0000a2ec       _IID_ITuningSpaceContainer 1008a2ec     strmbasd:strmiids.obj
 0003:0000a300       _IID_ITuningSpace          1008a300     strmbasd:strmiids.obj
 0003:0000a314       _IID_IEnumTuningSpaces     1008a314     strmbasd:strmiids.obj
 0003:0000a328       _IID_IDVBTuningSpace       1008a328     strmbasd:strmiids.obj
 0003:0000a33c       _IID_IDVBTuningSpace2      1008a33c     strmbasd:strmiids.obj
 0003:0000a350       _IID_IDVBSTuningSpace      1008a350     strmbasd:strmiids.obj
 0003:0000a364       _IID_IAuxInTuningSpace     1008a364     strmbasd:strmiids.obj
 0003:0000a378       _IID_IAuxInTuningSpace2    1008a378     strmbasd:strmiids.obj
 0003:0000a38c       _IID_IAnalogTVTuningSpace  1008a38c     strmbasd:strmiids.obj
 0003:0000a3a0       _IID_IATSCTuningSpace      1008a3a0     strmbasd:strmiids.obj
 0003:0000a3b4       _IID_IDigitalCableTuningSpace 1008a3b4     strmbasd:strmiids.obj
 0003:0000a3c8       _IID_IAnalogRadioTuningSpace 1008a3c8     strmbasd:strmiids.obj
 0003:0000a3dc       _IID_IAnalogRadioTuningSpace2 1008a3dc     strmbasd:strmiids.obj
 0003:0000a3f0       _IID_ITuneRequest          1008a3f0     strmbasd:strmiids.obj
 0003:0000a404       _IID_IChannelTuneRequest   1008a404     strmbasd:strmiids.obj
 0003:0000a418       _IID_IATSCChannelTuneRequest 1008a418     strmbasd:strmiids.obj
 0003:0000a42c       _IID_IDigitalCableTuneRequest 1008a42c     strmbasd:strmiids.obj
 0003:0000a440       _IID_IDVBTuneRequest       1008a440     strmbasd:strmiids.obj
 0003:0000a454       _IID_IMPEG2TuneRequest     1008a454     strmbasd:strmiids.obj
 0003:0000a468       _IID_IMPEG2TuneRequestFactory 1008a468     strmbasd:strmiids.obj
 0003:0000a47c       _IID_IMPEG2TuneRequestSupport 1008a47c     strmbasd:strmiids.obj
 0003:0000a490       _IID_ITunerCap             1008a490     strmbasd:strmiids.obj
 0003:0000a4a4       _IID_ITuner                1008a4a4     strmbasd:strmiids.obj
 0003:0000a4b8       _IID_IScanningTuner        1008a4b8     strmbasd:strmiids.obj
 0003:0000a4cc       _IID_IScanningTunerEx      1008a4cc     strmbasd:strmiids.obj
 0003:0000a4e0       _IID_IComponentType        1008a4e0     strmbasd:strmiids.obj
 0003:0000a4f4       _IID_ILanguageComponentType 1008a4f4     strmbasd:strmiids.obj
 0003:0000a508       _IID_IMPEG2ComponentType   1008a508     strmbasd:strmiids.obj
 0003:0000a51c       _IID_IATSCComponentType    1008a51c     strmbasd:strmiids.obj
 0003:0000a530       _IID_IEnumComponentTypes   1008a530     strmbasd:strmiids.obj
 0003:0000a544       _IID_IComponentTypes       1008a544     strmbasd:strmiids.obj
 0003:0000a558       _IID_IComponent            1008a558     strmbasd:strmiids.obj
 0003:0000a56c       _IID_IAnalogAudioComponentType 1008a56c     strmbasd:strmiids.obj
 0003:0000a580       _IID_IMPEG2Component       1008a580     strmbasd:strmiids.obj
 0003:0000a594       _IID_IEnumComponents       1008a594     strmbasd:strmiids.obj
 0003:0000a5a8       _IID_IComponents           1008a5a8     strmbasd:strmiids.obj
 0003:0000a5bc       _IID_IComponentsOld        1008a5bc     strmbasd:strmiids.obj
 0003:0000a5d0       _IID_ILocator              1008a5d0     strmbasd:strmiids.obj
 0003:0000a5e4       _IID_IAnalogLocator        1008a5e4     strmbasd:strmiids.obj
 0003:0000a5f8       _IID_IDigitalLocator       1008a5f8     strmbasd:strmiids.obj
 0003:0000a60c       _IID_IATSCLocator          1008a60c     strmbasd:strmiids.obj
 0003:0000a620       _IID_IATSCLocator2         1008a620     strmbasd:strmiids.obj
 0003:0000a634       _IID_IDigitalCableLocator  1008a634     strmbasd:strmiids.obj
 0003:0000a648       _IID_IDVBTLocator          1008a648     strmbasd:strmiids.obj
 0003:0000a65c       _IID_IDVBSLocator          1008a65c     strmbasd:strmiids.obj
 0003:0000a670       _IID_IDVBCLocator          1008a670     strmbasd:strmiids.obj
 0003:0000a684       _IID_IBroadcastEvent       1008a684     strmbasd:strmiids.obj
 0003:0000a698       _IID_IBroadcastEventEx     1008a698     strmbasd:strmiids.obj
 0003:0000a6ac       _IID_IRegisterTuner        1008a6ac     strmbasd:strmiids.obj
 0003:0000a6c0       _IID_IBDAComparable        1008a6c0     strmbasd:strmiids.obj
 0003:0000a6d4       _LIBID_TunerLib            1008a6d4     strmbasd:strmiids.obj
 0003:0000a6e8       _CLSID_SystemTuningSpaces  1008a6e8     strmbasd:strmiids.obj
 0003:0000a6fc       _CLSID_TuningSpace         1008a6fc     strmbasd:strmiids.obj
 0003:0000a710       _CLSID_ATSCTuningSpace     1008a710     strmbasd:strmiids.obj
 0003:0000a724       _CLSID_DigitalCableTuningSpace 1008a724     strmbasd:strmiids.obj
 0003:0000a738       _CLSID_AnalogRadioTuningSpace 1008a738     strmbasd:strmiids.obj
 0003:0000a74c       _CLSID_AuxInTuningSpace    1008a74c     strmbasd:strmiids.obj
 0003:0000a760       _CLSID_AnalogTVTuningSpace 1008a760     strmbasd:strmiids.obj
 0003:0000a774       _CLSID_DVBTuningSpace      1008a774     strmbasd:strmiids.obj
 0003:0000a788       _CLSID_DVBSTuningSpace     1008a788     strmbasd:strmiids.obj
 0003:0000a79c       _CLSID_ComponentTypes      1008a79c     strmbasd:strmiids.obj
 0003:0000a7b0       _CLSID_ComponentType       1008a7b0     strmbasd:strmiids.obj
 0003:0000a7c4       _CLSID_LanguageComponentType 1008a7c4     strmbasd:strmiids.obj
 0003:0000a7d8       _CLSID_MPEG2ComponentType  1008a7d8     strmbasd:strmiids.obj
 0003:0000a7ec       _CLSID_ATSCComponentType   1008a7ec     strmbasd:strmiids.obj
 0003:0000a800       _CLSID_Components          1008a800     strmbasd:strmiids.obj
 0003:0000a814       _CLSID_Component           1008a814     strmbasd:strmiids.obj
 0003:0000a828       _CLSID_MPEG2Component      1008a828     strmbasd:strmiids.obj
 0003:0000a83c       _CLSID_AnalogAudioComponentType 1008a83c     strmbasd:strmiids.obj
 0003:0000a850       _CLSID_TuneRequest         1008a850     strmbasd:strmiids.obj
 0003:0000a864       _CLSID_ChannelTuneRequest  1008a864     strmbasd:strmiids.obj
 0003:0000a878       _CLSID_ATSCChannelTuneRequest 1008a878     strmbasd:strmiids.obj
 0003:0000a88c       _CLSID_DigitalCableTuneRequest 1008a88c     strmbasd:strmiids.obj
 0003:0000a8a0       _CLSID_MPEG2TuneRequest    1008a8a0     strmbasd:strmiids.obj
 0003:0000a8b4       _CLSID_MPEG2TuneRequestFactory 1008a8b4     strmbasd:strmiids.obj
 0003:0000a8c8       _CLSID_Locator             1008a8c8     strmbasd:strmiids.obj
 0003:0000a8dc       _CLSID_DigitalLocator      1008a8dc     strmbasd:strmiids.obj
 0003:0000a8f0       _CLSID_AnalogLocator       1008a8f0     strmbasd:strmiids.obj
 0003:0000a904       _CLSID_ATSCLocator         1008a904     strmbasd:strmiids.obj
 0003:0000a918       _CLSID_DigitalCableLocator 1008a918     strmbasd:strmiids.obj
 0003:0000a92c       _CLSID_DVBTLocator         1008a92c     strmbasd:strmiids.obj
 0003:0000a940       _CLSID_DVBSLocator         1008a940     strmbasd:strmiids.obj
 0003:0000a954       _CLSID_DVBCLocator         1008a954     strmbasd:strmiids.obj
 0003:0000a968       _CLSID_DVBTuneRequest      1008a968     strmbasd:strmiids.obj
 0003:0000a97c       _CLSID_CreatePropBagOnRegKey 1008a97c     strmbasd:strmiids.obj
 0003:0000a990       _CLSID_BroadcastEventService 1008a990     strmbasd:strmiids.obj
 0003:0000a9a4       _CLSID_TunerMarshaler      1008a9a4     strmbasd:strmiids.obj
 0003:0000a9b8       _IID_IMSVidRect            1008a9b8     strmbasd:strmiids.obj
 0003:0000a9cc       _IID_IMSVidGraphSegmentContainer 1008a9cc     strmbasd:strmiids.obj
 0003:0000a9e0       _IID_IMSVidGraphSegment    1008a9e0     strmbasd:strmiids.obj
 0003:0000a9f4       _IID_IMSVidGraphSegmentUserInput 1008a9f4     strmbasd:strmiids.obj
 0003:0000aa08       _IID_IMSVidCompositionSegment 1008aa08     strmbasd:strmiids.obj
 0003:0000aa1c       _IID_IEnumMSVidGraphSegment 1008aa1c     strmbasd:strmiids.obj
 0003:0000aa30       _IID_IMSVidVRGraphSegment  1008aa30     strmbasd:strmiids.obj
 0003:0000aa44       _IID_IMSVidDevice          1008aa44     strmbasd:strmiids.obj
 0003:0000aa58       _IID_IMSVidDevice2         1008aa58     strmbasd:strmiids.obj
 0003:0000aa6c       _IID_IMSVidInputDevice     1008aa6c     strmbasd:strmiids.obj
 0003:0000aa80       _IID_IMSVidDeviceEvent     1008aa80     strmbasd:strmiids.obj
 0003:0000aa94       _IID_IMSVidInputDeviceEvent 1008aa94     strmbasd:strmiids.obj
 0003:0000aaa8       _IID_IMSVidVideoInputDevice 1008aaa8     strmbasd:strmiids.obj
 0003:0000aabc       _IID_IMSVidPlayback        1008aabc     strmbasd:strmiids.obj
 0003:0000aad0       _IID_IMSVidPlaybackEvent   1008aad0     strmbasd:strmiids.obj
 0003:0000aae4       _IID_IMSVidTuner           1008aae4     strmbasd:strmiids.obj
 0003:0000aaf8       _IID_IMSVidTunerEvent      1008aaf8     strmbasd:strmiids.obj
 0003:0000ab0c       _IID_IMSVidAnalogTuner     1008ab0c     strmbasd:strmiids.obj
 0003:0000ab20       _IID_IMSVidAnalogTuner2    1008ab20     strmbasd:strmiids.obj
 0003:0000ab34       _IID_IMSVidAnalogTunerEvent 1008ab34     strmbasd:strmiids.obj
 0003:0000ab48       _IID_IMSVidFilePlayback    1008ab48     strmbasd:strmiids.obj
 0003:0000ab5c       _IID_IMSVidFilePlayback2   1008ab5c     strmbasd:strmiids.obj
 0003:0000ab70       _IID_IMSVidFilePlaybackEvent 1008ab70     strmbasd:strmiids.obj
 0003:0000ab84       _IID_IMSVidWebDVD          1008ab84     strmbasd:strmiids.obj
 0003:0000ab98       _IID_IMSVidWebDVDEvent     1008ab98     strmbasd:strmiids.obj
 0003:0000abac       _IID_IMSVidWebDVDAdm       1008abac     strmbasd:strmiids.obj
 0003:0000abc0       _IID_IMSVidOutputDevice    1008abc0     strmbasd:strmiids.obj
 0003:0000abd4       _IID_IMSVidOutputDeviceEvent 1008abd4     strmbasd:strmiids.obj
 0003:0000abe8       _IID_IMSVidFeature         1008abe8     strmbasd:strmiids.obj
 0003:0000abfc       _IID_IMSVidFeatureEvent    1008abfc     strmbasd:strmiids.obj
 0003:0000ac10       _IID_IMSVidEncoder         1008ac10     strmbasd:strmiids.obj
 0003:0000ac24       _IID_IMSVidXDS             1008ac24     strmbasd:strmiids.obj
 0003:0000ac38       _IID_IMSVidXDSEvent        1008ac38     strmbasd:strmiids.obj
 0003:0000ac4c       _IID_IMSVidDataServices    1008ac4c     strmbasd:strmiids.obj
 0003:0000ac60       _IID_IMSVidDataServicesEvent 1008ac60     strmbasd:strmiids.obj
 0003:0000ac74       _IID_IMSVidClosedCaptioning 1008ac74     strmbasd:strmiids.obj
 0003:0000ac88       _IID_IMSVidClosedCaptioning2 1008ac88     strmbasd:strmiids.obj
 0003:0000ac9c       _IID_IMSVidClosedCaptioning3 1008ac9c     strmbasd:strmiids.obj
 0003:0000acb0       _IID_IMSVidVideoRenderer   1008acb0     strmbasd:strmiids.obj
 0003:0000acc4       _IID_IMSVidVideoRendererEvent 1008acc4     strmbasd:strmiids.obj
 0003:0000acd8       _IID_IMSVidGenericSink     1008acd8     strmbasd:strmiids.obj
 0003:0000acec       _IID_IMSVidGenericSink2    1008acec     strmbasd:strmiids.obj
 0003:0000ad00       _IID_IMSVidStreamBufferRecordingControl 1008ad00     strmbasd:strmiids.obj
 0003:0000ad14       _IID_IMSVidStreamBufferSink 1008ad14     strmbasd:strmiids.obj
 0003:0000ad28       _IID_IMSVidStreamBufferSink2 1008ad28     strmbasd:strmiids.obj
 0003:0000ad3c       _IID_IMSVidStreamBufferSink3 1008ad3c     strmbasd:strmiids.obj
 0003:0000ad50       _IID_IMSVidStreamBufferSinkEvent 1008ad50     strmbasd:strmiids.obj
 0003:0000ad64       _IID_IMSVidStreamBufferSinkEvent2 1008ad64     strmbasd:strmiids.obj
 0003:0000ad78       _IID_IMSVidStreamBufferSinkEvent3 1008ad78     strmbasd:strmiids.obj
 0003:0000ad8c       _IID_IMSVidStreamBufferSource 1008ad8c     strmbasd:strmiids.obj
 0003:0000ada0       _IID_IMSVidStreamBufferSource2 1008ada0     strmbasd:strmiids.obj
 0003:0000adb4       _IID_IMSVidStreamBufferSourceEvent 1008adb4     strmbasd:strmiids.obj
 0003:0000adc8       _IID_IMSVidStreamBufferSourceEvent2 1008adc8     strmbasd:strmiids.obj
 0003:0000addc       _IID_IMSVidStreamBufferSourceEvent3 1008addc     strmbasd:strmiids.obj
 0003:0000adf0       _IID_IMSVidVideoRenderer2  1008adf0     strmbasd:strmiids.obj
 0003:0000ae04       _IID_IMSVidVideoRendererEvent2 1008ae04     strmbasd:strmiids.obj
 0003:0000ae18       _IID_IMSVidVMR9            1008ae18     strmbasd:strmiids.obj
 0003:0000ae2c       _IID_IMSVidEVR             1008ae2c     strmbasd:strmiids.obj
 0003:0000ae40       _IID_IMSVidEVREvent        1008ae40     strmbasd:strmiids.obj
 0003:0000ae54       _IID_IMSVidAudioRenderer   1008ae54     strmbasd:strmiids.obj
 0003:0000ae68       _IID_IMSVidAudioRendererEvent 1008ae68     strmbasd:strmiids.obj
 0003:0000ae7c       _IID_IMSVidInputDevices    1008ae7c     strmbasd:strmiids.obj
 0003:0000ae90       _IID_IMSVidOutputDevices   1008ae90     strmbasd:strmiids.obj
 0003:0000aea4       _IID_IMSVidVideoRendererDevices 1008aea4     strmbasd:strmiids.obj
 0003:0000aeb8       _IID_IMSVidAudioRendererDevices 1008aeb8     strmbasd:strmiids.obj
 0003:0000aecc       _IID_IMSVidFeatures        1008aecc     strmbasd:strmiids.obj
 0003:0000aee0       _IID_IMSVidCtl             1008aee0     strmbasd:strmiids.obj
 0003:0000aef4       _IID_IMSEventBinder        1008aef4     strmbasd:strmiids.obj
 0003:0000af08       _LIBID_MSVidCtlLib         1008af08     strmbasd:strmiids.obj
 0003:0000af1c       _DIID__IMSVidCtlEvents     1008af1c     strmbasd:strmiids.obj
 0003:0000af30       _CLSID_MSVidAnalogTunerDevice 1008af30     strmbasd:strmiids.obj
 0003:0000af44       _CLSID_MSVidBDATunerDevice 1008af44     strmbasd:strmiids.obj
 0003:0000af58       _CLSID_MSVidFilePlaybackDevice 1008af58     strmbasd:strmiids.obj
 0003:0000af6c       _CLSID_MSVidWebDVD         1008af6c     strmbasd:strmiids.obj
 0003:0000af80       _CLSID_MSVidWebDVDAdm      1008af80     strmbasd:strmiids.obj
 0003:0000af94       _CLSID_MSVidVideoRenderer  1008af94     strmbasd:strmiids.obj
 0003:0000afa8       _CLSID_MSVidVMR9           1008afa8     strmbasd:strmiids.obj
 0003:0000afbc       _CLSID_MSVidEVR            1008afbc     strmbasd:strmiids.obj
 0003:0000afd0       _CLSID_MSVidAudioRenderer  1008afd0     strmbasd:strmiids.obj
 0003:0000afe4       _CLSID_MSVidGenericSink    1008afe4     strmbasd:strmiids.obj
 0003:0000aff8       _CLSID_MSVidStreamBufferSink 1008aff8     strmbasd:strmiids.obj
 0003:0000b00c       _CLSID_MSVidStreamBufferSource 1008b00c     strmbasd:strmiids.obj
 0003:0000b020       _CLSID_MSVidDataServices   1008b020     strmbasd:strmiids.obj
 0003:0000b034       _CLSID_MSVidEncoder        1008b034     strmbasd:strmiids.obj
 0003:0000b048       _CLSID_MSVidXDS            1008b048     strmbasd:strmiids.obj
 0003:0000b05c       _CLSID_MSVidClosedCaptioning 1008b05c     strmbasd:strmiids.obj
 0003:0000b070       _CLSID_MSVidClosedCaptioningSI 1008b070     strmbasd:strmiids.obj
 0003:0000b084       _CLSID_MSVidCtl            1008b084     strmbasd:strmiids.obj
 0003:0000b098       _CLSID_MSVidInputDevices   1008b098     strmbasd:strmiids.obj
 0003:0000b0ac       _CLSID_MSVidOutputDevices  1008b0ac     strmbasd:strmiids.obj
 0003:0000b0c0       _CLSID_MSVidVideoRendererDevices 1008b0c0     strmbasd:strmiids.obj
 0003:0000b0d4       _CLSID_MSVidAudioRendererDevices 1008b0d4     strmbasd:strmiids.obj
 0003:0000b0e8       _CLSID_MSVidFeatures       1008b0e8     strmbasd:strmiids.obj
 0003:0000b0fc       _CLSID_MSVidGenericComposite 1008b0fc     strmbasd:strmiids.obj
 0003:0000b110       _CLSID_MSVidAnalogCaptureToOverlayMixer 1008b110     strmbasd:strmiids.obj
 0003:0000b124       _CLSID_MSVidAnalogCaptureToDataServices 1008b124     strmbasd:strmiids.obj
 0003:0000b138       _CLSID_MSVidWebDVDToVideoRenderer 1008b138     strmbasd:strmiids.obj
 0003:0000b14c       _CLSID_MSVidWebDVDToAudioRenderer 1008b14c     strmbasd:strmiids.obj
 0003:0000b160       _CLSID_MSVidMPEG2DecoderToClosedCaptioning 1008b160     strmbasd:strmiids.obj
 0003:0000b174       _CLSID_MSVidAnalogCaptureToStreamBufferSink 1008b174     strmbasd:strmiids.obj
 0003:0000b188       _CLSID_MSVidDigitalCaptureToStreamBufferSink 1008b188     strmbasd:strmiids.obj
 0003:0000b19c       _CLSID_MSVidDataServicesToStreamBufferSink 1008b19c     strmbasd:strmiids.obj
 0003:0000b1b0       _CLSID_MSVidDataServicesToXDS 1008b1b0     strmbasd:strmiids.obj
 0003:0000b1c4       _CLSID_MSVidEncoderToStreamBufferSink 1008b1c4     strmbasd:strmiids.obj
 0003:0000b1d8       _CLSID_MSVidFilePlaybackToVideoRenderer 1008b1d8     strmbasd:strmiids.obj
 0003:0000b1ec       _CLSID_MSVidFilePlaybackToAudioRenderer 1008b1ec     strmbasd:strmiids.obj
 0003:0000b200       _CLSID_MSVidAnalogTVToEncoder 1008b200     strmbasd:strmiids.obj
 0003:0000b214       _CLSID_MSVidStreamBufferSourceToVideoRenderer 1008b214     strmbasd:strmiids.obj
 0003:0000b228       _CLSID_MSVidAnalogCaptureToXDS 1008b228     strmbasd:strmiids.obj
 0003:0000b23c       _CLSID_MSVidSBESourceToCC  1008b23c     strmbasd:strmiids.obj
 0003:0000b250       _CLSID_MSVidSBESourceToGenericSink 1008b250     strmbasd:strmiids.obj
 0003:0000b264       _CLSID_MSVidCCToVMR        1008b264     strmbasd:strmiids.obj
 0003:0000b278       _CLSID_MSVidCCToAR         1008b278     strmbasd:strmiids.obj
 0003:0000b28c       _CLSID_MSEventBinder       1008b28c     strmbasd:strmiids.obj
 0003:0000b2a0       _CLSID_MSVidStreamBufferRecordingControl 1008b2a0     strmbasd:strmiids.obj
 0003:0000b2b4       _CLSID_MSVidRect           1008b2b4     strmbasd:strmiids.obj
 0003:0000b2c8       _CLSID_MSVidDevice         1008b2c8     strmbasd:strmiids.obj
 0003:0000b2dc       _CLSID_MSVidDevice2        1008b2dc     strmbasd:strmiids.obj
 0003:0000b2f0       _CLSID_MSVidInputDevice    1008b2f0     strmbasd:strmiids.obj
 0003:0000b304       _CLSID_MSVidVideoInputDevice 1008b304     strmbasd:strmiids.obj
 0003:0000b318       _CLSID_MSVidVideoPlaybackDevice 1008b318     strmbasd:strmiids.obj
 0003:0000b32c       _CLSID_MSVidFeature        1008b32c     strmbasd:strmiids.obj
 0003:0000b340       _CLSID_MSVidOutput         1008b340     strmbasd:strmiids.obj
 0003:0000b354       _IID_IBDA_NetworkProvider  1008b354     strmbasd:strmiids.obj
 0003:0000b368       _IID_IBDA_EthernetFilter   1008b368     strmbasd:strmiids.obj
 0003:0000b37c       _IID_IBDA_IPV4Filter       1008b37c     strmbasd:strmiids.obj
 0003:0000b390       _IID_IBDA_IPV6Filter       1008b390     strmbasd:strmiids.obj
 0003:0000b3a4       _IID_IBDA_DeviceControl    1008b3a4     strmbasd:strmiids.obj
 0003:0000b3b8       _IID_IBDA_PinControl       1008b3b8     strmbasd:strmiids.obj
 0003:0000b3cc       _IID_IBDA_SignalProperties 1008b3cc     strmbasd:strmiids.obj
 0003:0000b3e0       _IID_IBDA_SignalStatistics 1008b3e0     strmbasd:strmiids.obj
 0003:0000b3f4       _IID_IBDA_Topology         1008b3f4     strmbasd:strmiids.obj
 0003:0000b408       _IID_IBDA_VoidTransform    1008b408     strmbasd:strmiids.obj
 0003:0000b41c       _IID_IBDA_NullTransform    1008b41c     strmbasd:strmiids.obj
 0003:0000b430       _IID_IBDA_FrequencyFilter  1008b430     strmbasd:strmiids.obj
 0003:0000b444       _IID_IBDA_LNBInfo          1008b444     strmbasd:strmiids.obj
 0003:0000b458       _IID_IBDA_AutoDemodulate   1008b458     strmbasd:strmiids.obj
 0003:0000b46c       _IID_IBDA_AutoDemodulateEx 1008b46c     strmbasd:strmiids.obj
 0003:0000b480       _IID_IBDA_DigitalDemodulator 1008b480     strmbasd:strmiids.obj
 0003:0000b494       _IID_ICCSubStreamFiltering 1008b494     strmbasd:strmiids.obj
 0003:0000b4a8       _IID_IBDA_IPSinkControl    1008b4a8     strmbasd:strmiids.obj
 0003:0000b4bc       _IID_IBDA_IPSinkInfo       1008b4bc     strmbasd:strmiids.obj
 0003:0000b4d0       _IID_IEnumPIDMap           1008b4d0     strmbasd:strmiids.obj
 0003:0000b4e4       _IID_IMPEG2PIDMap          1008b4e4     strmbasd:strmiids.obj
 0003:0000b4f8       _IID_IFrequencyMap         1008b4f8     strmbasd:strmiids.obj
 0003:0000b50c       _IID_IBDA_EasMessage       1008b50c     strmbasd:strmiids.obj
 0003:0000b520       _IID_IBDA_TransportStreamInfo 1008b520     strmbasd:strmiids.obj
 0003:0000b534       _IID_IBDA_ConditionalAccess 1008b534     strmbasd:strmiids.obj
 0003:0000b548       _IID_IBDA_DiagnosticProperties 1008b548     strmbasd:strmiids.obj
 0003:0000b55c       _IID_IBDA_DRM              1008b55c     strmbasd:strmiids.obj
 0003:0000b570       _IID_IBDA_TIF_REGISTRATION 1008b570     strmbasd:strmiids.obj
 0003:0000b584       _IID_IMPEG2_TIF_CONTROL    1008b584     strmbasd:strmiids.obj
 0003:0000b598       _IID_ITuneRequestInfo      1008b598     strmbasd:strmiids.obj
 0003:0000b5ac       _IID_IGuideDataEvent       1008b5ac     strmbasd:strmiids.obj
 0003:0000b5c0       _IID_IGuideDataProperty    1008b5c0     strmbasd:strmiids.obj
 0003:0000b5d4       _IID_IEnumGuideDataProperties 1008b5d4     strmbasd:strmiids.obj
 0003:0000b5e8       _IID_IEnumTuneRequests     1008b5e8     strmbasd:strmiids.obj
 0003:0000b5fc       _IID_IGuideData            1008b5fc     strmbasd:strmiids.obj
 0003:0000b610       _IID_IGuideDataLoader      1008b610     strmbasd:strmiids.obj
 0003:0000b624       _LIBID_PSISLOADLib         1008b624     strmbasd:strmiids.obj
 0003:0000b638       _CLSID_TIFLoad             1008b638     strmbasd:strmiids.obj
 0003:0000b64c       _IID_IStreamBufferInitialize 1008b64c     strmbasd:strmiids.obj
 0003:0000b660       _IID_IStreamBufferSink     1008b660     strmbasd:strmiids.obj
 0003:0000b674       _IID_IStreamBufferSink2    1008b674     strmbasd:strmiids.obj
 0003:0000b688       _IID_IStreamBufferSink3    1008b688     strmbasd:strmiids.obj
 0003:0000b69c       _IID_IStreamBufferSource   1008b69c     strmbasd:strmiids.obj
 0003:0000b6b0       _IID_IStreamBufferRecordControl 1008b6b0     strmbasd:strmiids.obj
 0003:0000b6c4       _IID_IStreamBufferRecComp  1008b6c4     strmbasd:strmiids.obj
 0003:0000b6d8       _IID_IStreamBufferRecordingAttribute 1008b6d8     strmbasd:strmiids.obj
 0003:0000b6ec       _IID_IEnumStreamBufferRecordingAttrib 1008b6ec     strmbasd:strmiids.obj
 0003:0000b700       _IID_IStreamBufferConfigure 1008b700     strmbasd:strmiids.obj
 0003:0000b714       _IID_IStreamBufferConfigure2 1008b714     strmbasd:strmiids.obj
 0003:0000b728       _IID_IStreamBufferConfigure3 1008b728     strmbasd:strmiids.obj
 0003:0000b73c       _IID_IStreamBufferMediaSeeking 1008b73c     strmbasd:strmiids.obj
 0003:0000b750       _IID_IStreamBufferMediaSeeking2 1008b750     strmbasd:strmiids.obj
 0003:0000b764       _IID_IStreamBufferDataCounters 1008b764     strmbasd:strmiids.obj
 0003:0000b778       _IID_IAttributeSet         1008b778     strmbasd:strmiids.obj
 0003:0000b78c       _IID_IAttributeGet         1008b78c     strmbasd:strmiids.obj
 0003:0000b7a0       _IID_IAMVideoAcceleratorNotify 1008b7a0     strmbasd:strmiids.obj
 0003:0000b7b4       _IID_IAMVideoAccelerator   1008b7b4     strmbasd:strmiids.obj
 0003:0000b7c8       _IID_IXDSToRat             1008b7c8     strmbasd:strmiids.obj
 0003:0000b7dc       _IID_IEvalRat              1008b7dc     strmbasd:strmiids.obj
 0003:0000b7f0       _LIBID_TVRATINGSLib        1008b7f0     strmbasd:strmiids.obj
 0003:0000b804       _CLSID_XDSToRat            1008b804     strmbasd:strmiids.obj
 0003:0000b818       _CLSID_EvalRat             1008b818     strmbasd:strmiids.obj
 0003:0000b82c       _IID_IETFilterConfig       1008b82c     strmbasd:strmiids.obj
 0003:0000b840       _IID_IDTFilterConfig       1008b840     strmbasd:strmiids.obj
 0003:0000b854       _IID_IXDSCodecConfig       1008b854     strmbasd:strmiids.obj
 0003:0000b868       _IID_IDTFilterBlockedOverlay 1008b868     strmbasd:strmiids.obj
 0003:0000b87c       _LIBID_EncDec              1008b87c     strmbasd:strmiids.obj
 0003:0000b890       _IID_IETFilter             1008b890     strmbasd:strmiids.obj
 0003:0000b8a4       _DIID_IETFilterEvents      1008b8a4     strmbasd:strmiids.obj
 0003:0000b8b8       _CLSID_ETFilter            1008b8b8     strmbasd:strmiids.obj
 0003:0000b8cc       _IID_IDTFilter             1008b8cc     strmbasd:strmiids.obj
 0003:0000b8e0       _IID_IDTFilter2            1008b8e0     strmbasd:strmiids.obj
 0003:0000b8f4       _IID_IDTFilter3            1008b8f4     strmbasd:strmiids.obj
 0003:0000b908       _DIID_IDTFilterEvents      1008b908     strmbasd:strmiids.obj
 0003:0000b91c       _CLSID_DTFilter            1008b91c     strmbasd:strmiids.obj
 0003:0000b930       _IID_IXDSCodec             1008b930     strmbasd:strmiids.obj
 0003:0000b944       _DIID_IXDSCodecEvents      1008b944     strmbasd:strmiids.obj
 0003:0000b958       _CLSID_XDSCodec            1008b958     strmbasd:strmiids.obj
 0003:0000b96c       _CLSID_CXDSData            1008b96c     strmbasd:strmiids.obj
 0003:0000b980       _IID_IMixerOCXNotify       1008b980     strmbasd:strmiids.obj
 0003:0000b994       _IID_IMixerOCX             1008b994     strmbasd:strmiids.obj
 0003:0000b9a8       _IID_IVMRImagePresenter9   1008b9a8     strmbasd:strmiids.obj
 0003:0000b9bc       _IID_IVMRSurfaceAllocator9 1008b9bc     strmbasd:strmiids.obj
 0003:0000b9d0       _IID_IVMRSurfaceAllocatorEx9 1008b9d0     strmbasd:strmiids.obj
 0003:0000b9e4       _IID_IVMRSurfaceAllocatorNotify9 1008b9e4     strmbasd:strmiids.obj
 0003:0000b9f8       _IID_IVMRWindowlessControl9 1008b9f8     strmbasd:strmiids.obj
 0003:0000ba0c       _IID_IVMRMixerControl9     1008ba0c     strmbasd:strmiids.obj
 0003:0000ba20       _IID_IVMRMixerBitmap9      1008ba20     strmbasd:strmiids.obj
 0003:0000ba34       _IID_IVMRSurface9          1008ba34     strmbasd:strmiids.obj
 0003:0000ba48       _IID_IVMRImagePresenterConfig9 1008ba48     strmbasd:strmiids.obj
 0003:0000ba5c       _IID_IVMRVideoStreamControl9 1008ba5c     strmbasd:strmiids.obj
 0003:0000ba70       _IID_IVMRFilterConfig9     1008ba70     strmbasd:strmiids.obj
 0003:0000ba84       _IID_IVMRAspectRatioControl9 1008ba84     strmbasd:strmiids.obj
 0003:0000ba98       _IID_IVMRMonitorConfig9    1008ba98     strmbasd:strmiids.obj
 0003:0000baac       _IID_IVMRDeinterlaceControl9 1008baac     strmbasd:strmiids.obj
 0003:0000bac0       _IID_IVMRImageCompositor9  1008bac0     strmbasd:strmiids.obj
 0003:0000bad4       _IID_IMFVideoPositionMapper 1008bad4     strmbasd:strmiids.obj
 0003:0000bae8       _IID_IMFVideoDeviceID      1008bae8     strmbasd:strmiids.obj
 0003:0000bafc       _IID_IMFVideoDisplayControl 1008bafc     strmbasd:strmiids.obj
 0003:0000bb10       _IID_IMFVideoPresenter     1008bb10     strmbasd:strmiids.obj
 0003:0000bb24       _IID_IMFDesiredSample      1008bb24     strmbasd:strmiids.obj
 0003:0000bb38       _IID_IMFTrackedSample      1008bb38     strmbasd:strmiids.obj
 0003:0000bb4c       _IID_IMFVideoMixerControl  1008bb4c     strmbasd:strmiids.obj
 0003:0000bb60       _IID_IMFVideoRenderer      1008bb60     strmbasd:strmiids.obj
 0003:0000bb74       _IID_IEVRFilterConfig      1008bb74     strmbasd:strmiids.obj
 0003:0000bb88       _IID_IMFTopologyServiceLookup 1008bb88     strmbasd:strmiids.obj
 0003:0000bb9c       _IID_IMFTopologyServiceLookupClient 1008bb9c     strmbasd:strmiids.obj
 0003:0000bbb0       _IID_IEVRTrustedVideoPlugin 1008bbb0     strmbasd:strmiids.obj
 0003:0000bbc4       _IID_IEVRVideoStreamControl 1008bbc4     strmbasd:strmiids.obj
 0003:0000bbd8       _IID_IMFVideoProcessor     1008bbd8     strmbasd:strmiids.obj
 0003:0000bbec       _IID_IMFVideoMixerBitmap   1008bbec     strmbasd:strmiids.obj
 0003:0000bc00       _IID_ITeletextServer       1008bc00     strmbasd:strmiids.obj
 0003:0000bc14       _IID_IHeaderAdvise         1008bc14     strmbasd:strmiids.obj
 0003:0000bc28       _IID_IPageAdvise           1008bc28     strmbasd:strmiids.obj
 0003:0000bc3c       _IID_ISearchAdvise         1008bc3c     strmbasd:strmiids.obj
 0003:0000bc50       _IID_IStationAdvise        1008bc50     strmbasd:strmiids.obj
 0003:0000bc64       _IID_IServiceDataAdvise    1008bc64     strmbasd:strmiids.obj
 0003:0000bc78       _IID_ITeletextSurrogate    1008bc78     strmbasd:strmiids.obj
 0003:0000bc8c       _IID_ISpecialAdvise        1008bc8c     strmbasd:strmiids.obj
 0003:0000bca0       _IID_IDirectPageAdvise     1008bca0     strmbasd:strmiids.obj
 0003:0000bcb4       _IID_IPageSieve            1008bcb4     strmbasd:strmiids.obj
 0003:0000bcc8       _IID_IExternalStationChange 1008bcc8     strmbasd:strmiids.obj
 0003:0000bcdc       _IID_ITvStationTunerNotify 1008bcdc     strmbasd:strmiids.obj
 0003:0000bcf0       _IID_ITvStationTuner       1008bcf0     strmbasd:strmiids.obj
 0003:0000bd04       _IID_IWDMTunerBridge       1008bd04     strmbasd:strmiids.obj
 0003:0000bd18       _IID_ITvStationAutoTune    1008bd18     strmbasd:strmiids.obj
 0003:0000bd2c       _IID_ITvStationAutoTuneNotify 1008bd2c     strmbasd:strmiids.obj
 0003:0000bd40       _IID_IWorldStandardTeletextNotify 1008bd40     strmbasd:strmiids.obj
 0003:0000bd54       _IID_IWorldStandardTeletext 1008bd54     strmbasd:strmiids.obj
 0003:0000bd68       _IID_IVBICodecConfig       1008bd68     strmbasd:strmiids.obj
 0003:0000bd7c       _LIBID_GENESISTELETEXTSERVERLib 1008bd7c     strmbasd:strmiids.obj
 0003:0000bd90       _CLSID_WSTPager            1008bd90     strmbasd:strmiids.obj
 0003:0000bda4       _CLSID_GenesisTeletextServer 1008bda4     strmbasd:strmiids.obj
 0003:0000bdb8       _CLSID_HeaderAdvise        1008bdb8     strmbasd:strmiids.obj
 0003:0000bdcc       _CLSID_PageAdvise          1008bdcc     strmbasd:strmiids.obj
 0003:0000bde0       _CLSID_SearchAdvise        1008bde0     strmbasd:strmiids.obj
 0003:0000bdf4       _CLSID_StationAdvise       1008bdf4     strmbasd:strmiids.obj
 0003:0000be08       _CLSID_ServiceDataAdvise   1008be08     strmbasd:strmiids.obj
 0003:0000be1c       _CLSID_GenesisTeletextSurrogate 1008be1c     strmbasd:strmiids.obj
 0003:0000be30       _CLSID_SpecialAdvise       1008be30     strmbasd:strmiids.obj
 0003:0000be44       _CLSID_DirectPageAdvise    1008be44     strmbasd:strmiids.obj
 0003:0000be58       _CLSID_VbiCodec            1008be58     strmbasd:strmiids.obj
 0003:0000be6c       _IID_IMpeg2TableFilter     1008be6c     strmbasd:strmiids.obj
 0003:0000be80       _LIBID_Mpeg2DataLib        1008be80     strmbasd:strmiids.obj
 0003:0000be94       _IID_IMpeg2Data            1008be94     strmbasd:strmiids.obj
 0003:0000bea8       _IID_ISectionList          1008bea8     strmbasd:strmiids.obj
 0003:0000bebc       _IID_IMpeg2Stream          1008bebc     strmbasd:strmiids.obj
 0003:0000bed0       _CLSID_SectionList         1008bed0     strmbasd:strmiids.obj
 0003:0000bee4       _CLSID_Mpeg2Stream         1008bee4     strmbasd:strmiids.obj
 0003:0000bef8       _CLSID_Mpeg2Data           1008bef8     strmbasd:strmiids.obj
 0003:0000bf0c       ??_C@_0BJ@JGMCJBP@CODECAPI_AVDecMmcssClass?$AA@ 1008bf0c     strmbasd:wxdebug.obj
 0003:0000bf2c       ??_C@_0CB@GMOHLPIL@CLSID_IVideoEncoderCodecAPIProxy@ 1008bf2c     strmbasd:wxdebug.obj
 0003:0000bf54       ??_C@_0BF@JNOKKMKH@CLSID_ICodecAPIProxy?$AA@ 1008bf54     strmbasd:wxdebug.obj
 0003:0000bf70       ??_C@_0BJ@CDICGILJ@CLSID_IVideoEncoderProxy?$AA@ 1008bf70     strmbasd:wxdebug.obj
 0003:0000bf90       ??_C@_0BP@PAHJMFOM@CLSID_TVEFilterStatsProperties?$AA@ 1008bf90     strmbasd:wxdebug.obj
 0003:0000bfb8       ??_C@_0BM@MPCGMBDE@CLSID_TVEFilterCCProperties?$AA@ 1008bfb8     strmbasd:wxdebug.obj
 0003:0000bfdc       ??_C@_0BO@LGNPBJFN@CLSID_TVEFilterTuneProperties?$AA@ 1008bfdc     strmbasd:wxdebug.obj
 0003:0000c000       ??_C@_0BF@PBAHICDE@CLSID_DShowTVEFilter?$AA@ 1008c000     strmbasd:wxdebug.obj
 0003:0000c01c       ??_C@_0BG@EHELDCDF@DSATTRIB_PicSampleSeq?$AA@ 1008c01c     strmbasd:wxdebug.obj
 0003:0000c038       ??_C@_0BB@HGOBLPPL@DSATTRIB_UDCRTag?$AA@ 1008c038     strmbasd:wxdebug.obj
 0003:0000c04c       ??_C@_0BK@CIAKPPDD@CLSID_DVBCNetworkProvider?$AA@ 1008c04c     strmbasd:wxdebug.obj
 0003:0000c06c       ??_C@_0BK@BPMJBKAF@CLSID_DVBTNetworkProvider?$AA@ 1008c06c     strmbasd:wxdebug.obj
 0003:0000c08c       ??_C@_0BK@DPFLGGEO@CLSID_DVBSNetworkProvider?$AA@ 1008c08c     strmbasd:wxdebug.obj
 0003:0000c0ac       ??_C@_0BO@DMDNOEGO@CLSID_ATSCNetworkPropertyPage?$AA@ 1008c0ac     strmbasd:wxdebug.obj
 0003:0000c0d0       ??_C@_0BK@LGMFMDCE@CLSID_ATSCNetworkProvider?$AA@ 1008c0d0     strmbasd:wxdebug.obj
 0003:0000c0f0       ??_C@_0BG@GCDJOHHJ@CLSID_NetworkProvider?$AA@ 1008c0f0     strmbasd:wxdebug.obj
 0003:0000c10c       ??_C@_0CC@PIIMJNNO@CLSID_EVRTearlessWindowPresenter@ 1008c10c     strmbasd:wxdebug.obj
 0003:0000c134       ??_C@_0BI@JJKCDHAN@CLSID_MFVideoPresenter9?$AA@ 1008c134     strmbasd:wxdebug.obj
 0003:0000c150       ??_C@_0BE@OHPHGDOL@CLSID_MFVideoMixer9?$AA@ 1008c150     strmbasd:wxdebug.obj
 0003:0000c168       ??_C@_0BM@NLCLMAGC@CLSID_EnhancedVideoRenderer?$AA@ 1008c168     strmbasd:wxdebug.obj
 0003:0000c18c       ??_C@_0BL@JIHKHOID@CLSID_VideoMixingRenderer9?$AA@ 1008c18c     strmbasd:wxdebug.obj
 0003:0000c1ac       ??_C@_0BH@KCKBBAPB@CLSID_VideoPortManager?$AA@ 1008c1ac     strmbasd:wxdebug.obj
 0003:0000c1c8       ??_C@_0BO@GLJNDIMJ@CLSID_AllocPresenterDDXclMode?$AA@ 1008c1c8     strmbasd:wxdebug.obj
 0003:0000c1ec       ??_C@_0BF@DJINBJEP@CLSID_AllocPresenter?$AA@ 1008c1ec     strmbasd:wxdebug.obj
 0003:0000c208       ??_C@_0BL@OMMAOBGC@CLSID_VideoRendererDefault?$AA@ 1008c208     strmbasd:wxdebug.obj
 0003:0000c228       ??_C@_0BK@PHFLLHEK@CLSID_VideoMixingRenderer?$AA@ 1008c228     strmbasd:wxdebug.obj
 0003:0000c248       ??_C@_0CG@DAFAILNO@CLSID_AudioRendererAdvancedPrope@ 1008c248     strmbasd:wxdebug.obj
 0003:0000c278       ??_C@_0CE@LOAFEFHN@CLSID_VideoStreamConfigPropertyP@ 1008c278     strmbasd:wxdebug.obj
 0003:0000c2a4       ??_C@_0CF@EPKPNIEJ@CLSID_AnalogVideoDecoderProperty@ 1008c2a4     strmbasd:wxdebug.obj
 0003:0000c2d0       ??_C@_0CA@LDJDFFLD@CLSID_CameraControlPropertyPage?$AA@ 1008c2d0     strmbasd:wxdebug.obj
 0003:0000c2f8       ??_C@_0BP@IHPKIJLF@CLSID_VideoProcAmpPropertyPage?$AA@ 1008c2f8     strmbasd:wxdebug.obj
 0003:0000c320       ??_C@_0CA@OFOFAECH@CLSID_TVAudioFilterPropertyPage?$AA@ 1008c320     strmbasd:wxdebug.obj
 0003:0000c348       ??_C@_0CB@MACANLLA@CLSID_CrossbarFilterPropertyPage@ 1008c348     strmbasd:wxdebug.obj
 0003:0000c370       ??_C@_0CA@IECCMPKH@CLSID_TVTunerFilterPropertyPage?$AA@ 1008c370     strmbasd:wxdebug.obj
 0003:0000c398       ??_C@_0BF@LEHLMKLA@LOOK_DOWNSTREAM_ONLY?$AA@ 1008c398     strmbasd:wxdebug.obj
 0003:0000c3b4       ??_C@_0BD@HPFCAIDP@LOOK_UPSTREAM_ONLY?$AA@ 1008c3b4     strmbasd:wxdebug.obj
 0003:0000c3cc       ??_C@_0BL@JHNICBJB@PIN_CATEGORY_VIDEOPORT_VBI?$AA@ 1008c3cc     strmbasd:wxdebug.obj
 0003:0000c3ec       ??_C@_0BG@EEDFFJJB@PIN_CATEGORY_TIMECODE?$AA@ 1008c3ec     strmbasd:wxdebug.obj
 0003:0000c408       ??_C@_0BD@NCGKBJMN@PIN_CATEGORY_STILL?$AA@ 1008c408     strmbasd:wxdebug.obj
 0003:0000c420       ??_C@_0BA@GIDFGJDF@PIN_CATEGORY_CC?$AA@ 1008c420     strmbasd:wxdebug.obj
 0003:0000c434       ??_C@_0BG@EOHFJFJI@PIN_CATEGORY_TELETEXT?$AA@ 1008c434     strmbasd:wxdebug.obj
 0003:0000c450       ??_C@_0BB@OHGJLGIE@PIN_CATEGORY_EDS?$AA@ 1008c450     strmbasd:wxdebug.obj
 0003:0000c464       ??_C@_0BD@MNEMGLCN@PIN_CATEGORY_NABTS?$AA@ 1008c464     strmbasd:wxdebug.obj
 0003:0000c47c       ??_C@_0BH@BJDLDHBB@PIN_CATEGORY_VIDEOPORT?$AA@ 1008c47c     strmbasd:wxdebug.obj
 0003:0000c498       ??_C@_0BB@BBGFMIJM@PIN_CATEGORY_VBI?$AA@ 1008c498     strmbasd:wxdebug.obj
 0003:0000c4ac       ??_C@_0BL@IDDFNJPH@PIN_CATEGORY_ANALOGVIDEOIN?$AA@ 1008c4ac     strmbasd:wxdebug.obj
 0003:0000c4cc       ??_C@_0BF@BOIHNKKC@PIN_CATEGORY_PREVIEW?$AA@ 1008c4cc     strmbasd:wxdebug.obj
 0003:0000c4e8       ??_C@_0BF@OIAMIHHA@PIN_CATEGORY_CAPTURE?$AA@ 1008c4e8     strmbasd:wxdebug.obj
 0003:0000c504       ??_C@_0BA@EOBFHJGD@AMPROPSETID_Pin?$AA@ 1008c504     strmbasd:wxdebug.obj
 0003:0000c518       ??_C@_0BH@KONOIKPK@TIME_FORMAT_MEDIA_TIME?$AA@ 1008c518     strmbasd:wxdebug.obj
 0003:0000c534       ??_C@_0BC@IAOJFMBM@TIME_FORMAT_FIELD?$AA@ 1008c534     strmbasd:wxdebug.obj
 0003:0000c54c       ??_C@_0BD@GEJGMNAJ@TIME_FORMAT_SAMPLE?$AA@ 1008c54c     strmbasd:wxdebug.obj
 0003:0000c564       ??_C@_0BB@JEDFNBEN@TIME_FORMAT_BYTE?$AA@ 1008c564     strmbasd:wxdebug.obj
 0003:0000c578       ??_C@_0BC@GCDGKO@TIME_FORMAT_FRAME?$AA@ 1008c578     strmbasd:wxdebug.obj
 0003:0000c590       ??_C@_0BB@DFAGBCKJ@TIME_FORMAT_NONE?$AA@ 1008c590     strmbasd:wxdebug.obj
 0003:0000c5a4       ??_C@_0BL@LKJJKOOA@AM_INTERFACESETID_Standard?$AA@ 1008c5a4     strmbasd:wxdebug.obj
 0003:0000c5c4       ??_C@_0BC@GLJKNHMF@IID_IKsPinFactory?$AA@ 1008c5c4     strmbasd:wxdebug.obj
 0003:0000c5dc       ??_C@_0P@OFFFJDFA@IID_IKsControl?$AA@ 1008c5dc     strmbasd:wxdebug.obj
 0003:0000c5f0       ??_C@_0L@CJKBBPEM@IID_IKsPin?$AA@ 1008c5f0     strmbasd:wxdebug.obj
 0003:0000c600       ??_C@_0BH@LGPPDAF@IID_IKsDataTypeHandler?$AA@ 1008c600     strmbasd:wxdebug.obj
 0003:0000c61c       ??_C@_0BI@HBKELIGK@IID_IKsInterfaceHandler?$AA@ 1008c61c     strmbasd:wxdebug.obj
 0003:0000c638       ??_C@_0BH@KKBLIKKJ@AM_KSCATEGORY_SPLITTER?$AA@ 1008c638     strmbasd:wxdebug.obj
 0003:0000c654       ??_C@_0BK@FBIGGOAC@AM_KSCATEGORY_VBICODEC_MI?$AA@ 1008c654     strmbasd:wxdebug.obj
 0003:0000c674       ??_C@_0BH@DJEBCHGN@AM_KSCATEGORY_VBICODEC?$AA@ 1008c674     strmbasd:wxdebug.obj
 0003:0000c690       ??_C@_0BG@FKDABMPO@AM_KSCATEGORY_TVAUDIO?$AA@ 1008c690     strmbasd:wxdebug.obj
 0003:0000c6ac       ??_C@_0BH@BHAAIIEK@AM_KSCATEGORY_CROSSBAR?$AA@ 1008c6ac     strmbasd:wxdebug.obj
 0003:0000c6c8       ??_C@_0BG@JAOAPKMK@AM_KSCATEGORY_TVTUNER?$AA@ 1008c6c8     strmbasd:wxdebug.obj
 0003:0000c6e4       ??_C@_0BE@BODJNGIC@AM_KSCATEGORY_VIDEO?$AA@ 1008c6e4     strmbasd:wxdebug.obj
 0003:0000c6fc       ??_C@_0BE@KMOAGHEG@AM_KSCATEGORY_AUDIO?$AA@ 1008c6fc     strmbasd:wxdebug.obj
 0003:0000c714       ??_C@_0BN@EFIFCDDE@AM_KSCATEGORY_DATACOMPRESSOR?$AA@ 1008c714     strmbasd:wxdebug.obj
 0003:0000c738       ??_C@_0BF@PHDDPKHG@AM_KSCATEGORY_RENDER?$AA@ 1008c738     strmbasd:wxdebug.obj
 0003:0000c754       ??_C@_0BG@HJOEOKOD@AM_KSCATEGORY_CAPTURE?$AA@ 1008c754     strmbasd:wxdebug.obj
 0003:0000c770       ??_C@_0BJ@MMMDLKGA@AM_KSPROPSETID_FrameStep?$AA@ 1008c770     strmbasd:wxdebug.obj
 0003:0000c790       ??_C@_0BK@JOIMEMKC@AM_KSPROPSETID_DvdKaraoke?$AA@ 1008c790     strmbasd:wxdebug.obj
 0003:0000c7b0       ??_C@_0BO@PJENNCP@AM_KSPROPSETID_DVD_RateChange?$AA@ 1008c7b0     strmbasd:wxdebug.obj
 0003:0000c7d4       ??_C@_0BM@FCMDKPMO@AM_KSPROPSETID_TSRateChange?$AA@ 1008c7d4     strmbasd:wxdebug.obj
 0003:0000c7f8       ??_C@_0BI@FJOKKCOG@AM_KSPROPSETID_CopyProt?$AA@ 1008c7f8     strmbasd:wxdebug.obj
 0003:0000c814       ??_C@_0BJ@PNFEPIAI@AM_KSPROPSETID_DvdSubPic?$AA@ 1008c814     strmbasd:wxdebug.obj
 0003:0000c834       ??_C@_0BD@KIDHAKDN@AM_KSPROPSETID_AC3?$AA@ 1008c834     strmbasd:wxdebug.obj
 0003:0000c84c       ??_C@_0BF@DDFDNCPG@FORMAT_DVD_LPCMAudio?$AA@ 1008c84c     strmbasd:wxdebug.obj
 0003:0000c868       ??_C@_0BC@FNMPHKJP@FORMAT_MPEG2Audio?$AA@ 1008c868     strmbasd:wxdebug.obj
 0003:0000c880       ??_C@_0BA@DFOAGGNO@FORMAT_DolbyAC3?$AA@ 1008c880     strmbasd:wxdebug.obj
 0003:0000c894       ??_C@_0BC@OPBGMLFL@FORMAT_MPEG2Video?$AA@ 1008c894     strmbasd:wxdebug.obj
 0003:0000c8ac       ??_C@_0CF@JFODMNLC@MEDIASUBTYPE_DVD_NAVIGATION_PROV@ 1008c8ac     strmbasd:wxdebug.obj
 0003:0000c8d8       ??_C@_0CA@HHBAHKDL@MEDIASUBTYPE_DVD_NAVIGATION_DSI?$AA@ 1008c8d8     strmbasd:wxdebug.obj
 0003:0000c900       ??_C@_0CA@LEENBJID@MEDIASUBTYPE_DVD_NAVIGATION_PCI?$AA@ 1008c900     strmbasd:wxdebug.obj
 0003:0000c928       ??_C@_0BJ@GOKKMOMK@MEDIATYPE_DVD_NAVIGATION?$AA@ 1008c928     strmbasd:wxdebug.obj
 0003:0000c948       ??_C@_0BN@PDMFCDHD@MEDIATYPE_DVD_ENCRYPTED_PACK?$AA@ 1008c948     strmbasd:wxdebug.obj
 0003:0000c96c       ??_C@_0BC@CBOFIDPL@MEDIASUBTYPE_SDDS?$AA@ 1008c96c     strmbasd:wxdebug.obj
 0003:0000c984       ??_C@_0BB@HHHOAGLK@MEDIASUBTYPE_DTS?$AA@ 1008c984     strmbasd:wxdebug.obj
 0003:0000c998       ??_C@_0BM@IFEMLIIB@MEDIASUBTYPE_DVD_LPCM_AUDIO?$AA@ 1008c998     strmbasd:wxdebug.obj
 0003:0000c9bc       ??_C@_0BM@NIDBMGNP@MEDIASUBTYPE_DVD_SUBPICTURE?$AA@ 1008c9bc     strmbasd:wxdebug.obj
 0003:0000c9e0       ??_C@_0BH@ICAIJPGG@MEDIASUBTYPE_DOLBY_AC3?$AA@ 1008c9e0     strmbasd:wxdebug.obj
 0003:0000c9fc       ??_C@_0BJ@NJFBAHIK@MEDIASUBTYPE_MPEG2_AUDIO?$AA@ 1008c9fc     strmbasd:wxdebug.obj
 0003:0000ca1c       ??_C@_0CC@PEIJMJJ@MEDIASUBTYPE_MPEG2_UDCR_TRANSPOR@ 1008ca1c     strmbasd:wxdebug.obj
 0003:0000ca44       ??_C@_0CE@NBPKHEEF@MEDIASUBTYPE_MPEG2_TRANSPORT_STR@ 1008ca44     strmbasd:wxdebug.obj
 0003:0000ca70       ??_C@_0BN@MNDKHGPO@MEDIASUBTYPE_MPEG2_TRANSPORT?$AA@ 1008ca70     strmbasd:wxdebug.obj
 0003:0000ca94       ??_C@_0BL@GJLFCEFH@MEDIASUBTYPE_MPEG2_PROGRAM?$AA@ 1008ca94     strmbasd:wxdebug.obj
 0003:0000cab4       ??_C@_0BC@NAAOEEOD@FORMAT_VIDEOINFO2?$AA@ 1008cab4     strmbasd:wxdebug.obj
 0003:0000cacc       ??_C@_0BD@PPAGNNAO@FORMAT_MPEG2_VIDEO?$AA@ 1008cacc     strmbasd:wxdebug.obj
 0003:0000cae4       ??_C@_0BJ@GLIILGEO@MEDIASUBTYPE_MPEG2_VIDEO?$AA@ 1008cae4     strmbasd:wxdebug.obj
 0003:0000cb04       ??_C@_0CD@IFLGPHJL@MEDIASUBTYPE_MPEG2_WMDRM_TRANSPO@ 1008cb04     strmbasd:wxdebug.obj
 0003:0000cb30       ??_C@_0BH@DBHAPKAL@MEDIASUBTYPE_MPEG2DATA?$AA@ 1008cb30     strmbasd:wxdebug.obj
 0003:0000cb4c       ??_C@_0BE@IFJHGOCE@MEDIASUBTYPE_TIF_SI?$AA@ 1008cb4c     strmbasd:wxdebug.obj
 0003:0000cb64       ??_C@_0BE@OFEJOEGE@MEDIASUBTYPE_DVB_SI?$AA@ 1008cb64     strmbasd:wxdebug.obj
 0003:0000cb7c       ??_C@_0BF@ICADDFAH@MEDIASUBTYPE_ATSC_SI?$AA@ 1008cb7c     strmbasd:wxdebug.obj
 0003:0000cb98       ??_C@_0CE@BOHPDLMP@MEDIASUBTYPE_MPEG2_VERSIONED_TAB@ 1008cb98     strmbasd:wxdebug.obj
 0003:0000cbc4       ??_C@_0BJ@DBOEMAE@MEDIATYPE_MPEG2_SECTIONS?$AA@ 1008cbc4     strmbasd:wxdebug.obj
 0003:0000cbe4       ??_C@_0BE@OMIKBDDK@MEDIATYPE_MPEG2_PES?$AA@ 1008cbe4     strmbasd:wxdebug.obj
 0003:0000cbfc       ??_C@_0BF@EGCJPBEI@MEDIATYPE_MPEG2_PACK?$AA@ 1008cbfc     strmbasd:wxdebug.obj
 0003:0000cc18       ??_C@_0BG@GMIIMCCH@MEDIATYPE_AnalogAudio?$AA@ 1008cc18     strmbasd:wxdebug.obj
 0003:0000cc34       ??_C@_0CB@KCDGGOHL@MEDIASUBTYPE_AnalogVideo_SECAM_L@ 1008cc34     strmbasd:wxdebug.obj
 0003:0000cc5c       ??_C@_0CC@EGHIPON@MEDIASUBTYPE_AnalogVideo_SECAM_K@ 1008cc5c     strmbasd:wxdebug.obj
 0003:0000cc84       ??_C@_0CB@ONHHPILM@MEDIASUBTYPE_AnalogVideo_SECAM_K@ 1008cc84     strmbasd:wxdebug.obj
 0003:0000ccac       ??_C@_0CB@MGFKKLHP@MEDIASUBTYPE_AnalogVideo_SECAM_H@ 1008ccac     strmbasd:wxdebug.obj
 0003:0000ccd4       ??_C@_0CB@EBMCLHLA@MEDIASUBTYPE_AnalogVideo_SECAM_G@ 1008ccd4     strmbasd:wxdebug.obj
 0003:0000ccfc       ??_C@_0CB@GKOPOEHD@MEDIASUBTYPE_AnalogVideo_SECAM_D@ 1008ccfc     strmbasd:wxdebug.obj
 0003:0000cd24       ??_C@_0CB@DMLFEDPF@MEDIASUBTYPE_AnalogVideo_SECAM_B@ 1008cd24     strmbasd:wxdebug.obj
 0003:0000cd4c       ??_C@_0CF@NFAGABDA@MEDIASUBTYPE_AnalogVideo_PAL_N_C@ 1008cd4c     strmbasd:wxdebug.obj
 0003:0000cd78       ??_C@_0BP@CMDPEMJJ@MEDIASUBTYPE_AnalogVideo_PAL_N?$AA@ 1008cd78     strmbasd:wxdebug.obj
 0003:0000cda0       ??_C@_0BP@HBCBPFK@MEDIASUBTYPE_AnalogVideo_PAL_M?$AA@ 1008cda0     strmbasd:wxdebug.obj
 0003:0000cdc8       ??_C@_0BP@GDHONKFO@MEDIASUBTYPE_AnalogVideo_PAL_I?$AA@ 1008cdc8     strmbasd:wxdebug.obj
 0003:0000cdf0       ??_C@_0BP@HKGFOLBP@MEDIASUBTYPE_AnalogVideo_PAL_H?$AA@ 1008cdf0     strmbasd:wxdebug.obj
 0003:0000ce18       ??_C@_0BP@PNPNPHNA@MEDIASUBTYPE_AnalogVideo_PAL_G?$AA@ 1008ce18     strmbasd:wxdebug.obj
 0003:0000ce40       ??_C@_0BP@NGNAKEBD@MEDIASUBTYPE_AnalogVideo_PAL_D?$AA@ 1008ce40     strmbasd:wxdebug.obj
 0003:0000ce68       ??_C@_0BP@IAIKADJF@MEDIASUBTYPE_AnalogVideo_PAL_B?$AA@ 1008ce68     strmbasd:wxdebug.obj
 0003:0000ce90       ??_C@_0CA@ENEJHAGM@MEDIASUBTYPE_AnalogVideo_NTSC_M?$AA@ 1008ce90     strmbasd:wxdebug.obj
 0003:0000ceb8       ??_C@_0BG@NOFBHDOD@MEDIATYPE_AnalogVideo?$AA@ 1008ceb8     strmbasd:wxdebug.obj
 0003:0000ced4       ??_C@_0BD@FPJHKABL@FORMAT_AnalogVideo?$AA@ 1008ced4     strmbasd:wxdebug.obj
 0003:0000ceec       ??_C@_0BN@MPJOMNNO@CLSID_WstDecoderPropertyPage?$AA@ 1008ceec     strmbasd:wxdebug.obj
 0003:0000cf10       ??_C@_0BC@ECPGHG@IID_IAMWstDecoder?$AA@ 1008cf10     strmbasd:wxdebug.obj
 0003:0000cf28       ??_C@_0BF@CANIKDCC@IID_IAMLine21Decoder?$AA@ 1008cf28     strmbasd:wxdebug.obj
 0003:0000cf44       ??_C@_0BG@MFJOFLDI@IID_IMpegAudioDecoder?$AA@ 1008cf44     strmbasd:wxdebug.obj
 0003:0000cf60       ??_C@_0BD@DCOHCNDD@IID_IAMDirectSound?$AA@ 1008cf60     strmbasd:wxdebug.obj
 0003:0000cf78       ??_C@_0BI@BEEKCNAK@CLSID_DVMuxPropertyPage?$AA@ 1008cf78     strmbasd:wxdebug.obj
 0003:0000cf94       ??_C@_0BK@LHMJDPDF@CLSID_DVEncPropertiesPage?$AA@ 1008cf94     strmbasd:wxdebug.obj
 0003:0000cfb4       ??_C@_0BK@ONBBJNMO@CLSID_DVDecPropertiesPage?$AA@ 1008cfb4     strmbasd:wxdebug.obj
 0003:0000cfd4       ??_C@_0BH@JCHOAMC@IID_IFullScreenVideoEx?$AA@ 1008cfd4     strmbasd:wxdebug.obj
 0003:0000cff0       ??_C@_0BF@MODDCOCJ@IID_IFullScreenVideo?$AA@ 1008cff0     strmbasd:wxdebug.obj
 0003:0000d00c       ??_C@_0BG@BMJBDGKO@CLSID_ModexProperties?$AA@ 1008d00c     strmbasd:wxdebug.obj
 0003:0000d028       ??_C@_0BN@FAPDODEA@IID_IDirectDrawSurfaceKernel?$AA@ 1008d028     strmbasd:wxdebug.obj
 0003:0000d04c       ??_C@_0BG@BJPLFOBM@IID_IDirectDrawKernel?$AA@ 1008d04c     strmbasd:wxdebug.obj
 0003:0000d068       ??_C@_0BK@CFHCMJPM@IID_IDDVideoPortContainer?$AA@ 1008d068     strmbasd:wxdebug.obj
 0003:0000d088       ??_C@_0BF@PBPIJDG@IID_IMixerPinConfig2?$AA@ 1008d088     strmbasd:wxdebug.obj
 0003:0000d0a4       ??_C@_0BE@NHKHFDMJ@IID_IMixerPinConfig?$AA@ 1008d0a4     strmbasd:wxdebug.obj
 0003:0000d0bc       ??_C@_0BB@DOOMPDPJ@IID_IVPVBINotify?$AA@ 1008d0bc     strmbasd:wxdebug.obj
 0003:0000d0d0       ??_C@_0BB@PCBFHFKO@IID_IVPVBIConfig?$AA@ 1008d0d0     strmbasd:wxdebug.obj
 0003:0000d0e4       ??_C@_0P@MOKJCPKB@IID_IVPNotify2?$AA@ 1008d0e4     strmbasd:wxdebug.obj
 0003:0000d0f8       ??_C@_0O@BMGPPH@IID_IVPNotify?$AA@ 1008d0f8     strmbasd:wxdebug.obj
 0003:0000d108       ??_C@_0O@MMOFOJKA@IID_IVPConfig?$AA@ 1008d108     strmbasd:wxdebug.obj
 0003:0000d118       ??_C@_0BB@CGGMBGO@IID_IVPVBIObject?$AA@ 1008d118     strmbasd:wxdebug.obj
 0003:0000d12c       ??_C@_0BC@NLMFDGCI@CLSID_VPVBIObject?$AA@ 1008d12c     strmbasd:wxdebug.obj
 0003:0000d144       ??_C@_0P@IMHJCHGO@IID_IVPControl?$AA@ 1008d144     strmbasd:wxdebug.obj
 0003:0000d158       ??_C@_0O@DMJGFNGA@IID_IVPObject?$AA@ 1008d158     strmbasd:wxdebug.obj
 0003:0000d168       ??_C@_0P@NCELCLBL@CLSID_VPObject?$AA@ 1008d168     strmbasd:wxdebug.obj
 0003:0000d17c       ??_C@_0O@HMAIMEL@IID_IQualProp?$AA@ 1008d17c     strmbasd:wxdebug.obj
 0003:0000d18c       ??_C@_0BF@CKBMLDIJ@IID_IDirectDrawVideo?$AA@ 1008d18c     strmbasd:wxdebug.obj
 0003:0000d1a8       ??_C@_0BE@CHAJILHO@IID_IBaseVideoMixer?$AA@ 1008d1a8     strmbasd:wxdebug.obj
 0003:0000d1c0       ??_C@_0BI@PFCEEEEG@CLSID_QualityProperties?$AA@ 1008d1c0     strmbasd:wxdebug.obj
 0003:0000d1dc       ??_C@_0BM@OIFDNMKL@CLSID_PerformanceProperties?$AA@ 1008d1dc     strmbasd:wxdebug.obj
 0003:0000d200       ??_C@_0BL@LBCPHJFD@CLSID_DirectDrawProperties?$AA@ 1008d200     strmbasd:wxdebug.obj
 0003:0000d220       ??_C@_0O@GBAAMBNE@FORMAT_525WSS?$AA@ 1008d220     strmbasd:wxdebug.obj
 0003:0000d230       ??_C@_0O@FPIELGFA@FORMAT_DvInfo?$AA@ 1008d230     strmbasd:wxdebug.obj
 0003:0000d240       ??_C@_0BD@GELAKEMD@FORMAT_MPEGStreams?$AA@ 1008d240     strmbasd:wxdebug.obj
 0003:0000d258       ??_C@_0BB@KHIFDFPB@FORMAT_MPEGVideo?$AA@ 1008d258     strmbasd:wxdebug.obj
 0003:0000d26c       ??_C@_0BE@DIDJLNCO@FORMAT_WaveFormatEx?$AA@ 1008d26c     strmbasd:wxdebug.obj
 0003:0000d284       ??_C@_0BC@HCNHFIIA@FORMAT_VideoInfo2?$AA@ 1008d284     strmbasd:wxdebug.obj
 0003:0000d29c       ??_C@_0BB@BIOIFEEG@FORMAT_VideoInfo?$AA@ 1008d29c     strmbasd:wxdebug.obj
 0003:0000d2b0       ??_C@_0M@JNMILJMM@FORMAT_None?$AA@ 1008d2b0     strmbasd:wxdebug.obj
 0003:0000d2c0       ??_C@_0BI@LJFEDLMF@CLSID_MSTVCaptionFilter?$AA@ 1008d2c0     strmbasd:wxdebug.obj
 0003:0000d2dc       ??_C@_0BC@PHFOHLGN@CLSID_DtvCcFilter?$AA@ 1008d2dc     strmbasd:wxdebug.obj
 0003:0000d2f4       ??_C@_0P@NKFDIBCH@CLSID_SmartTee?$AA@ 1008d2f4     strmbasd:wxdebug.obj
 0003:0000d308       ??_C@_0P@EBDBOAMI@CLSID_DVDState?$AA@ 1008d308     strmbasd:wxdebug.obj
 0003:0000d31c       ??_C@_0BD@MKKIPHPD@CLSID_DVDNavigator?$AA@ 1008d31c     strmbasd:wxdebug.obj
 0003:0000d334       ??_C@_0BG@DBFJIAOO@CLSID_DvdGraphBuilder?$AA@ 1008d334     strmbasd:wxdebug.obj
 0003:0000d350       ??_C@_0BH@LELNBCJB@CLSID_MediaPropertyBag?$AA@ 1008d350     strmbasd:wxdebug.obj
 0003:0000d36c       ??_C@_0BG@BLCJAHCA@CLSID_MemoryAllocator?$AA@ 1008d36c     strmbasd:wxdebug.obj
 0003:0000d388       ??_C@_0BE@MEMNCCHD@CLSID_FilterMapper2?$AA@ 1008d388     strmbasd:wxdebug.obj
 0003:0000d3a0       ??_C@_0BP@HEHCDEEP@CLSID_MediaMultiplexerCategory?$AA@ 1008d3a0     strmbasd:wxdebug.obj
 0003:0000d3c8       ??_C@_0BL@OHDDIDCM@CLSID_MediaEncoderCategory?$AA@ 1008d3c8     strmbasd:wxdebug.obj
 0003:0000d3e8       ??_C@_0BM@GMHNHOJN@CLSID_DVDHWDecodersCategory?$AA@ 1008d3e8     strmbasd:wxdebug.obj
 0003:0000d40c       ??_C@_0BM@FFECPEEO@CLSID_ActiveMovieCategories?$AA@ 1008d40c     strmbasd:wxdebug.obj
 0003:0000d430       ??_C@_0BM@DIIBNBDI@CLSID_DeviceControlCategory?$AA@ 1008d430     strmbasd:wxdebug.obj
 0003:0000d454       ??_C@_0BH@PMIPKKGF@CLSID_TransmitCategory?$AA@ 1008d454     strmbasd:wxdebug.obj
 0003:0000d470       ??_C@_0BL@ODGCNFAC@CLSID_CMidiOutClassManager?$AA@ 1008d470     strmbasd:wxdebug.obj
 0003:0000d490       ??_C@_0BL@PFOFLBED@CLSID_MidiRendererCategory?$AA@ 1008d490     strmbasd:wxdebug.obj
 0003:0000d4b0       ??_C@_0BL@ODHPJMFG@CLSID_CWaveOutClassManager?$AA@ 1008d4b0     strmbasd:wxdebug.obj
 0003:0000d4d0       ??_C@_0BM@IKEGMCBB@CLSID_AudioRendererCategory?$AA@ 1008d4d0     strmbasd:wxdebug.obj
 0003:0000d4f4       ??_C@_0BK@BBHJDCNO@CLSID_CWaveinClassManager?$AA@ 1008d4f4     strmbasd:wxdebug.obj
 0003:0000d514       ??_C@_0BP@PJJDEHMA@CLSID_AudioInputDeviceCategory?$AA@ 1008d514     strmbasd:wxdebug.obj
 0003:0000d53c       ??_C@_0BJ@GCNIBNDP@CLSID_CAcmCoClassManager?$AA@ 1008d53c     strmbasd:wxdebug.obj
 0003:0000d55c       ??_C@_0BO@MPBDCBAE@CLSID_AudioCompressorCategory?$AA@ 1008d55c     strmbasd:wxdebug.obj
 0003:0000d580       ??_C@_0BJ@HFIJLDDD@CLSID_CIcmCoClassManager?$AA@ 1008d580     strmbasd:wxdebug.obj
 0003:0000d5a0       ??_C@_0BO@LHPMAAHK@CLSID_VideoCompressorCategory?$AA@ 1008d5a0     strmbasd:wxdebug.obj
 0003:0000d5c4       ??_C@_0BM@FGKEMLD@CLSID_CQzFilterClassManager?$AA@ 1008d5c4     strmbasd:wxdebug.obj
 0003:0000d5e8       ??_C@_0BN@CNCFGNOM@CLSID_LegacyAmFilterCategory?$AA@ 1008d5e8     strmbasd:wxdebug.obj
 0003:0000d60c       ??_C@_0BK@DEKJKCMC@CLSID_CVidCapClassManager?$AA@ 1008d60c     strmbasd:wxdebug.obj
 0003:0000d62c       ??_C@_0BP@EOFGPENK@CLSID_VideoInputDeviceCategory?$AA@ 1008d62c     strmbasd:wxdebug.obj
 0003:0000d654       ??_C@_0BF@IKKILJPB@CLSID_CDeviceMoniker?$AA@ 1008d654     strmbasd:wxdebug.obj
 0003:0000d670       ??_C@_0BH@HCEHICAC@CLSID_SystemDeviceEnum?$AA@ 1008d670     strmbasd:wxdebug.obj
 0003:0000d68c       ??_C@_0O@PMBMPNEN@CLSID_MJPGEnc?$AA@ 1008d68c     strmbasd:wxdebug.obj
 0003:0000d69c       ??_C@_0P@EKONKJMP@CLSID_MjpegDec?$AA@ 1008d69c     strmbasd:wxdebug.obj
 0003:0000d6b0       ??_C@_0BB@NIFCAIPK@CLSID_WSTDecoder?$AA@ 1008d6b0     strmbasd:wxdebug.obj
 0003:0000d6c4       ??_C@_0BC@NJHBIDHL@CLSID_VBISurfaces?$AA@ 1008d6c4     strmbasd:wxdebug.obj
 0003:0000d6dc       ??_C@_0BD@DBGELFFN@CLSID_OverlayMixer?$AA@ 1008d6dc     strmbasd:wxdebug.obj
 0003:0000d6f4       ??_C@_0BF@JMDFOBPF@CLSID_Line21Decoder2?$AA@ 1008d6f4     strmbasd:wxdebug.obj
 0003:0000d710       ??_C@_0BE@PEDAANEE@CLSID_Line21Decoder?$AA@ 1008d710     strmbasd:wxdebug.obj
 0003:0000d728       ??_C@_0BG@EOHBPLJL@CLSID_SeekingPassThru?$AA@ 1008d728     strmbasd:wxdebug.obj
 0003:0000d744       ??_C@_0M@LIOFKBFC@CLSID_DVMux?$AA@ 1008d744     strmbasd:wxdebug.obj
 0003:0000d754       ??_C@_0BB@BPKDMGID@CLSID_DVSplitter?$AA@ 1008d754     strmbasd:wxdebug.obj
 0003:0000d768       ??_C@_0BB@HCMGNCHG@CLSID_DVVideoEnc?$AA@ 1008d768     strmbasd:wxdebug.obj
 0003:0000d77c       ??_C@_0BD@GHJKNMPF@CLSID_DVVideoCodec?$AA@ 1008d77c     strmbasd:wxdebug.obj
 0003:0000d794       ??_C@_0CD@BGAGCHDL@CLSID_StreamBufferComposeRecordi@ 1008d794     strmbasd:wxdebug.obj
 0003:0000d7c0       ??_C@_0CG@ELBAIEHG@CLSID_StreamBufferRecordingAttri@ 1008d7c0     strmbasd:wxdebug.obj
 0003:0000d7f0       ??_C@_0BP@NELBNMHH@CLSID_Mpeg2VideoStreamAnalyzer?$AA@ 1008d7f0     strmbasd:wxdebug.obj
 0003:0000d818       ??_C@_0BJ@HENNBKBA@CLSID_StreamBufferConfig?$AA@ 1008d818     strmbasd:wxdebug.obj
 0003:0000d838       ??_C@_0BJ@OEOJAHNB@CLSID_StreamBufferSource?$AA@ 1008d838     strmbasd:wxdebug.obj
 0003:0000d858       ??_C@_0BH@KFEABNM@CLSID_StreamBufferSink?$AA@ 1008d858     strmbasd:wxdebug.obj
 0003:0000d874       ??_C@_0BB@EGPNDOJN@CLSID_MMSPLITTER?$AA@ 1008d874     strmbasd:wxdebug.obj
 0003:0000d888       ??_C@_0BJ@EIMGIEPE@CLSID_MPEG2Demultiplexer?$AA@ 1008d888     strmbasd:wxdebug.obj
 0003:0000d8a8       ??_C@_0BC@FDFJIMFN@CLSID_WMAsfWriter?$AA@ 1008d8a8     strmbasd:wxdebug.obj
 0003:0000d8c0       ??_C@_0BC@HPNLINIH@CLSID_WMAsfReader?$AA@ 1008d8c0     strmbasd:wxdebug.obj
 0003:0000d8d8       ??_C@_0BE@JKFAKFLF@CLSID_AVIMIDIRender?$AA@ 1008d8d8     strmbasd:wxdebug.obj
 0003:0000d8f0       ??_C@_0BI@CEMGDOF@CLSID_AviMuxProptyPage1?$AA@ 1008d8f0     strmbasd:wxdebug.obj
 0003:0000d90c       ??_C@_0BH@HACOOPPJ@CLSID_AviMuxProptyPage?$AA@ 1008d90c     strmbasd:wxdebug.obj
 0003:0000d928       ??_C@_0O@BBOKBABK@CLSID_AviDest?$AA@ 1008d928     strmbasd:wxdebug.obj
 0003:0000d938       ??_C@_0BB@EAOBMGHI@CLSID_FileWriter?$AA@ 1008d938     strmbasd:wxdebug.obj
 0003:0000d94c       ??_C@_0M@ECCPLKAC@CLSID_AVICo?$AA@ 1008d94c     strmbasd:wxdebug.obj
 0003:0000d95c       ??_C@_0BI@BPJMBDEA@CLSID_PersistMonikerPID?$AA@ 1008d95c     strmbasd:wxdebug.obj
 0003:0000d978       ??_C@_0BA@PAHGENGM@CLSID_URLReader?$AA@ 1008d978     strmbasd:wxdebug.obj
 0003:0000d98c       ??_C@_0BC@IIKJMMAP@CLSID_AsyncReader?$AA@ 1008d98c     strmbasd:wxdebug.obj
 0003:0000d9a4       ??_C@_0BB@JJJCIGKI@CLSID_ACMWrapper?$AA@ 1008d9a4     strmbasd:wxdebug.obj
 0003:0000d9b8       ??_C@_0O@CALKGHEL@CLSID_AVIDraw?$AA@ 1008d9b8     strmbasd:wxdebug.obj
 0003:0000d9c8       ??_C@_0N@DANMMLJN@CLSID_AVIDec?$AA@ 1008d9c8     strmbasd:wxdebug.obj
 0003:0000d9d8       ??_C@_0CA@IFBGPFBB@CLSID_AudioInputMixerProperties?$AA@ 1008d9d8     strmbasd:wxdebug.obj
 0003:0000da00       ??_C@_0BC@CJLCKANB@CLSID_AudioRecord?$AA@ 1008da00     strmbasd:wxdebug.obj
 0003:0000da18       ??_C@_0BD@LOPABNAD@CLSID_DSoundRender?$AA@ 1008da18     strmbasd:wxdebug.obj
 0003:0000da30       ??_C@_0BG@HKOELKLH@CLSID_AudioProperties?$AA@ 1008da30     strmbasd:wxdebug.obj
 0003:0000da4c       ??_C@_0BC@DNCODED@CLSID_AudioRender?$AA@ 1008da4c     strmbasd:wxdebug.obj
 0003:0000da64       ??_C@_0BE@NKIHOHOO@CLSID_ModexRenderer?$AA@ 1008da64     strmbasd:wxdebug.obj
 0003:0000da7c       ??_C@_0N@HHEEBOOD@CLSID_Dither?$AA@ 1008da7c     strmbasd:wxdebug.obj
 0003:0000da8c       ??_C@_0N@LFNLIEPK@CLSID_Colour?$AA@ 1008da8c     strmbasd:wxdebug.obj
 0003:0000da9c       ??_C@_0BE@JGJKKFCD@CLSID_VideoRenderer?$AA@ 1008da9c     strmbasd:wxdebug.obj
 0003:0000dab4       ??_C@_0N@DNELEOEL@CLSID_AVIDoc?$AA@ 1008dab4     strmbasd:wxdebug.obj
 0003:0000dac4       ??_C@_0M@FJCGEGHK@CLSID_QTDec?$AA@ 1008dac4     strmbasd:wxdebug.obj
 0003:0000dad4       ??_C@_0BG@LBLMDOKF@CLSID_QuickTimeParser?$AA@ 1008dad4     strmbasd:wxdebug.obj
 0003:0000daf0       ??_C@_0BA@HEPLAELF@CLSID_MOVReader?$AA@ 1008daf0     strmbasd:wxdebug.obj
 0003:0000db04       ??_C@_0BA@KEEPPMPM@CLSID_FGControl?$AA@ 1008db04     strmbasd:wxdebug.obj
 0003:0000db18       ??_C@_0BI@JMBOODEJ@CLSID_CaptureProperties?$AA@ 1008db18     strmbasd:wxdebug.obj
 0003:0000db34       ??_C@_0BB@LEMNNKBF@CLSID_VfwCapture?$AA@ 1008db34     strmbasd:wxdebug.obj
 0003:0000db48       ??_C@_0BA@LALINDGD@CLSID_AviReader?$AA@ 1008db48     strmbasd:wxdebug.obj
 0003:0000db5c       ??_C@_0BC@IEJNKBPB@CLSID_AviSplitter?$AA@ 1008db5c     strmbasd:wxdebug.obj
 0003:0000db74       ??_C@_0N@KOMIEIPG@CLSID_InfTee?$AA@ 1008db74     strmbasd:wxdebug.obj
 0003:0000db84       ??_C@_0BB@EDKIOPDP@CLSID_TextRender?$AA@ 1008db84     strmbasd:wxdebug.obj
 0003:0000db98       ??_C@_0BG@LFAJNNAG@CLSID_CMpegAudioCodec?$AA@ 1008db98     strmbasd:wxdebug.obj
 0003:0000dbb4       ??_C@_0BG@FIPJHIGH@CLSID_CMpegVideoCodec?$AA@ 1008dbb4     strmbasd:wxdebug.obj
 0003:0000dbd0       ??_C@_0BE@LFIPJKAK@CLSID_MPEG1Splitter?$AA@ 1008dbd0     strmbasd:wxdebug.obj
 0003:0000dbe8       ??_C@_0BI@LMBPOLBL@CLSID_MPEG1PacketPlayer?$AA@ 1008dbe8     strmbasd:wxdebug.obj
 0003:0000dc04       ??_C@_0BB@IKJDCOFF@CLSID_FileSource?$AA@ 1008dc04     strmbasd:wxdebug.obj
 0003:0000dc18       ??_C@_0P@FEBLHHAP@CLSID_MPEG1Doc?$AA@ 1008dc18     strmbasd:wxdebug.obj
 0003:0000dc2c       ??_C@_0BP@IDBMLLPH@CLSID_FilterGraphPrivateThread?$AA@ 1008dc2c     strmbasd:wxdebug.obj
 0003:0000dc54       ??_C@_0BK@GPPKBPII@CLSID_FilterGraphNoThread?$AA@ 1008dc54     strmbasd:wxdebug.obj
 0003:0000dc74       ??_C@_0BC@LBOJCJIK@CLSID_FilterGraph?$AA@ 1008dc74     strmbasd:wxdebug.obj
 0003:0000dc8c       ??_C@_0BD@GELPJKHJ@CLSID_FilterMapper?$AA@ 1008dc8c     strmbasd:wxdebug.obj
 0003:0000dca4       ??_C@_0BC@FNEEBDMD@CLSID_SystemClock?$AA@ 1008dca4     strmbasd:wxdebug.obj
 0003:0000dcbc       ??_C@_0BH@FKDKHILK@CLSID_ProtoFilterGraph?$AA@ 1008dcbc     strmbasd:wxdebug.obj
 0003:0000dcd8       ??_C@_0BL@EOAONAPF@CLSID_CaptureGraphBuilder2?$AA@ 1008dcd8     strmbasd:wxdebug.obj
 0003:0000dcf8       ??_C@_0BK@MCIEPAGC@CLSID_CaptureGraphBuilder?$AA@ 1008dcf8     strmbasd:wxdebug.obj
 0003:0000dd18       ??_C@_0BD@CJKMMMPJ@MEDIASUBTYPE_VPVBI?$AA@ 1008dd18     strmbasd:wxdebug.obj
 0003:0000dd30       ??_C@_0BF@BPJMOKJG@MEDIASUBTYPE_VPVideo?$AA@ 1008dd30     strmbasd:wxdebug.obj
 0003:0000dd4c       ??_C@_0BG@JJBCOGDE@MEDIASUBTYPE_DssAudio?$AA@ 1008dd4c     strmbasd:wxdebug.obj
 0003:0000dd68       ??_C@_0BG@CLMLFHPA@MEDIASUBTYPE_DssVideo?$AA@ 1008dd68     strmbasd:wxdebug.obj
 0003:0000dd84       ??_C@_0BM@GAIFCDIO@MEDIASUBTYPE_SPDIF_TAG_241h?$AA@ 1008dd84     strmbasd:wxdebug.obj
 0003:0000dda8       ??_C@_0BH@LDOOJCIL@MEDIASUBTYPE_RAW_SPORT?$AA@ 1008dda8     strmbasd:wxdebug.obj
 0003:0000ddc4       ??_C@_0BN@HEAGON@MEDIASUBTYPE_DOLBY_AC3_SPDIF?$AA@ 1008ddc4     strmbasd:wxdebug.obj
 0003:0000dde8       ??_C@_0BI@KCGOJHHA@MEDIASUBTYPE_IEEE_FLOAT?$AA@ 1008dde8     strmbasd:wxdebug.obj
 0003:0000de04       ??_C@_0BH@MFOIPOOB@MEDIASUBTYPE_DRM_Audio?$AA@ 1008de04     strmbasd:wxdebug.obj
 0003:0000de20       ??_C@_0BB@IKGHDBHC@MEDIASUBTYPE_VPS?$AA@ 1008de20     strmbasd:wxdebug.obj
 0003:0000de34       ??_C@_0BB@DAJNOIEO@MEDIASUBTYPE_WSS?$AA@ 1008de34     strmbasd:wxdebug.obj
 0003:0000de48       ??_C@_0BG@EOPOMHGC@MEDIASUBTYPE_TELETEXT?$AA@ 1008de48     strmbasd:wxdebug.obj
 0003:0000de64       ??_C@_0BH@CHFMGEMN@MEDIASUBTYPE_DtvCcData?$AA@ 1008de64     strmbasd:wxdebug.obj
 0003:0000de80       ??_C@_0BJ@GLBGOGEI@MEDIASUBTYPE_708_608Data?$AA@ 1008de80     strmbasd:wxdebug.obj
 0003:0000dea0       ??_C@_0BP@HODMJPLP@MEDIASUBTYPE_Line21_VBIRawData?$AA@ 1008dea0     strmbasd:wxdebug.obj
 0003:0000dec8       ??_C@_0BO@BACGEDJN@MEDIASUBTYPE_Line21_GOPPacket?$AA@ 1008dec8     strmbasd:wxdebug.obj
 0003:0000deec       ??_C@_0BN@PNGOOPNO@MEDIASUBTYPE_Line21_BytePair?$AA@ 1008deec     strmbasd:wxdebug.obj
 0003:0000df10       ??_C@_0BC@OFKGBOG@MEDIASUBTYPE_dvh1?$AA@ 1008df10     strmbasd:wxdebug.obj
 0003:0000df28       ??_C@_0BC@HDCFONEE@MEDIASUBTYPE_dv50?$AA@ 1008df28     strmbasd:wxdebug.obj
 0003:0000df40       ??_C@_0BC@LBNAPIE@MEDIASUBTYPE_dv25?$AA@ 1008df40     strmbasd:wxdebug.obj
 0003:0000df58       ??_C@_0BC@BBDMAOGO@MEDIASUBTYPE_dvsl?$AA@ 1008df58     strmbasd:wxdebug.obj
 0003:0000df70       ??_C@_0BC@MJJGMIPH@MEDIASUBTYPE_dvhd?$AA@ 1008df70     strmbasd:wxdebug.obj
 0003:0000df88       ??_C@_0BC@NJOFIEGG@MEDIASUBTYPE_dvsd?$AA@ 1008df88     strmbasd:wxdebug.obj
 0003:0000dfa0       ??_C@_0BC@PNJOKNLO@MEDIASUBTYPE_AIFF?$AA@ 1008dfa0     strmbasd:wxdebug.obj
 0003:0000dfb8       ??_C@_0BA@JEIENPOF@MEDIASUBTYPE_AU?$AA@ 1008dfb8     strmbasd:wxdebug.obj
 0003:0000dfcc       ??_C@_0BC@OAIBBHMA@MEDIASUBTYPE_WAVE?$AA@ 1008dfcc     strmbasd:wxdebug.obj
 0003:0000dfe4       ??_C@_0BB@GFCNEMFI@MEDIASUBTYPE_PCM?$AA@ 1008dfe4     strmbasd:wxdebug.obj
 0003:0000dff8       ??_C@_0BP@NFLJOHHK@MEDIASUBTYPE_PCMAudio_Obsolete?$AA@ 1008dff8     strmbasd:wxdebug.obj
 0003:0000e020       ??_C@_0BE@HOKHJCKB@MEDIASUBTYPE_QTJpeg?$AA@ 1008e020     strmbasd:wxdebug.obj
 0003:0000e038       ??_C@_0BD@EFKJMNJC@MEDIASUBTYPE_QTRle?$AA@ 1008e038     strmbasd:wxdebug.obj
 0003:0000e050       ??_C@_0BD@KKINGHEG@MEDIASUBTYPE_QTSmc?$AA@ 1008e050     strmbasd:wxdebug.obj
 0003:0000e068       ??_C@_0BE@GPBHANCJ@MEDIASUBTYPE_QTRpza?$AA@ 1008e068     strmbasd:wxdebug.obj
 0003:0000e080       ??_C@_0BF@OKCEOJO@MEDIASUBTYPE_QTMovie?$AA@ 1008e080     strmbasd:wxdebug.obj
 0003:0000e09c       ??_C@_0BB@NPJDGEFL@MEDIASUBTYPE_Asf?$AA@ 1008e09c     strmbasd:wxdebug.obj
 0003:0000e0b0       ??_C@_0BB@FOMALKHP@MEDIASUBTYPE_Avi?$AA@ 1008e0b0     strmbasd:wxdebug.obj
 0003:0000e0c4       ??_C@_0BI@IGHHKEIL@MEDIASUBTYPE_MPEG1Audio?$AA@ 1008e0c4     strmbasd:wxdebug.obj
 0003:0000e0e0       ??_C@_0BI@DEKOBFEP@MEDIASUBTYPE_MPEG1Video?$AA@ 1008e0e0     strmbasd:wxdebug.obj
 0003:0000e0fc       ??_C@_0BK@PMPFDKBH@MEDIASUBTYPE_MPEG1VideoCD?$AA@ 1008e0fc     strmbasd:wxdebug.obj
 0003:0000e11c       ??_C@_0BJ@FABIDEHM@MEDIASUBTYPE_MPEG1System?$AA@ 1008e11c     strmbasd:wxdebug.obj
 0003:0000e13c       ??_C@_0BM@NHBBPNCG@MEDIATYPE_MPEG1SystemStream?$AA@ 1008e13c     strmbasd:wxdebug.obj
 0003:0000e160       ??_C@_0BP@KIJFKCPL@MEDIASUBTYPE_MPEG1AudioPayload?$AA@ 1008e160     strmbasd:wxdebug.obj
 0003:0000e188       ??_C@_0BK@BFGALIOP@MEDIASUBTYPE_MPEG1Payload?$AA@ 1008e188     strmbasd:wxdebug.obj
 0003:0000e1a8       ??_C@_0BJ@HNOPNHEE@MEDIASUBTYPE_MPEG1Packet?$AA@ 1008e1a8     strmbasd:wxdebug.obj
 0003:0000e1c8       ??_C@_0BF@JLPOCKEE@MEDIASUBTYPE_Overlay?$AA@ 1008e1c8     strmbasd:wxdebug.obj
 0003:0000e1e4       ??_C@_0BC@PPBKCJGI@MEDIASUBTYPE_S342?$AA@ 1008e1e4     strmbasd:wxdebug.obj
 0003:0000e1fc       ??_C@_0BC@MNCMELOK@MEDIASUBTYPE_S340?$AA@ 1008e1fc     strmbasd:wxdebug.obj
 0003:0000e214       ??_C@_0BC@FJEOKILH@MEDIASUBTYPE_IMC4?$AA@ 1008e214     strmbasd:wxdebug.obj
 0003:0000e22c       ??_C@_0BC@BGAPDOHA@MEDIASUBTYPE_IMC3?$AA@ 1008e22c     strmbasd:wxdebug.obj
 0003:0000e244       ??_C@_0BC@PBEAPDB@MEDIASUBTYPE_IMC2?$AA@ 1008e244     strmbasd:wxdebug.obj
 0003:0000e25c       ??_C@_0BC@CEDJFMPC@MEDIASUBTYPE_IMC1?$AA@ 1008e25c     strmbasd:wxdebug.obj
 0003:0000e274       ??_C@_0BC@DJEFKGFO@MEDIASUBTYPE_NV24?$AA@ 1008e274     strmbasd:wxdebug.obj
 0003:0000e28c       ??_C@_0BC@GNFJLPIB@MEDIASUBTYPE_NV12?$AA@ 1008e28c     strmbasd:wxdebug.obj
 0003:0000e2a4       ??_C@_0BC@LPJJPEBD@MEDIASUBTYPE_YV12?$AA@ 1008e2a4     strmbasd:wxdebug.obj
 0003:0000e2bc       ??_C@_0CB@GIGABJAL@MEDIASUBTYPE_ARGB1555_D3D_DX9_RT@ 1008e2bc     strmbasd:wxdebug.obj
 0003:0000e2e4       ??_C@_0CB@OLFLCHAG@MEDIASUBTYPE_ARGB4444_D3D_DX9_RT@ 1008e2e4     strmbasd:wxdebug.obj
 0003:0000e30c       ??_C@_0BP@JJMJLFKM@MEDIASUBTYPE_ARGB32_D3D_DX9_RT?$AA@ 1008e30c     strmbasd:wxdebug.obj
 0003:0000e334       ??_C@_0BO@KDANMCFD@MEDIASUBTYPE_RGB16_D3D_DX9_RT?$AA@ 1008e334     strmbasd:wxdebug.obj
 0003:0000e358       ??_C@_0BO@ICNKGMGI@MEDIASUBTYPE_RGB32_D3D_DX9_RT?$AA@ 1008e358     strmbasd:wxdebug.obj
 0003:0000e37c       ??_C@_0CB@NHFAKHGK@MEDIASUBTYPE_ARGB1555_D3D_DX7_RT@ 1008e37c     strmbasd:wxdebug.obj
 0003:0000e3a4       ??_C@_0CB@FEGLJJGH@MEDIASUBTYPE_ARGB4444_D3D_DX7_RT@ 1008e3a4     strmbasd:wxdebug.obj
 0003:0000e3cc       ??_C@_0BP@CGPJALMN@MEDIASUBTYPE_ARGB32_D3D_DX7_RT?$AA@ 1008e3cc     strmbasd:wxdebug.obj
 0003:0000e3f4       ??_C@_0BO@BMDNHMDC@MEDIASUBTYPE_RGB16_D3D_DX7_RT?$AA@ 1008e3f4     strmbasd:wxdebug.obj
 0003:0000e418       ??_C@_0BO@DNOKNCAJ@MEDIASUBTYPE_RGB32_D3D_DX7_RT?$AA@ 1008e418     strmbasd:wxdebug.obj
 0003:0000e43c       ??_C@_0BC@ECCGGJNK@MEDIASUBTYPE_IA44?$AA@ 1008e43c     strmbasd:wxdebug.obj
 0003:0000e454       ??_C@_0BC@LHOCAKPE@MEDIASUBTYPE_AI44?$AA@ 1008e454     strmbasd:wxdebug.obj
 0003:0000e46c       ??_C@_0BC@PJCFPFFJ@MEDIASUBTYPE_AYUV?$AA@ 1008e46c     strmbasd:wxdebug.obj
 0003:0000e484       ??_C@_0BJ@HOFFLAGO@MEDIASUBTYPE_A2B10G10R10?$AA@ 1008e484     strmbasd:wxdebug.obj
 0003:0000e4a4       ??_C@_0BJ@JOCGGBJ@MEDIASUBTYPE_A2R10G10B10?$AA@ 1008e4a4     strmbasd:wxdebug.obj
 0003:0000e4c4       ??_C@_0BE@MCGPOCPK@MEDIASUBTYPE_ARGB32?$AA@ 1008e4c4     strmbasd:wxdebug.obj
 0003:0000e4dc       ??_C@_0BG@KPFEHFHL@MEDIASUBTYPE_ARGB4444?$AA@ 1008e4dc     strmbasd:wxdebug.obj
 0003:0000e4f8       ??_C@_0BG@MHNBMGBI@MEDIASUBTYPE_ARGB1555?$AA@ 1008e4f8     strmbasd:wxdebug.obj
 0003:0000e514       ??_C@_0BD@CGHOKHOP@MEDIASUBTYPE_RGB32?$AA@ 1008e514     strmbasd:wxdebug.obj
 0003:0000e52c       ??_C@_0BD@HBOGGKFO@MEDIASUBTYPE_RGB24?$AA@ 1008e52c     strmbasd:wxdebug.obj
 0003:0000e544       ??_C@_0BE@LCIGAKKB@MEDIASUBTYPE_RGB555?$AA@ 1008e544     strmbasd:wxdebug.obj
 0003:0000e55c       ??_C@_0BE@LAMALEPI@MEDIASUBTYPE_RGB565?$AA@ 1008e55c     strmbasd:wxdebug.obj
 0003:0000e574       ??_C@_0BC@IMLEMLHL@MEDIASUBTYPE_RGB8?$AA@ 1008e574     strmbasd:wxdebug.obj
 0003:0000e58c       ??_C@_0BC@CAABIEHH@MEDIASUBTYPE_RGB4?$AA@ 1008e58c     strmbasd:wxdebug.obj
 0003:0000e5a4       ??_C@_0BC@FNHGHADC@MEDIASUBTYPE_RGB1?$AA@ 1008e5a4     strmbasd:wxdebug.obj
 0003:0000e5bc       ??_C@_0BC@NGCCDLBC@MEDIASUBTYPE_MDVF?$AA@ 1008e5bc     strmbasd:wxdebug.obj
 0003:0000e5d4       ??_C@_0BC@BFNPGGBO@MEDIASUBTYPE_DVSD?$AA@ 1008e5d4     strmbasd:wxdebug.obj
 0003:0000e5ec       ??_C@_0BC@FEIJLHG@MEDIASUBTYPE_H264?$AA@ 1008e5ec     strmbasd:wxdebug.obj
 0003:0000e604       ??_C@_0BC@MHKEBPI@MEDIASUBTYPE_DVCS?$AA@ 1008e604     strmbasd:wxdebug.obj
 0003:0000e61c       ??_C@_0BC@GHKPOKCA@MEDIASUBTYPE_Plum?$AA@ 1008e61c     strmbasd:wxdebug.obj
 0003:0000e634       ??_C@_0BC@NOOLKHBC@MEDIASUBTYPE_IJPG?$AA@ 1008e634     strmbasd:wxdebug.obj
 0003:0000e64c       ??_C@_0BC@KEIBNICG@MEDIASUBTYPE_CFCC?$AA@ 1008e64c     strmbasd:wxdebug.obj
 0003:0000e664       ??_C@_0BC@PEHPCHOD@MEDIASUBTYPE_WAKE?$AA@ 1008e664     strmbasd:wxdebug.obj
 0003:0000e67c       ??_C@_0BC@PNAEFCGI@MEDIASUBTYPE_TVMJ?$AA@ 1008e67c     strmbasd:wxdebug.obj
 0003:0000e694       ??_C@_0BC@CLGLABNC@MEDIASUBTYPE_MJPG?$AA@ 1008e694     strmbasd:wxdebug.obj
 0003:0000e6ac       ??_C@_0BC@OIJJPFNK@MEDIASUBTYPE_CPLA?$AA@ 1008e6ac     strmbasd:wxdebug.obj
 0003:0000e6c4       ??_C@_0BC@GNFGIHPC@MEDIASUBTYPE_IF09?$AA@ 1008e6c4     strmbasd:wxdebug.obj
 0003:0000e6dc       ??_C@_0BC@JHDECANN@MEDIASUBTYPE_CLJR?$AA@ 1008e6dc     strmbasd:wxdebug.obj
 0003:0000e6f4       ??_C@_0BC@CAPAMHIE@MEDIASUBTYPE_Y211?$AA@ 1008e6f4     strmbasd:wxdebug.obj
 0003:0000e70c       ??_C@_0BC@OJJLGGIN@MEDIASUBTYPE_UYVY?$AA@ 1008e70c     strmbasd:wxdebug.obj
 0003:0000e724       ??_C@_0BC@NDOBJDOL@MEDIASUBTYPE_YVYU?$AA@ 1008e724     strmbasd:wxdebug.obj
 0003:0000e73c       ??_C@_0BC@OLOIMBGF@MEDIASUBTYPE_YUY2?$AA@ 1008e73c     strmbasd:wxdebug.obj
 0003:0000e754       ??_C@_0BC@HJHNMCLO@MEDIASUBTYPE_Y41P?$AA@ 1008e754     strmbasd:wxdebug.obj
 0003:0000e76c       ??_C@_0BC@FJLJIFI@MEDIASUBTYPE_Y411?$AA@ 1008e76c     strmbasd:wxdebug.obj
 0003:0000e784       ??_C@_0BC@BDLDEOCE@MEDIASUBTYPE_YVU9?$AA@ 1008e784     strmbasd:wxdebug.obj
 0003:0000e79c       ??_C@_0BC@MJFFLOJI@MEDIASUBTYPE_IYUV?$AA@ 1008e79c     strmbasd:wxdebug.obj
 0003:0000e7b4       ??_C@_0BC@OKHJGPMG@MEDIASUBTYPE_YUYV?$AA@ 1008e7b4     strmbasd:wxdebug.obj
 0003:0000e7cc       ??_C@_0BC@FCMEDJKE@MEDIASUBTYPE_CLPL?$AA@ 1008e7cc     strmbasd:wxdebug.obj
 0003:0000e7e4       ??_C@_0BF@LCGOJIHD@MEDIATYPE_URL_STREAM?$AA@ 1008e7e4     strmbasd:wxdebug.obj
 0003:0000e800       ??_C@_0P@IJKKEJIF@MEDIATYPE_LMRT?$AA@ 1008e800     strmbasd:wxdebug.obj
 0003:0000e814       ??_C@_0BD@HEOKAEAB@MEDIATYPE_Timecode?$AA@ 1008e814     strmbasd:wxdebug.obj
 0003:0000e82c       ??_C@_0O@IIKKMLCI@MEDIATYPE_VBI?$AA@ 1008e82c     strmbasd:wxdebug.obj
 0003:0000e83c       ??_C@_0BG@GPAKKADI@MEDIATYPE_MSTVCaption?$AA@ 1008e83c     strmbasd:wxdebug.obj
 0003:0000e858       ??_C@_0BE@BMAIEHMC@MEDIATYPE_DTVCCData?$AA@ 1008e858     strmbasd:wxdebug.obj
 0003:0000e870       ??_C@_0BI@LHPNNCFA@MEDIATYPE_AUXLine21Data?$AA@ 1008e870     strmbasd:wxdebug.obj
 0003:0000e88c       ??_C@_0BI@NGGFNOBO@MEDIATYPE_ScriptCommand?$AA@ 1008e88c     strmbasd:wxdebug.obj
 0003:0000e8a8       ??_C@_0P@EOCKGGF@MEDIATYPE_File?$AA@ 1008e8a8     strmbasd:wxdebug.obj
 0003:0000e8bc       ??_C@_0BG@PLLKPBPH@MEDIATYPE_Interleaved?$AA@ 1008e8bc     strmbasd:wxdebug.obj
 0003:0000e8d8       ??_C@_0BB@OLAHKCOP@MEDIATYPE_Stream?$AA@ 1008e8d8     strmbasd:wxdebug.obj
 0003:0000e8ec       ??_C@_0P@NBJEIJMA@MEDIATYPE_Midi?$AA@ 1008e8ec     strmbasd:wxdebug.obj
 0003:0000e900       ??_C@_0P@BMOCPFID@MEDIATYPE_Text?$AA@ 1008e900     strmbasd:wxdebug.obj
 0003:0000e914       ??_C@_0BA@KLACJLKJ@MEDIATYPE_Audio?$AA@ 1008e914     strmbasd:wxdebug.obj
 0003:0000e928       ??_C@_0BA@BJNLCKGN@MEDIATYPE_Video?$AA@ 1008e928     strmbasd:wxdebug.obj
 0003:0000e93c       ??_C@_0BC@HCGAKKLE@MEDIASUBTYPE_None?$AA@ 1008e93c     strmbasd:wxdebug.obj
 0003:0000e954       ??_C@_07MOCABPOL@TIMEOUT?$AA@ 1008e954     strmbasd:wxdebug.obj
 0003:0000e960       ??_C@_07NFANNNEC@UNKNOWN?$AA@ 1008e960     strmbasd:wxdebug.obj
 0003:0000e96c       ??_C@_06FNIPBJLB@GLOBAL?$AA@ 1008e96c     strmbasd:wxdebug.obj
 0003:0000e974       ??_C@_0CE@LAICIHHE@SOFTWARE?2Microsoft?2DirectShow?2De@ 1008e974     strmbasd:wxdebug.obj
 0003:0000e9a0       ??_C@_07BCKPKEJE@CUSTOM5?$AA@ 1008e9a0     strmbasd:wxdebug.obj
 0003:0000e9ac       ??_C@_07LLEJFNF@CUSTOM4?$AA@ 1008e9ac     strmbasd:wxdebug.obj
 0003:0000e9b8       ??_C@_07EEPFADBC@CUSTOM3?$AA@ 1008e9b8     strmbasd:wxdebug.obj
 0003:0000e9c4       ??_C@_07FNOODCFD@CUSTOM2?$AA@ 1008e9c4     strmbasd:wxdebug.obj
 0003:0000e9d0       ??_C@_07HGMDGBJA@CUSTOM1?$AA@ 1008e9d0     strmbasd:wxdebug.obj
 0003:0000e9dc       ??_C@_05MBDEGLCK@ERROR?$AA@ 1008e9dc     strmbasd:wxdebug.obj
 0003:0000e9e4       ??_C@_07NDGDINIB@LOCKING?$AA@ 1008e9e4     strmbasd:wxdebug.obj
 0003:0000e9f0       ??_C@_06HPIPGHLH@MEMORY?$AA@ 1008e9f0     strmbasd:wxdebug.obj
 0003:0000e9f8       ??_C@_05EHILDPJH@TRACE?$AA@ 1008e9f8     strmbasd:wxdebug.obj
 0003:0000ea00       ??_C@_06BOBNEEMG@TIMING?$AA@ 1008ea00     strmbasd:wxdebug.obj
 0003:0000ea30       ?_szEntering@CAutoTrace@@0QBDB 1008ea30     strmbasd:wxdebug.obj
 0003:0000ea38       ?_szLeaving@CAutoTrace@@0QBDB 1008ea38     strmbasd:wxdebug.obj
 0003:0000ea84       ??_C@_0M@DJBECLOA@BreakOnLoad?$AA@ 1008ea84     strmbasd:wxdebug.obj
 0003:0000ea94       ??_C@_0BH@DIPCHAFJ@CloseHandle?$CIm_hOutput?$CJ?$AA@ 1008ea94     strmbasd:wxdebug.obj
 0003:0000eab0       ??_C@_0DE@HIBHBIGL@d?3?2sdk?2windows?2v6?40?2include?2base@ 1008eab0     strmbasd:wxdebug.obj
 0003:0000eaf0       ??_C@_0BL@CCJPGFCO@Could?5not?5create?5subkey?5?$CFs?$AA@ 1008eaf0     strmbasd:wxdebug.obj
 0003:0000eb10       ??_C@_07IMOCFCCO@?$CFs_?$CFd?$CFs?$AA@ 1008eb10     strmbasd:wxdebug.obj
 0003:0000eb1c       ??_C@_05LFHGFJK@?$CFs_?$CFd?$AA@ 1008eb1c     strmbasd:wxdebug.obj
 0003:0000eb24       ??_C@_03NDBKOPGH@Deb?$AA@  1008eb24     strmbasd:wxdebug.obj
 0003:0000eb28       ??_C@_08JLLDKAGD@Debugger?$AA@ 1008eb28     strmbasd:wxdebug.obj
 0003:0000eb34       ??_C@_05GCIPIGEI@Debug?$AA@ 1008eb34     strmbasd:wxdebug.obj
 0003:0000eb3c       ??_C@_0BF@FECOCKCB@ActiveX?5Debug?5Output?$AA@ 1008eb3c     strmbasd:wxdebug.obj
 0003:0000eb58       ??_C@_07PGLPGHFC@Console?$AA@ 1008eb58     strmbasd:wxdebug.obj
 0003:0000eb64       ??_C@_0BI@IFGAEAFB@CloseHandle?5?$CIm_hOutput?$CJ?$AA@ 1008eb64     strmbasd:wxdebug.obj
 0003:0000eb80       ??_C@_0CD@IDFJPJIF@Could?5not?5access?5GLOBAL?5module?5k@ 1008eb80     strmbasd:wxdebug.obj
 0003:0000ebac       ??_C@_05BMGBEOOC@?$CFs?2?$CFs?$AA@ 1008ebac     strmbasd:wxdebug.obj
 0003:0000ebb4       ??_C@_0BM@ELCDGFGI@Could?5not?5access?5module?5key?$AA@ 1008ebb4     strmbasd:wxdebug.obj
 0003:0000ebd8       ??_C@_0BH@KGFEGIFC@Application?5terminated?$AA@ 1008ebd8     strmbasd:wxdebug.obj
 0003:0000ebf4       ??_C@_0O@IPENLEFL@ASSERT?5Failed?$AA@ 1008ebf4     strmbasd:wxdebug.obj
 0003:0000ec04       ??_C@_0DB@IJHHBALG@?$CFs?5?6At?5line?5?$CFd?5of?5?$CFs?6Continue?$DP?5?$CI@ 1008ec04     strmbasd:wxdebug.obj
 0003:0000ec40       ??_C@_0BH@FHOEILMM@Hard?5coded?5break?5point?$AA@ 1008ec40     strmbasd:wxdebug.obj
 0003:0000ec60       ??_C@_0HJ@IODFIEAF@?$CCERROR?5in?5DbgBreakPoint?$CI?$CJ?4?5?5The?5@ 1008ec60     strmbasd:wxdebug.obj
 0003:0000ecf4       ??_C@_02PCIJFNDE@?$AN?6?$AA@ 1008ecf4     strmbasd:wxdebug.obj
 0003:0000ecf8       ??_C@_0BC@MKKPCFMN@?$CFs?$CItid?5?$CFx?$CJ?5?$CF8d?5?3?5?$AA@ 1008ecf8     strmbasd:wxdebug.obj
 0003:0000ed10       ??_C@_0CM@LEJDINKC@Assertion?5FAILED?5?$CI?$CFs?$CJ?5at?5line?5?$CFd@ 1008ed10     strmbasd:wxdebug.obj
 0003:0000ed44       ??_C@_0CE@NAFNGHPL@Object?5created?5?5?5?$CFd?5?$CI?$CFhs?$CJ?5?$CFd?5Act@ 1008ed44     strmbasd:wxdebug.obj
 0003:0000ed70       ??_C@_0CE@MJPBOIOA@Object?5created?5?5?5?$CFd?5?$CI?$CFls?$CJ?5?$CFd?5Act@ 1008ed70     strmbasd:wxdebug.obj
 0003:0000ed9c       ??_C@_0N@ECNGABEP@ObjectCookie?$AA@ 1008ed9c     strmbasd:wxdebug.obj
 0003:0000edac       ??_C@_07BPEKLLJB@pObject?$AA@ 1008edac     strmbasd:wxdebug.obj
 0003:0000edb8       ??_C@_0CB@MHEOPMBJ@?$CB?$CBszObjectName?5?$FO?5?$CB?$CBwszObjectName@ 1008edb8     strmbasd:wxdebug.obj
 0003:0000ede0       ??_C@_0CE@CFENFOBB@Object?5destroyed?5?$CFd?5?$CI?$CFhs?$CJ?5?$CFd?5Act@ 1008ede0     strmbasd:wxdebug.obj
 0003:0000ee0c       ??_C@_0CE@DMOBNBAK@Object?5destroyed?5?$CFd?5?$CI?$CFls?$CJ?5?$CFd?5Act@ 1008ee0c     strmbasd:wxdebug.obj
 0003:0000ee38       ??_C@_0CH@JICNNFMB@?$CCApparently?5destroying?5a?5bogus?5o@ 1008ee38     strmbasd:wxdebug.obj
 0003:0000ee68       ??_C@_0BH@OGBILCFB@Total?5object?5count?5?$CF5d?$AA@ 1008ee68     strmbasd:wxdebug.obj
 0003:0000ee84       ??_C@_0P@CFHBAGAJ@?$CF5d?5?$CI?$CFp?$CJ?5?$CF30hs?$AA@ 1008ee84     strmbasd:wxdebug.obj
 0003:0000ee98       ??_C@_0P@CCHIKONF@?$CF5d?5?$CI?$CFp?$CJ?5?$CF30ls?$AA@ 1008ee98     strmbasd:wxdebug.obj
 0003:0000eeac       ??_C@_0CF@GHOPLEP@?5?5?5ID?5?5?5?5?5?5?5?5?5?5?5?5?5Object?5Descrip@ 1008eeac     strmbasd:wxdebug.obj
 0003:0000eed8       ??_C@_0BO@EJFONMNE@dwWaitResult?5?$DN?$DN?5WAIT_OBJECT_0?$AA@ 1008eed8     strmbasd:wxdebug.obj
 0003:0000eefc       ??_C@_0DN@FHNLNICG@?$CIDWORD?$CJ?$CIdwWaitResult?5?9?5WAIT_OBJE@ 1008eefc     strmbasd:wxdebug.obj
 0003:0000ef48       ??_C@_0BC@LFFCHMHO@Unknown?5GUID?5Name?$AA@ 1008ef48     strmbasd:wxdebug.obj
 0003:0000ef60       ??_C@_09BNMENAPC@GUID_NULL?$AA@ 1008ef60     strmbasd:wxdebug.obj
 0003:0000ef6c       ??_C@_09EAJGGDCF@0x?$CFX?$CF8?48X?$AA@ 1008ef6c     strmbasd:wxdebug.obj
 0003:0000ef78       ??_C@_02KPKOKMHB@?$CFS?$AA@ 1008ef78     strmbasd:wxdebug.obj
 0003:0000ef7c       ??_C@_0N@EBDJBFIA@?$CFd?4?$CF3?43d?5sec?$AA@ 1008ef7c     strmbasd:wxdebug.obj
 0003:0000ef8c       ??_C@_08HCAOMAED@?$CFd?5mins?5?$AA@ 1008ef8c     strmbasd:wxdebug.obj
 0003:0000ef98       ??_C@_07PIFJIHFE@?$CFd?5hrs?5?$AA@ 1008ef98     strmbasd:wxdebug.obj
 0003:0000efa4       ??_C@_08KILPLFGM@?$CFd?5days?5?$AA@ 1008efa4     strmbasd:wxdebug.obj
 0003:0000efb0       ??_C@_01JOAMLHOP@?9?$AA@   1008efb0     strmbasd:wxdebug.obj
 0003:0000efb4       ??_C@_07GKAIEDGC@?$CFhs?$CI?$CFs?$CJ?$AA@ 1008efb4     strmbasd:wxdebug.obj
 0003:0000efc0       ??_C@_09HMGAOKCG@NULL?5IPin?$AA@ 1008efc0     strmbasd:wxdebug.obj
 0003:0000efcc       ??_C@_07LHKCONKL@?$CFd?4?$CF03d?$AA@ 1008efcc     strmbasd:wxdebug.obj
 0003:0000efd8       __real@408f400000000000    1008efd8     strmbasd:wxdebug.obj
 0003:0000efe4       ??_C@_09KGCAAMNH@cbSize?5?$CFu?$AA@ 1008efe4     strmbasd:wxdebug.obj
 0003:0000eff0       ??_C@_0BC@IEFMGKIJ@wBitsPerSample?5?$CFu?$AA@ 1008eff0     strmbasd:wxdebug.obj
 0003:0000f008       ??_C@_0P@KGIEPGHO@nBlockAlign?5?$CFu?$AA@ 1008f008     strmbasd:wxdebug.obj
 0003:0000f01c       ??_C@_0BE@PKKOHEJC@nAvgBytesPerSec?5?$CFlu?$AA@ 1008f01c     strmbasd:wxdebug.obj
 0003:0000f034       ??_C@_0BD@NIFADKHN@nSamplesPerSec?5?$CFlu?$AA@ 1008f034     strmbasd:wxdebug.obj
 0003:0000f04c       ??_C@_0N@BCKHGKOF@nChannels?5?$CFu?$AA@ 1008f04c     strmbasd:wxdebug.obj
 0003:0000f05c       ??_C@_0O@PEMBFAEN@wFormatTag?5?$CFu?$AA@ 1008f05c     strmbasd:wxdebug.obj
 0003:0000f06c       ??_C@_0BB@FGCLHOHD@?5?5?5?5?5Subtype?5?$CFhs?$AA@ 1008f06c     strmbasd:wxdebug.obj
 0003:0000f080       ??_C@_0BF@EDICPDBC@?5?5?5?5?5Format?5type?5?$CFhs?$AA@ 1008f080     strmbasd:wxdebug.obj
 0003:0000f09c       ??_C@_0BE@BONDOKLK@Aspect?5Ratio?3?5?$CFd?3?$CFd?$AA@ 1008f09c     strmbasd:wxdebug.obj
 0003:0000f0b4       ??_C@_0BB@NFPHGODG@Target?5rectangle?$AA@ 1008f0b4     strmbasd:wxdebug.obj
 0003:0000f0c8       ??_C@_0BB@JLKPMHID@Source?5rectangle?$AA@ 1008f0c8     strmbasd:wxdebug.obj
 0003:0000f0dc       ??_C@_0BG@OFHPJPGD@Variable?5size?5samples?$AA@ 1008f0dc     strmbasd:wxdebug.obj
 0003:0000f0f8       ??_C@_0P@HMMBKCPJ@Sample?5size?5?$CFd?$AA@ 1008f0f8     strmbasd:wxdebug.obj
 0003:0000f10c       ??_C@_0BK@JCEJBBGH@Not?5temporally?5compressed?$AA@ 1008f10c     strmbasd:wxdebug.obj
 0003:0000f12c       ??_C@_0BG@JGOEEIFH@Temporally?5compressed?$AA@ 1008f12c     strmbasd:wxdebug.obj
 0003:0000f148       ??_C@_0BH@DGBNELMC@Subtype?5description?5?$CFs?$AA@ 1008f148     strmbasd:wxdebug.obj
 0003:0000f164       ??_C@_0BL@IIONCMGB@?$CFs?5?5M?5type?5?$CFhs?5?5S?5type?5?$CFhs?$AA@ 1008f164     strmbasd:wxdebug.obj
 0003:0000f184       ??_C@_0BA@JKFJFPON@Colours?5used?5?$CFd?$AA@ 1008f184     strmbasd:wxdebug.obj
 0003:0000f198       ??_C@_0BE@OKGEJHBC@Y?5Pels?5per?5metre?5?$CFd?$AA@ 1008f198     strmbasd:wxdebug.obj
 0003:0000f1b0       ??_C@_0BE@IPADKMFE@X?5Pels?5per?5metre?5?$CFd?$AA@ 1008f1b0     strmbasd:wxdebug.obj
 0003:0000f1c8       ??_C@_09KBJAHFIM@Planes?5?$CFd?$AA@ 1008f1c8     strmbasd:wxdebug.obj
 0003:0000f1d4       ??_C@_0O@KPOMBGKL@Image?5size?5?$CFd?$AA@ 1008f1d4     strmbasd:wxdebug.obj
 0003:0000f1e4       ??_C@_0BG@GDLPIJJG@?$CFdx?$CFdx?$CFd?5bit?5?8?$CF4?44hs?8?$AA@ 1008f1e4     strmbasd:wxdebug.obj
 0003:0000f200       ??_C@_0BD@IEKJNPPH@?$CFdx?$CFdx?$CFd?5bit?5?5?$CI?$CFd?$CJ?$AA@ 1008f200     strmbasd:wxdebug.obj
 0003:0000f218       ??_C@_0CA@GFGNOKP@Size?5of?5BITMAPINFO?5structure?5?$CFd?$AA@ 1008f218     strmbasd:wxdebug.obj
 0003:0000f240       ??_C@_0CH@JOLCLCPN@?$CFs?5?$CILeft?5?$CFd?5Top?5?$CFd?5Right?5?$CFd?5Bott@ 1008f240     strmbasd:wxdebug.obj
 0003:0000f270       ??_C@_0CC@JNMOOFMF@?5?5?5?5?5?5?5?5?5?5Pin?5?$FL?$CFx?$FN?5?5?8?$CFls?8?5?$FL?$CFsput@ 1008f270     strmbasd:wxdebug.obj
 0003:0000f298       ??_C@_0BA@EEECFLJF@Connection?5type?$AA@ 1008f298     strmbasd:wxdebug.obj
 0003:0000f2ac       ??_C@_0DJ@ILAIPHBJ@?5?5?5?5?5?5?5?5?5?5Pin?5?$FL?$CFp?$FN?5?5?8?$CFls?8?5?$FL?$CFsput@ 1008f2ac     strmbasd:wxdebug.obj
 0003:0000f2f0       ??_C@_03EKFHOMB@Out?$AA@   1008f2f0     strmbasd:wxdebug.obj
 0003:0000f2f4       ??_C@_02IEILNGIL@In?$AA@   1008f2f4     strmbasd:wxdebug.obj
 0003:0000f2f8       ??_C@_0CL@IIPIPNJO@?5?5?5?5?5?5?5?5?5?5Pin?5?$FL?$CFx?$FN?5?5?9?9?5failed?5Qu@ 1008f2f8     strmbasd:wxdebug.obj
 0003:0000f32c       ??_C@_0BB@COFOFMDA@EnumPins?5failed?$CB?$AA@ 1008f32c     strmbasd:wxdebug.obj
 0003:0000f340       ??_C@_0BH@HGNGBMMI@?5?5?5?5Filter?5?$FL?$CFp?$FN?5?5?8?$CFls?8?$AA@ 1008f340     strmbasd:wxdebug.obj
 0003:0000f35c       ??_C@_0CL@KAJEBEAJ@?5?5?5?5Filter?5?$FL?$CFp?$FN?5?5?9?9?5failed?5Query@ 1008f35c     strmbasd:wxdebug.obj
 0003:0000f390       ??_C@_0BE@MGFDELGJ@EnumFilters?5failed?$CB?$AA@ 1008f390     strmbasd:wxdebug.obj
 0003:0000f3a8       ??_C@_0P@LDFIOFNH@DumpGraph?5?$FL?$CFx?$FN?$AA@ 1008f3a8     strmbasd:wxdebug.obj
 0003:0000f3bc       ??_C@_08ONPKPDBK@pbFormat?$AA@ 1008f3bc     strmbasd:mtype.obj
 0003:0000f3c8       ??_C@_0DC@IFDPANGN@d?3?2sdk?2windows?2v6?40?2include?2base@ 1008f3c8     strmbasd:mtype.obj
 0003:0000f404       ??_C@_06IJDLPEM@length?$AA@ 1008f404     strmbasd:mtype.obj
 0003:0000f40c       ??_C@_04BCMMDL@pSrc?$AA@   1008f40c     strmbasd:mtype.obj
 0003:0000f414       ??_C@_0BM@FIBHLPOL@pmtSource?9?$DOpbFormat?5?$CB?$DN?5NULL?$AA@ 1008f414     strmbasd:mtype.obj
 0003:0000f438       ??_C@_0BH@EHPEIDAL@pmtSource?5?$CB?$DN?5pmtTarget?$AA@ 1008f438     strmbasd:mtype.obj
 0003:0000f454       ??_C@_0L@OCBNGEPJ@pn?5?$CB?$DN?5NULL?$AA@ 1008f454     strmbasd:wxlist.obj
 0003:0000f464       ??_C@_0DD@IEKLOMAN@d?3?2sdk?2windows?2v6?40?2include?2base@ 1008f464     strmbasd:wxlist.obj
 0003:0000f4a4       ??_C@_0N@DHIHFKG@m_Count?5?$DO?$DN?50?$AA@ 1008f4a4     strmbasd:wxlist.obj
 0003:0000f4b4       ??_C@_0BB@LLPIJHCH@pCurrent?5?$CB?$DN?5NULL?$AA@ 1008f4b4     strmbasd:wxlist.obj
 0003:0000f4c8       ??_C@_09EHHEPCEC@List?5node?$AA@ 1008f4c8     strmbasd:wxlist.obj
 0003:0000f4d4       ??_C@_0N@BGJEDDMG@m_iUsed?5?$DN?$DN?50?$AA@ 1008f4d4     strmbasd:wxlist.obj
 0003:0000f4e4       ??_C@_0N@FBDEEJBG@m_iUsed?5?$DO?$DN?50?$AA@ 1008f4e4     strmbasd:wxlist.obj
 0003:0000f4f4       ??_C@_0DB@MEAPPCNK@d?3?2sdk?2windows?2v6?40?2include?2base@ 1008f4f4     strmbasd:wxlist.obj
 0003:0000f530       ??_C@_0BA@IEBILCDN@pBefore?5?$CB?$DN?5NULL?$AA@ 1008f530     strmbasd:wxlist.obj
 0003:0000f544       ??_C@_0P@OPMKKMDO@pAfter?5?$CB?$DN?5NULL?$AA@ 1008f544     strmbasd:wxlist.obj
 0003:0000f558       ??_C@_0BB@KOAEFPM@m_pGraph?5?$DN?$DN?5NULL?$AA@ 1008f558     strmbasd:amfilter.obj
 0003:0000f56c       ??_C@_0DF@DNFKAKLK@d?3?2sdk?2windows?2v6?40?2include?2base@ 1008f56c     strmbasd:amfilter.obj
 0003:0000f5ac       ??_C@_0O@BOICKNDA@pLock?5?$CB?$DN?5NULL?$AA@ 1008f5ac     strmbasd:amfilter.obj
 0003:0000f5bc       ??_C@_0BA@FFFCMILP@m_pSink?5?$DN?$DN?5NULL?$AA@ 1008f5bc     strmbasd:amfilter.obj
 0003:0000f5d0       ??_C@_0O@LGHHDKBB@SUCCEEDED?$CIhr?$CJ?$AA@ 1008f5d0     strmbasd:amfilter.obj
 0003:0000f5e0       ??_C@_0BJ@MKAJLHBN@m_Position?5?$DM?$DN?5m_PinCount?$AA@ 1008f5e0     strmbasd:amfilter.obj
 0003:0000f600       ??_C@_0BA@CBPLCCHO@pFilter?5?$CB?$DN?5NULL?$AA@ 1008f600     strmbasd:amfilter.obj
 0003:0000f614       ??_C@_09KMAIHLO@CEnumPins?$AA@ 1008f614     strmbasd:amfilter.obj
 0003:0000f620       ??_C@_09FDONGID@Pin?5Cache?$AA@ 1008f620     strmbasd:amfilter.obj
 0003:0000f630       ??_7CEnumPins@@6B@         1008f630     strmbasd:amfilter.obj
 0003:0000f658       ??_C@_0M@FMJIIDNL@cFetched?$DN?$DN0?$AA@ 1008f658     strmbasd:amfilter.obj
 0003:0000f668       ??_C@_06LNLPEGDG@ppPins?$AA@ 1008f668     strmbasd:amfilter.obj
 0003:0000f670       ??_C@_0N@NFNKEPFB@pPin?5?$CB?$DN?5NULL?$AA@ 1008f670     strmbasd:amfilter.obj
 0003:0000f680       ??_C@_0BA@DAPKLHAE@CEnumMediaTypes?$AA@ 1008f680     strmbasd:amfilter.obj
 0003:0000f698       ??_7CEnumMediaTypes@@6B@   1008f698     strmbasd:amfilter.obj
 0003:0000f6c0       __real@3ff0000000000000    1008f6c0     strmbasd:amfilter.obj
 0003:0000f6cc       ??_C@_0M@HENPFFHJ@m_cRef?5?$DN?$DN?50?$AA@ 1008f6cc     strmbasd:amfilter.obj
 0003:0000f6dc       ??_C@_0BF@GMAMMDPK@m_Connected?5?$DN?$DN?5FALSE?$AA@ 1008f6dc     strmbasd:amfilter.obj
 0003:0000f6f8       ??_C@_0CC@DIJEAMNO@InterlockedIncrement?$CI?$CGm_cRef?$CJ?5?$DO?5@ 1008f6f8     strmbasd:amfilter.obj
 0003:0000f720       ??_C@_0CD@EMDCMMMD@InterlockedDecrement?$CI?$CGm_cRef?$CJ?5?$DO?$DN@ 1008f720     strmbasd:amfilter.obj
 0003:0000f74c       ??_C@_09PLAJKPFN@?5?5?5?5?$DM?$CFls?$DO?$AA@ 1008f74c     strmbasd:amfilter.obj
 0003:0000f758       ??_C@_0BJ@IECOIAAB@Trying?5to?5connect?5Pins?5?3?$AA@ 1008f758     strmbasd:amfilter.obj
 0003:0000f778       ??_C@_1BA@GOGFHAKP@?$AAB?$AAa?$AAd?$AA?5?$AAP?$AAi?$AAn?$AA?$AA@ 1008f778     strmbasd:amfilter.obj
 0003:0000f78c       ??_C@_0BF@JDEBBJBL@?5?5?5?5sub?5type?5?5?3?5?5?$CFhs?$AA@ 1008f78c     strmbasd:amfilter.obj
 0003:0000f7a8       ??_C@_0BF@LANFKFDC@?5?5?5?5major?5type?3?5?5?$CFhs?$AA@ 1008f7a8     strmbasd:amfilter.obj
 0003:0000f7c4       ??_C@_0BD@ECMHAOHB@Trying?5media?5type?3?$AA@ 1008f7c4     strmbasd:amfilter.obj
 0003:0000f7dc       ??_C@_0BF@IFMPLJBL@Connection?5succeeded?$AA@ 1008f7dc     strmbasd:amfilter.obj
 0003:0000f7f8       ??_C@_0CD@HALFJJBB@?$CI?$CI?$CIHRESULT?$CJ?$CIBreakConnect?$CI?$CJ?$CJ?$CJ?5?$DO?$DN?5@ 1008f7f8     strmbasd:amfilter.obj
 0003:0000f824       ??_C@_0BF@PEDFIINA@Failed?5to?5agree?5type?$AA@ 1008f824     strmbasd:amfilter.obj
 0003:0000f840       ??_C@_0BC@GIMHDJLL@Already?5connected?$AA@ 1008f840     strmbasd:amfilter.obj
 0003:0000f858       ??_C@_0BO@BCPCDBCE@Failed?5to?5complete?5connection?$AA@ 1008f858     strmbasd:amfilter.obj
 0003:0000f87c       ??_C@_0BE@LCMAGEHK@CheckConnect?5failed?$AA@ 1008f87c     strmbasd:amfilter.obj
 0003:0000f894       ??_C@_0BF@BLLJGJCH@CritCheckIn?$CIm_pLock?$CJ?$AA@ 1008f894     strmbasd:amfilter.obj
 0003:0000f8b0       ??_C@_0L@JBCFODM@pMediaType?$AA@ 1008f8b0     strmbasd:amfilter.obj
 0003:0000f8c0       ??_C@_0BC@JOLNHN@ulMediaCount?5?$DN?$DN?51?$AA@ 1008f8c0     strmbasd:amfilter.obj
 0003:0000f8d8       ??_C@_0BA@OICKEGBF@pEnumMediaTypes?$AA@ 1008f8d8     strmbasd:amfilter.obj
 0003:0000f8ec       ??_C@_0M@KPGLKGPI@pReceivePin?$AA@ 1008f8ec     strmbasd:amfilter.obj
 0003:0000f8fc       ??_C@_0DE@JBAMPMOB@?$CIm_dir?5?$DN?$DN?5PINDIR_OUTPUT?$CJ?5?$HM?$HM?5?$CIm_d@ 1008f8fc     strmbasd:amfilter.obj
 0003:0000f93c       ??_C@_0CO@EHCNEINJ@?$CIpd?5?$DN?$DN?5PINDIR_OUTPUT?$CJ?5?$HM?$HM?5?$CIpd?5?$DN?$DN?5@ 1008f93c     strmbasd:amfilter.obj
 0003:0000f978       ??_C@_0ED@HDONFHJK@Failed?5to?5set?5the?5media?5type?5or?5@ 1008f978     strmbasd:amfilter.obj
 0003:0000f9c8       ??_C@_0DM@IPLEANNH@?$CCWARNING?3?5BreakConnect?$CI?$CJ?5failed?5@ 1008f9c8     strmbasd:amfilter.obj
 0003:0000fa10       ??_C@_0P@CDMMNOJN@?$CKppPin?5?$DN?$DN?5NULL?$AA@ 1008fa10     strmbasd:amfilter.obj
 0003:0000fa28       ??_C@_0EJ@ICLIFKEG@?$CCIQualityControl?3?3Notify?5not?5ove@ 1008fa28     strmbasd:amfilter.obj
 0003:0000fa80       ??_C@_07NFCHBAOP@pFilter?$AA@ 1008fa80     strmbasd:amfilter.obj
 0003:0000fa8c       ??_C@_0BF@ONPHEPOG@m_pAllocator?5?$CB?$DN?5NULL?$AA@ 1008fa8c     strmbasd:amfilter.obj
 0003:0000faa8       ??_C@_07LEMCCABF@pSample?$AA@ 1008faa8     strmbasd:amfilter.obj
 0003:0000fab4       ??_C@_0BD@CMDGEHDA@pConnected?5?$CB?$DN?5NULL?$AA@ 1008fab4     strmbasd:amfilter.obj
 0003:0000facc       ??_C@_0N@IIHJGLJB@?$CBm_bFlushing?$AA@ 1008facc     strmbasd:amfilter.obj
 0003:0000fadc       ??_C@_0M@JCDAHJAM@m_bFlushing?$AA@ 1008fadc     strmbasd:amfilter.obj
 0003:0000faec       ??_C@_0CK@HAFJLHLA@?$CCIQuality?3?3Notify?5called?5on?5an?5i@ 1008faec     strmbasd:amfilter.obj
 0003:0000fb20       ??_C@_0O@DMKDFAGC@IsConnected?$CI?$CJ?$AA@ 1008fb20     strmbasd:amfilter.obj
 0003:0000fb30       ??_C@_0CP@BJEDPMKO@Passing?5Quality?5notification?5thr@ 1008fb30     strmbasd:amfilter.obj
 0003:0000fb68       ??_C@_0L@MLCCAIJN@pAllocator?$AA@ 1008fb68     strmbasd:amfilter.obj
 0003:0000fb7c       ??_7CMediaSample@@6B@      1008fb7c     strmbasd:amfilter.obj
 0003:0000fbe8       ??_C@_0BF@HHKOOMAL@m_pMediaType?5?$DN?$DN?5NULL?$AA@ 1008fbe8     strmbasd:amfilter.obj
 0003:0000fc04       ??_C@_0BK@JMLJONNF@?5?5?5?5Unknown?5?$CFX?5ref?9?9?5?$DN?5?$CFd?$AA@ 1008fc04     strmbasd:amfilter.obj
 0003:0000fc24       ??_C@_09OKIGMHNB@m_pBuffer?$AA@ 1008fc24     strmbasd:amfilter.obj
 0003:0000fc30       ??_C@_0BJ@EJIFAGNN@?$CKpTimeEnd?5?$DO?$DN?5?$CKpTimeStart?$AA@ 1008fc30     strmbasd:amfilter.obj
 0003:0000fc50       ??_C@_0BB@EMGIDBAL@pTimeEnd?5?$DN?$DN?5NULL?$AA@ 1008fc50     strmbasd:amfilter.obj
 0003:0000fc64       ??_C@_0BF@FONFEAMI@lActual?5?$DM?$DN?5GetSize?$CI?$CJ?$AA@ 1008fc64     strmbasd:amfilter.obj
 0003:0000fc80       ??_C@_0N@GKNBNGAP@m_pMediaType?$AA@ 1008fc80     strmbasd:amfilter.obj
 0003:0000fc90       ??_C@_0M@DNAKKIEL@ppMediaType?$AA@ 1008fc90     strmbasd:amfilter.obj
 0003:0000fca4       ??_7CDynamicOutputPin@@6B@ 1008fca4     strmbasd:amfilter.obj
 0003:0000fcbc       ??_7CDynamicOutputPin@@6BIQualityControl@@@ 1008fcbc     strmbasd:amfilter.obj
 0003:0000fcdc       ??_7CDynamicOutputPin@@6BIPin@@@ 1008fcdc     strmbasd:amfilter.obj
 0003:0000fd3c       ??_7CDynamicOutputPin@@6BCUnknown@@@ 1008fd3c     strmbasd:amfilter.obj
 0003:0000fdbc       ??_C@_0CA@KBNGNLF@StreamingThreadUsingOutputPin?$CI?$CJ?$AA@ 1008fdbc     strmbasd:amfilter.obj
 0003:0000fde4       ??_C@_0DD@CEGIAMNB@d?3?2sdk?2windows?2v6?40?2include?2base@ 1008fde4     strmbasd:amfilter.obj
 0003:0000fe24       ??_C@_0CO@IBNDMNMM@?3?3CloseHandle?$CIm_hNotifyCallerPin@ 1008fe24     strmbasd:amfilter.obj
 0003:0000fe5c       ??_C@_0CI@HFKNHNAB@?3?3CloseHandle?$CIm_hUnblockOutputPi@ 1008fe5c     strmbasd:amfilter.obj
 0003:0000fe8c       ??_C@_0CM@HGIEIKAB@?3?3CloseHandle?$CIhNotifyCallerPinBl@ 1008fe8c     strmbasd:amfilter.obj
 0003:0000fec0       ??_C@_0CL@DGGMKEKA@?3?3SetEvent?$CIm_hNotifyCallerPinBlo@ 1008fec0     strmbasd:amfilter.obj
 0003:0000fef4       ??_C@_0CH@NKJIFPEF@?3?3ResetEvent?$CIm_hUnblockOutputPin@ 1008fef4     strmbasd:amfilter.obj
 0003:0000ff24       ??_C@_0CB@DHHOJDED@?$CBStreamingThreadUsingOutputPin?$CI?$CJ@ 1008ff24     strmbasd:amfilter.obj
 0003:0000ff4c       ??_C@_0BP@PLECBKNH@CritCheckIn?$CI?$CGm_BlockStateLock?$CJ?$AA@ 1008ff4c     strmbasd:amfilter.obj
 0003:0000ff74       ??_C@_0CF@PGBCOMMJ@?3?3SetEvent?$CIm_hUnblockOutputPinEv@ 1008ff74     strmbasd:amfilter.obj
 0003:0000ffa0       ??_C@_0EK@FKDGCBDO@?$CCAn?5Unexpected?5case?5occured?5in?5C@ 1008ffa0     strmbasd:amfilter.obj
 0003:0000fff8       ??_C@_0CC@LDLCOCBI@CritCheckOut?$CI?5?$CGm_BlockStateLock?5@ 1008fff8     strmbasd:amfilter.obj
 0003:00010020       ??_C@_0CA@EJOJGGHL@CritCheckOut?$CI?$CGm_BlockStateLock?$CJ?$AA@ 10090020     strmbasd:amfilter.obj
 0003:00010048       ??_C@_0BJ@MMDAACGA@ResetEvent?$CIm_hStopEvent?$CJ?$AA@ 10090048     strmbasd:amfilter.obj
 0003:00010068       ??_C@_0JB@BDJCECMA@ERROR?3?5CDynamicOutputPin?3?3Active@ 10090068     strmbasd:amfilter.obj
 0003:00010118       ??_C@_0BH@BGMPEBEO@SetEvent?$CIm_hStopEvent?$CJ?$AA@ 10090118     strmbasd:amfilter.obj
 0003:00010134       ??_C@_0M@GBELBEDB@NULL?5?$CB?$DN?5pmt?$AA@ 10090134     strmbasd:amfilter.obj
 0003:00010144       ??_C@_0N@NCAKECCL@?$CBIsStopped?$CI?$CJ?$AA@ 10090144     strmbasd:amfilter.obj
 0003:00010154       ??_C@_0CK@KAHIOIIL@?3?3IsEqualObject?$CIm_Connected?0?5m_p@ 10090154     strmbasd:amfilter.obj
 0003:00010188       ??_C@_0BO@KAJDILGO@hr?5?$CB?$DN?5VFW_E_ALREADY_COMMITTED?$AA@ 10090188     strmbasd:amfilter.obj
 0003:000101b0       ??_C@_0OD@FJJDHFKC@?$CI?$CI0?5?$CB?$DN?5m_dwNumOutstandingOutputP@ 100901b0     strmbasd:amfilter.obj
 0003:000102c0       ??_C@_0EA@CAMJDDMB@?$CI0?5?$DN?$DN?5m_dwBlockCallerThreadID?$CJ?5?$HM@ 100902c0     strmbasd:amfilter.obj
 0003:00010310       ??_C@_0JD@HAKFIKFP@?$CI?$CINULL?5?$DN?$DN?5m_hNotifyCallerPinBloc@ 10090310     strmbasd:amfilter.obj
 0003:000103c0       ??_C@_0FI@EBAPPGNP@?$CINOT_BLOCKED?5?$DN?$DN?5m_BlockState?$CJ?5?$HM?$HM@ 100903c0     strmbasd:amfilter.obj
 0003:0001042c       ??_C@_0BH@EDMDJDPC@NULL?5?$CB?$DN?5m_pGraphConfig?$AA@ 1009042c     strmbasd:amfilter.obj
 0003:00010448       ??_C@_0BF@NNOADAPI@NULL?5?$CB?$DN?5m_hStopEvent?$AA@ 10090448     strmbasd:amfilter.obj
 0003:00010464       ??_C@_0CB@EBHNLNBJ@NULL?5?$CB?$DN?5m_hUnblockOutputPinEvent@ 10090464     strmbasd:amfilter.obj
 0003:00010490       ??_C@_0EA@GKINKBNP@?$CCAn?5Unexpected?5case?5occured?5in?5C@ 10090490     strmbasd:amfilter.obj
 0003:000104dc       ??_C@_0BE@BGKCMNFG@CloseHandle?$CIm_hSem?$CJ?$AA@ 100904dc     strmbasd:amfilter.obj
 0003:000104f4       ??_C@_0O@KOAGKNJF@?$CBm_bCommitted?$AA@ 100904f4     strmbasd:amfilter.obj
 0003:00010504       ??_C@_0P@KGCKGMDJ@m_nOnList?5?$DN?$DN?50?$AA@ 10090504     strmbasd:amfilter.obj
 0003:00010518       ??_C@_0CE@IBAKIOOC@Alignment?5requested?5was?50x?$CFx?0?5no@ 10090518     strmbasd:amfilter.obj
 0003:00010544       ??_C@_0BH@JGHNDBDF@pRequest?9?$DOcbBuffer?5?$DO?50?$AA@ 10090544     strmbasd:amfilter.obj
 0003:00010560       ??_C@_0BF@LIDFPFDG@pSample?9?$DOm_cRef?5?$DN?$DN?50?$AA@ 10090560     strmbasd:amfilter.obj
 0003:0001057c       ??_C@_0P@LKGFMMDD@m_hSem?5?$CB?$DN?5NULL?$AA@ 1009057c     strmbasd:amfilter.obj
 0003:00010590       ??_C@_0BJ@CLIJNGNK@m_fEnableReleaseCallback?$AA@ 10090590     strmbasd:amfilter.obj
 0003:000105b0       ??_C@_0BA@FOIFLGC@pSample?5?$CB?$DN?5NULL?$AA@ 100905b0     strmbasd:amfilter.obj
 0003:000105c4       ??_C@_0BE@MBBHCIJL@Allocating?3?5?$CFldx?$CFld?$AA@ 100905c4     strmbasd:amfilter.obj
 0003:000105dc       ??_C@_0CD@GIMIEABF@m_lFree?4GetCount?$CI?$CJ?5?$DN?$DN?5m_lAllocat@ 100905dc     strmbasd:amfilter.obj
 0003:00010608       ??_C@_0BP@JGDJOBKK@?$CCCouldn?8t?5find?5sample?5in?5list?$CC?$AA@ 10090608     strmbasd:amfilter.obj
 0003:00010630       ??_C@_0O@GDPEHBJN@CMemAllocator?$AA@ 10090630     strmbasd:amfilter.obj
 0003:00010644       ??_7CMemAllocator@@6BIMemAllocatorCallbackTemp@@@ 10090644     strmbasd:amfilter.obj
 0003:00010680       ??_7CMemAllocator@@6BCUnknown@@@ 10090680     strmbasd:amfilter.obj
 0003:000106a0       ??_C@_0DG@NPHEDJPH@Invalid?5alignment?50x?$CFx?5requested@ 100906a0     strmbasd:amfilter.obj
 0003:000106e0       ??_C@_0CL@LNGIDCNP@Alignment?5requested?50x?$CFx?5not?5a?5p@ 100906e0     strmbasd:amfilter.obj
 0003:00010714       ??_C@_0BM@PEKLFGKK@Default?5memory?5media?5sample?$AA@ 10090714     strmbasd:amfilter.obj
 0003:00010738       ??_C@_0BC@IDCMGKLO@m_lAllocated?5?$DN?$DN?50?$AA@ 10090738     strmbasd:amfilter.obj
 0003:00010750       ??_C@_0CB@KIFAMINK@lAlignedSize?5?$CF?5m_lAlignment?5?$DN?$DN?50@ 10090750     strmbasd:amfilter.obj
 0003:00010778       ??_C@_0L@FKGEJPLM@hr?5?$DN?$DN?5S_OK?$AA@ 10090778     strmbasd:amfilter.obj
 0003:00010788       ??_C@_0CC@MJKNEKLN@VirtualFree?$CIm_pBuffer?0?50?0?50x8000@ 10090788     strmbasd:amfilter.obj
 0003:000107b0       ??_C@_0CD@LNGGDECK@m_lAllocated?5?$DN?$DN?5m_lFree?4GetCount@ 100907b0     strmbasd:amfilter.obj
 0003:000107dc       ??_C@_0BO@GPLEEAMC@?$DN?5?$DN?5register?5filter?5pin?5types?$AA@ 100907dc     strmbasd:amfilter.obj
 0003:00010800       ??_C@_0BJ@PGKLOBCA@?$DN?5?$DN?5register?5filter?5pins?$AA@ 10090800     strmbasd:amfilter.obj
 0003:00010820       ??_C@_0BE@FMPEMCKA@?$DN?5?$DN?5register?5filter?$AA@ 10090820     strmbasd:amfilter.obj
 0003:00010838       ??_C@_0BG@ONMIHFJ@?$DN?5?$DN?5unregister?5filter?$AA@ 10090838     strmbasd:amfilter.obj
 0003:00010854       ??_C@_0BM@BFNKPDEC@?$DN?5AMovieSetupRegisterFilter?$AA@ 10090854     strmbasd:amfilter.obj
 0003:00010878       ??_C@_07HJIBAMPC@p?$DN?$DNNULL?$AA@ 10090878     strmbasd:amfilter.obj
 0003:00010884       ??_C@_0DB@DGPMMKNB@d?3?2sdk?2windows?2v6?40?2include?2base@ 10090884     strmbasd:amfilter.obj
 0003:000108c0       ??_C@_07NJPPPKEI@p?$CB?$DNNULL?$AA@ 100908c0     strmbasd:amfilter.obj
 0003:000108cc       ??_C@_0BG@KJHFPPJO@CloseHandle?$CIm_hEvent?$CJ?$AA@ 100908cc     strmbasd:wxutil.obj
 0003:000108e8       ??_C@_0DD@EPFNHPKL@d?3?2sdk?2windows?2v6?40?2include?2base@ 100908e8     strmbasd:wxutil.obj
 0003:00010928       ??_C@_0BH@DPEMINBP@CoInitializeEx?5failed?4?$AA@ 10090928     strmbasd:wxutil.obj
 0003:00010944       ??_C@_0BD@IHLOMIBA@SetEvent?$CIm_hEvent?$CJ?$AA@ 10090944     strmbasd:wxutil.obj
 0003:0001095c       ??_C@_0BM@CJMGMFCM@?$CCcouldn?8t?5locate?5ole32?4dll?$CC?$AA@ 1009095c     strmbasd:wxutil.obj
 0003:00010980       ??_C@_0P@KHOCNDJK@CoInitializeEx?$AA@ 10090980     strmbasd:wxutil.obj
 0003:00010994       ??_C@_09IMMMOKKM@ole32?4dll?$AA@ 10090994     strmbasd:wxutil.obj
 0003:000109a0       ??_C@_0BH@KCCODIHN@CloseHandle?$CIm_hThread?$CJ?$AA@ 100909a0     strmbasd:wxutil.obj
 0003:000109bc       ??_C@_02DPKJAMEF@?$CFd?$AA@ 100909bc     strmbasd:wxutil.obj
 0003:000109c0       ??_C@_0BL@LMBLKEFK@Thread?5?$CFd?5now?5owns?5lock?5?$CFx?$AA@ 100909c0     strmbasd:wxutil.obj
 0003:000109e0       ??_C@_0DA@FCBJHDEG@Thread?5?$CFd?5about?5to?5wait?5for?5lock@ 100909e0     strmbasd:wxutil.obj
 0003:00010a1c       ??_C@_0BM@KOOPACMC@Thread?5?$CFd?5releasing?5lock?5?$CFx?$AA@ 10090a1c     strmbasd:wxutil.obj
 0003:00010a40       ??_C@_09DCLMMBAA@AMUnblock?$AA@ 10090a40     strmbasd:wxutil.obj
 0003:00010a4c       ??_C@_1BA@HABJOAEE@?$AAU?$AAN?$AAK?$AAN?$AAO?$AAW?$AAN?$AA?$AA@ 10090a4c     strmbasd:amvideo.obj
 0003:00010a60       ??_C@_1BA@LBOLBFDJ@?$AAO?$AAv?$AAe?$AAr?$AAl?$AAa?$AAy?$AA?$AA@ 10090a60     strmbasd:amvideo.obj
 0003:00010a74       ??_C@_07PIOLBDJD@Overlay?$AA@ 10090a74     strmbasd:amvideo.obj
 0003:00010a80       ??_C@_1BA@KKDJHCGM@?$AAA?$AAR?$AAG?$AAB?$AA?5?$AA3?$AA2?$AA?$AA@ 10090a80     strmbasd:amvideo.obj
 0003:00010a94       ??_C@_07JAKBILAA@ARGB?532?$AA@ 10090a94     strmbasd:amvideo.obj
 0003:00010aa0       ??_C@_1O@BHCPCHJF@?$AAR?$AAG?$AAB?$AA?5?$AA3?$AA2?$AA?$AA@ 10090aa0     strmbasd:amvideo.obj
 0003:00010ab0       ??_C@_06INNIEJGE@RGB?532?$AA@ 10090ab0     strmbasd:amvideo.obj
 0003:00010ab8       ??_C@_1O@PJBIKLOM@?$AAR?$AAG?$AAB?$AA?5?$AA2?$AA4?$AA?$AA@ 10090ab8     strmbasd:amvideo.obj
 0003:00010ac8       ??_C@_06NKEAIENF@RGB?524?$AA@ 10090ac8     strmbasd:amvideo.obj
 0003:00010ad0       ??_C@_1CC@CHFLHMKC@?$AAR?$AAG?$AAB?$AA?5?$AA5?$AA5?$AA5?$AA?5?$AA?$CI?$AA1?$AA6?$AA?5?$AAb?$AAi?$AAt?$AA?$CJ?$AA?$AA@ 10090ad0     strmbasd:amvideo.obj
 0003:00010af8       ??_C@_0BB@FKCKAANE@RGB?5555?5?$CI16?5bit?$CJ?$AA@ 10090af8     strmbasd:amvideo.obj
 0003:00010b0c       ??_C@_1CC@HPEFNFIK@?$AAR?$AAG?$AAB?$AA?5?$AA5?$AA6?$AA5?$AA?5?$AA?$CI?$AA1?$AA6?$AA?5?$AAb?$AAi?$AAt?$AA?$CJ?$AA?$AA@ 10090b0c     strmbasd:amvideo.obj
 0003:00010b34       ??_C@_0BB@CNLENCCE@RGB?5565?5?$CI16?5bit?$CJ?$AA@ 10090b34     strmbasd:amvideo.obj
 0003:00010b48       ??_C@_1M@HBIHPBDC@?$AAR?$AAG?$AAB?$AA?5?$AA8?$AA?$AA@ 10090b48     strmbasd:amvideo.obj
 0003:00010b58       ??_C@_05PLGHBJFE@RGB?58?$AA@ 10090b58     strmbasd:amvideo.obj
 0003:00010b60       ??_C@_1BA@EJHANBOO@?$AAR?$AAG?$AAB?$AA?5?$AAV?$AAG?$AAA?$AA?$AA@ 10090b60     strmbasd:amvideo.obj
 0003:00010b74       ??_C@_07PNPCKOMG@RGB?5VGA?$AA@ 10090b74     strmbasd:amvideo.obj
 0003:00010b80       ??_C@_1BO@BGHCKFGI@?$AAR?$AAG?$AAB?$AA?5?$AAM?$AAo?$AAn?$AAo?$AAc?$AAh?$AAr?$AAo?$AAm?$AAe?$AA?$AA@ 10090b80     strmbasd:amvideo.obj
 0003:00010ba4       ??_C@_0P@KJNGKAIC@RGB?5Monochrome?$AA@ 10090ba4     strmbasd:amvideo.obj
 0003:00010bb8       ?bits555@@3QBKB            10090bb8     strmbasd:amvideo.obj
 0003:00010bc4       ?bits565@@3QBKB            10090bc4     strmbasd:amvideo.obj
 0003:00010bd0       ?bits888@@3QBKB            10090bd0     strmbasd:amvideo.obj
 0003:00010ca8       ??_C@_0BN@GGNIPAOM@pbmiHeader?9?$DObiBitCount?5?$DN?$DN?516?$AA@ 10090ca8     strmbasd:amvideo.obj
 0003:00010ccc       ??_C@_0DE@MMBOINBL@d?3?2sdk?2windows?2v6?40?2include?2base@ 10090ccc     strmbasd:amvideo.obj
 0003:00010d0c       ??_C@_0L@LBBOJMCP@pbmiHeader?$AA@ 10090d0c     strmbasd:amvideo.obj
 0003:00010d1c       ??_C@_08JPIONDNH@pSubtype?$AA@ 10090d1c     strmbasd:amvideo.obj
 0003:00010d28       ??_C@_0DL@IGMHANMH@pHeader?9?$DObiBitCount?5?$DM?$DN?5iPALETTE?5@ 10090d28     strmbasd:amvideo.obj
 0003:00010d70       ??_C@_0CM@NGNNHMMI@pHeader?9?$DObiSize?5?$DO?$DN?5sizeof?$CIBITMAP@ 10090d70     strmbasd:amvideo.obj
 0003:00010da4       ??_C@_0O@MDNCONBI@amdpcom32?4dll?$AA@ 10090da4     amdpcom32:mcomlib.obj
 0003:00010de8       _GUID_NULL                 10090de8     uuid:cguid_i.obj
 0003:00010dfc       _CATID_MARSHALER           10090dfc     uuid:cguid_i.obj
 0003:00010e10       _IID_IRpcChannel           10090e10     uuid:cguid_i.obj
 0003:00010e24       _IID_IRpcStub              10090e24     uuid:cguid_i.obj
 0003:00010e38       _IID_IStubManager          10090e38     uuid:cguid_i.obj
 0003:00010e4c       _IID_IRpcProxy             10090e4c     uuid:cguid_i.obj
 0003:00010e60       _IID_IProxyManager         10090e60     uuid:cguid_i.obj
 0003:00010e74       _IID_IPSFactory            10090e74     uuid:cguid_i.obj
 0003:00010e88       _IID_IInternalMoniker      10090e88     uuid:cguid_i.obj
 0003:00010e9c       _IID_IDfReserved1          10090e9c     uuid:cguid_i.obj
 0003:00010eb0       _IID_IDfReserved2          10090eb0     uuid:cguid_i.obj
 0003:00010ec4       _IID_IDfReserved3          10090ec4     uuid:cguid_i.obj
 0003:00010ed8       _CLSID_StdMarshal          10090ed8     uuid:cguid_i.obj
 0003:00010eec       _IID_IStub                 10090eec     uuid:cguid_i.obj
 0003:00010f00       _IID_IProxy                10090f00     uuid:cguid_i.obj
 0003:00010f14       _IID_IEnumGeneric          10090f14     uuid:cguid_i.obj
 0003:00010f28       _IID_IEnumHolder           10090f28     uuid:cguid_i.obj
 0003:00010f3c       _IID_IEnumCallback         10090f3c     uuid:cguid_i.obj
 0003:00010f50       _IID_IOleManager           10090f50     uuid:cguid_i.obj
 0003:00010f64       _IID_IOlePresObj           10090f64     uuid:cguid_i.obj
 0003:00010f78       _IID_IDebug                10090f78     uuid:cguid_i.obj
 0003:00010f8c       _IID_IDebugStream          10090f8c     uuid:cguid_i.obj
 0003:00010fa0       _CLSID_PSGenObject         10090fa0     uuid:cguid_i.obj
 0003:00010fb4       _CLSID_PSClientSite        10090fb4     uuid:cguid_i.obj
 0003:00010fc8       _CLSID_PSClassObject       10090fc8     uuid:cguid_i.obj
 0003:00010fdc       _CLSID_PSInPlaceActive     10090fdc     uuid:cguid_i.obj
 0003:00010ff0       _CLSID_PSInPlaceFrame      10090ff0     uuid:cguid_i.obj
 0003:00011004       _CLSID_PSDragDrop          10091004     uuid:cguid_i.obj
 0003:00011018       _CLSID_PSBindCtx           10091018     uuid:cguid_i.obj
 0003:0001102c       _CLSID_PSEnumerators       1009102c     uuid:cguid_i.obj
 0003:00011040       _CLSID_StaticMetafile      10091040     uuid:cguid_i.obj
 0003:00011054       _CLSID_StaticDib           10091054     uuid:cguid_i.obj
 0003:00011068       _CLSID_Picture_Metafile    10091068     uuid:cguid_i.obj
 0003:0001107c       _CLSID_Picture_EnhMetafile 1009107c     uuid:cguid_i.obj
 0003:00011090       _CLSID_Picture_Dib         10091090     uuid:cguid_i.obj
 0003:000110a4       _CLSID_DCOMAccessControl   100910a4     uuid:cguid_i.obj
 0003:000110b8       _CLSID_StdGlobalInterfaceTable 100910b8     uuid:cguid_i.obj
 0003:000110cc       _CLSID_ManualResetEvent    100910cc     uuid:cguid_i.obj
 0003:000110e0       _CLSID_StdEvent            100910e0     uuid:cguid_i.obj
 0003:000110f4       _CLSID_SynchronizeContainer 100910f4     uuid:cguid_i.obj
 0003:00011108       _CLSID_ComBinding          10091108     uuid:cguid_i.obj
 0003:0001111c       _CLSID_StdAsyncActManager  1009111c     uuid:cguid_i.obj
 0003:00011130       _CLSID_InProcFreeMarshaler 10091130     uuid:cguid_i.obj
 0003:00011144       _CLSID_RemoteUnknownPSFactory 10091144     uuid:cguid_i.obj
 0003:00011158       _IID_IRichEditOle          10091158     uuid:cguid_i.obj
 0003:0001116c       _IID_IRichEditOleCallback  1009116c     uuid:cguid_i.obj
 0003:00011180       _CLSID_AllClasses          10091180     uuid:cguid_i.obj
 0003:00011194       _CLSID_LocalMachineClasses 10091194     uuid:cguid_i.obj
 0003:000111a8       _CLSID_CurrentUserClasses  100911a8     uuid:cguid_i.obj
 0003:000111bc       _CLSID_AddrControl         100911bc     uuid:cguid_i.obj
 0003:000111d0       _CLSID_GlobalOptions       100911d0     uuid:cguid_i.obj
 0003:000111e4       _CLSID_SurrogateManager    100911e4     uuid:cguid_i.obj
 0003:000111f8       _CLSID_ContextSwitcher     100911f8     uuid:cguid_i.obj
 0003:0001120c       _IID_IPropertyFrame        1009120c     uuid:cguid_i.obj
 0003:00011220       _CLSID_CFontPropPage       10091220     uuid:cguid_i.obj
 0003:00011234       _CLSID_CColorPropPage      10091234     uuid:cguid_i.obj
 0003:00011248       _CLSID_CPicturePropPage    10091248     uuid:cguid_i.obj
 0003:0001125c       _CLSID_StockFontPage       1009125c     uuid:cguid_i.obj
 0003:00011270       _CLSID_StockColorPage      10091270     uuid:cguid_i.obj
 0003:00011284       _CLSID_StockPicturePage    10091284     uuid:cguid_i.obj
 0003:00011298       _CLSID_PersistPropset      10091298     uuid:cguid_i.obj
 0003:000112ac       _CLSID_ConvertVBX          100912ac     uuid:cguid_i.obj
 0003:000112c0       _CLSID_StdFont             100912c0     uuid:cguid_i.obj
 0003:000112d4       _CLSID_StdPicture          100912d4     uuid:cguid_i.obj
 0003:000112e8       _GUID_HIMETRIC             100912e8     uuid:cguid_i.obj
 0003:000112fc       _GUID_COLOR                100912fc     uuid:cguid_i.obj
 0003:00011310       _GUID_XPOSPIXEL            10091310     uuid:cguid_i.obj
 0003:00011324       _GUID_YPOSPIXEL            10091324     uuid:cguid_i.obj
 0003:00011338       _GUID_XSIZEPIXEL           10091338     uuid:cguid_i.obj
 0003:0001134c       _GUID_YSIZEPIXEL           1009134c     uuid:cguid_i.obj
 0003:00011360       _GUID_XPOS                 10091360     uuid:cguid_i.obj
 0003:00011374       _GUID_YPOS                 10091374     uuid:cguid_i.obj
 0003:00011388       _GUID_XSIZE                10091388     uuid:cguid_i.obj
 0003:0001139c       _GUID_YSIZE                1009139c     uuid:cguid_i.obj
 0003:000113b0       _GUID_TRISTATE             100913b0     uuid:cguid_i.obj
 0003:000113c4       _GUID_OPTIONVALUEEXCLUSIVE 100913c4     uuid:cguid_i.obj
 0003:000113d8       _GUID_CHECKVALUEEXCLUSIVE  100913d8     uuid:cguid_i.obj
 0003:000113ec       _GUID_FONTNAME             100913ec     uuid:cguid_i.obj
 0003:00011400       _GUID_FONTSIZE             10091400     uuid:cguid_i.obj
 0003:00011414       _GUID_FONTBOLD             10091414     uuid:cguid_i.obj
 0003:00011428       _GUID_FONTITALIC           10091428     uuid:cguid_i.obj
 0003:0001143c       _GUID_FONTUNDERSCORE       1009143c     uuid:cguid_i.obj
 0003:00011450       _GUID_FONTSTRIKETHROUGH    10091450     uuid:cguid_i.obj
 0003:00011464       _GUID_HANDLE               10091464     uuid:cguid_i.obj
 0003:00011478       _IID_StdOle                10091478     uuid:cguid_i.obj
 0003:0001148c       _IID_ICursor               1009148c     uuid:cguid_i.obj
 0003:000114a0       _IID_ICursorMove           100914a0     uuid:cguid_i.obj
 0003:000114b4       _IID_ICursorScroll         100914b4     uuid:cguid_i.obj
 0003:000114c8       _IID_ICursorUpdateARow     100914c8     uuid:cguid_i.obj
 0003:000114dc       _IID_INotifyDBEvents       100914dc     uuid:cguid_i.obj
 0003:000114f0       _IID_ICursorFind           100914f0     uuid:cguid_i.obj
 0003:00011504       _IID_IEntryID              10091504     uuid:cguid_i.obj
 0003:00011518       __GUID_NAMEONLY            10091518     uuid:cguid_i.obj
 0003:0001152c       __DBBMKGUID                1009152c     uuid:cguid_i.obj
 0003:00011540       __DBCIDGUID                10091540     uuid:cguid_i.obj
 0003:00011554       _IID_IBoundObject          10091554     uuid:cguid_i.obj
 0003:00011568       _IID_IBoundObjectSite      10091568     uuid:cguid_i.obj
 0003:0001157c       _CLSID_GblComponentCategoriesMgr 1009157c     uuid:cguid_i.obj
 0003:00011590       _CLSID_ThumbnailFCNHandler 10091590     uuid:cguid_i.obj
 0003:000115a4       _CLSID_ThumbnailUpdater    100915a4     uuid:cguid_i.obj
 0003:000115b8       _GUID_DEVCLASS_1394        100915b8     uuid:cguid_i.obj
 0003:000115cc       _GUID_DEVCLASS_1394DEBUG   100915cc     uuid:cguid_i.obj
 0003:000115e0       _GUID_DEVCLASS_61883       100915e0     uuid:cguid_i.obj
 0003:000115f4       _GUID_DEVCLASS_ADAPTER     100915f4     uuid:cguid_i.obj
 0003:00011608       _GUID_DEVCLASS_APMSUPPORT  10091608     uuid:cguid_i.obj
 0003:0001161c       _GUID_DEVCLASS_AVC         1009161c     uuid:cguid_i.obj
 0003:00011630       _GUID_DEVCLASS_BATTERY     10091630     uuid:cguid_i.obj
 0003:00011644       _GUID_DEVCLASS_BIOMETRIC   10091644     uuid:cguid_i.obj
 0003:00011658       _GUID_DEVCLASS_BLUETOOTH   10091658     uuid:cguid_i.obj
 0003:0001166c       _GUID_DEVCLASS_CDROM       1009166c     uuid:cguid_i.obj
 0003:00011680       _GUID_DEVCLASS_COMPUTER    10091680     uuid:cguid_i.obj
 0003:00011694       _GUID_DEVCLASS_DECODER     10091694     uuid:cguid_i.obj
 0003:000116a8       _GUID_DEVCLASS_DISKDRIVE   100916a8     uuid:cguid_i.obj
 0003:000116bc       _GUID_DEVCLASS_DISPLAY     100916bc     uuid:cguid_i.obj
 0003:000116d0       _GUID_DEVCLASS_DOT4        100916d0     uuid:cguid_i.obj
 0003:000116e4       _GUID_DEVCLASS_DOT4PRINT   100916e4     uuid:cguid_i.obj
 0003:000116f8       _GUID_DEVCLASS_ENUM1394    100916f8     uuid:cguid_i.obj
 0003:0001170c       _GUID_DEVCLASS_FDC         1009170c     uuid:cguid_i.obj
 0003:00011720       _GUID_DEVCLASS_FLOPPYDISK  10091720     uuid:cguid_i.obj
 0003:00011734       _GUID_DEVCLASS_GPS         10091734     uuid:cguid_i.obj
 0003:00011748       _GUID_DEVCLASS_HDC         10091748     uuid:cguid_i.obj
 0003:0001175c       _GUID_DEVCLASS_HIDCLASS    1009175c     uuid:cguid_i.obj
 0003:00011770       _GUID_DEVCLASS_IMAGE       10091770     uuid:cguid_i.obj
 0003:00011784       _GUID_DEVCLASS_INFINIBAND  10091784     uuid:cguid_i.obj
 0003:00011798       _GUID_DEVCLASS_INFRARED    10091798     uuid:cguid_i.obj
 0003:000117ac       _GUID_DEVCLASS_KEYBOARD    100917ac     uuid:cguid_i.obj
 0003:000117c0       _GUID_DEVCLASS_LEGACYDRIVER 100917c0     uuid:cguid_i.obj
 0003:000117d4       _GUID_DEVCLASS_MEDIA       100917d4     uuid:cguid_i.obj
 0003:000117e8       _GUID_DEVCLASS_MEDIUM_CHANGER 100917e8     uuid:cguid_i.obj
 0003:000117fc       _GUID_DEVCLASS_MODEM       100917fc     uuid:cguid_i.obj
 0003:00011810       _GUID_DEVCLASS_MONITOR     10091810     uuid:cguid_i.obj
 0003:00011824       _GUID_DEVCLASS_MOUSE       10091824     uuid:cguid_i.obj
 0003:00011838       _GUID_DEVCLASS_MTD         10091838     uuid:cguid_i.obj
 0003:0001184c       _GUID_DEVCLASS_MULTIFUNCTION 1009184c     uuid:cguid_i.obj
 0003:00011860       _GUID_DEVCLASS_MULTIPORTSERIAL 10091860     uuid:cguid_i.obj
 0003:00011874       _GUID_DEVCLASS_NET         10091874     uuid:cguid_i.obj
 0003:00011888       _GUID_DEVCLASS_NETCLIENT   10091888     uuid:cguid_i.obj
 0003:0001189c       _GUID_DEVCLASS_NETSERVICE  1009189c     uuid:cguid_i.obj
 0003:000118b0       _GUID_DEVCLASS_NETTRANS    100918b0     uuid:cguid_i.obj
 0003:000118c4       _GUID_DEVCLASS_NODRIVER    100918c4     uuid:cguid_i.obj
 0003:000118d8       _GUID_DEVCLASS_PCMCIA      100918d8     uuid:cguid_i.obj
 0003:000118ec       _GUID_DEVCLASS_PNPPRINTERS 100918ec     uuid:cguid_i.obj
 0003:00011900       _GUID_DEVCLASS_PORTS       10091900     uuid:cguid_i.obj
 0003:00011914       _GUID_DEVCLASS_PRINTER     10091914     uuid:cguid_i.obj
 0003:00011928       _GUID_DEVCLASS_PRINTERUPGRADE 10091928     uuid:cguid_i.obj
 0003:0001193c       _GUID_DEVCLASS_PROCESSOR   1009193c     uuid:cguid_i.obj
 0003:00011950       _GUID_DEVCLASS_SBP2        10091950     uuid:cguid_i.obj
 0003:00011964       _GUID_DEVCLASS_SCSIADAPTER 10091964     uuid:cguid_i.obj
 0003:00011978       _GUID_DEVCLASS_SECURITYACCELERATOR 10091978     uuid:cguid_i.obj
 0003:0001198c       _GUID_DEVCLASS_SIDESHOW    1009198c     uuid:cguid_i.obj
 0003:000119a0       _GUID_DEVCLASS_SMARTCARDREADER 100919a0     uuid:cguid_i.obj
 0003:000119b4       _GUID_DEVCLASS_SOUND       100919b4     uuid:cguid_i.obj
 0003:000119c8       _GUID_DEVCLASS_SYSTEM      100919c8     uuid:cguid_i.obj
 0003:000119dc       _GUID_DEVCLASS_TAPEDRIVE   100919dc     uuid:cguid_i.obj
 0003:000119f0       _GUID_DEVCLASS_UNKNOWN     100919f0     uuid:cguid_i.obj
 0003:00011a04       _GUID_DEVCLASS_USB         10091a04     uuid:cguid_i.obj
 0003:00011a18       _GUID_DEVCLASS_VOLUME      10091a18     uuid:cguid_i.obj
 0003:00011a2c       _GUID_DEVCLASS_VOLUMESNAPSHOT 10091a2c     uuid:cguid_i.obj
 0003:00011a40       _GUID_DEVCLASS_WCEUSBS     10091a40     uuid:cguid_i.obj
 0003:00011a54       _GUID_DEVCLASS_WPD         10091a54     uuid:cguid_i.obj
 0003:00011a68       _GUID_DEVCLASS_FSFILTER_ACTIVITYMONITOR 10091a68     uuid:cguid_i.obj
 0003:00011a7c       _GUID_DEVCLASS_FSFILTER_UNDELETE 10091a7c     uuid:cguid_i.obj
 0003:00011a90       _GUID_DEVCLASS_FSFILTER_ANTIVIRUS 10091a90     uuid:cguid_i.obj
 0003:00011aa4       _GUID_DEVCLASS_FSFILTER_REPLICATION 10091aa4     uuid:cguid_i.obj
 0003:00011ab8       _GUID_DEVCLASS_FSFILTER_CONTINUOUSBACKUP 10091ab8     uuid:cguid_i.obj
 0003:00011acc       _GUID_DEVCLASS_FSFILTER_CONTENTSCREENER 10091acc     uuid:cguid_i.obj
 0003:00011ae0       _GUID_DEVCLASS_FSFILTER_QUOTAMANAGEMENT 10091ae0     uuid:cguid_i.obj
 0003:00011af4       _GUID_DEVCLASS_FSFILTER_SYSTEMRECOVERY 10091af4     uuid:cguid_i.obj
 0003:00011b08       _GUID_DEVCLASS_FSFILTER_CFSMETADATASERVER 10091b08     uuid:cguid_i.obj
 0003:00011b1c       _GUID_DEVCLASS_FSFILTER_HSM 10091b1c     uuid:cguid_i.obj
 0003:00011b30       _GUID_DEVCLASS_FSFILTER_COMPRESSION 10091b30     uuid:cguid_i.obj
 0003:00011b44       _GUID_DEVCLASS_FSFILTER_ENCRYPTION 10091b44     uuid:cguid_i.obj
 0003:00011b58       _GUID_DEVCLASS_FSFILTER_PHYSICALQUOTAMANAGEMENT 10091b58     uuid:cguid_i.obj
 0003:00011b6c       _GUID_DEVCLASS_FSFILTER_OPENFILEBACKUP 10091b6c     uuid:cguid_i.obj
 0003:00011b80       _GUID_DEVCLASS_FSFILTER_SECURITYENHANCER 10091b80     uuid:cguid_i.obj
 0003:00011b94       _GUID_DEVCLASS_FSFILTER_COPYPROTECTION 10091b94     uuid:cguid_i.obj
 0003:00011ba8       _GUID_DEVCLASS_FSFILTER_SYSTEM 10091ba8     uuid:cguid_i.obj
 0003:00011bbc       _GUID_DEVCLASS_FSFILTER_INFRASTRUCTURE 10091bbc     uuid:cguid_i.obj
 0003:00011bd0       _GUID_DEVINTERFACE_DISK    10091bd0     uuid:cguid_i.obj
 0003:00011be4       _GUID_DEVINTERFACE_CDROM   10091be4     uuid:cguid_i.obj
 0003:00011bf8       _GUID_DEVINTERFACE_PARTITION 10091bf8     uuid:cguid_i.obj
 0003:00011c0c       _GUID_DEVINTERFACE_TAPE    10091c0c     uuid:cguid_i.obj
 0003:00011c20       _GUID_DEVINTERFACE_WRITEONCEDISK 10091c20     uuid:cguid_i.obj
 0003:00011c34       _GUID_DEVINTERFACE_VOLUME  10091c34     uuid:cguid_i.obj
 0003:00011c48       _GUID_DEVINTERFACE_MEDIUMCHANGER 10091c48     uuid:cguid_i.obj
 0003:00011c5c       _GUID_DEVINTERFACE_FLOPPY  10091c5c     uuid:cguid_i.obj
 0003:00011c70       _GUID_DEVINTERFACE_CDCHANGER 10091c70     uuid:cguid_i.obj
 0003:00011c84       _GUID_DEVINTERFACE_STORAGEPORT 10091c84     uuid:cguid_i.obj
 0003:00011c98       _GUID_DEVINTERFACE_COMPORT 10091c98     uuid:cguid_i.obj
 0003:00011cac       _GUID_DEVINTERFACE_SERENUM_BUS_ENUMERATOR 10091cac     uuid:cguid_i.obj
 0003:00011cc0       _IID_ICreateTypeInfo       10091cc0     uuid:oaidl_i.obj
 0003:00011cd4       _IID_ICreateTypeInfo2      10091cd4     uuid:oaidl_i.obj
 0003:00011ce8       _IID_ICreateTypeLib        10091ce8     uuid:oaidl_i.obj
 0003:00011cfc       _IID_ICreateTypeLib2       10091cfc     uuid:oaidl_i.obj
 0003:00011d10       _IID_IDispatch             10091d10     uuid:oaidl_i.obj
 0003:00011d24       _IID_IEnumVARIANT          10091d24     uuid:oaidl_i.obj
 0003:00011d38       _IID_ITypeComp             10091d38     uuid:oaidl_i.obj
 0003:00011d4c       _IID_ITypeInfo             10091d4c     uuid:oaidl_i.obj
 0003:00011d60       _IID_ITypeInfo2            10091d60     uuid:oaidl_i.obj
 0003:00011d74       _IID_ITypeLib              10091d74     uuid:oaidl_i.obj
 0003:00011d88       _IID_ITypeLib2             10091d88     uuid:oaidl_i.obj
 0003:00011d9c       _IID_ITypeChangeEvents     10091d9c     uuid:oaidl_i.obj
 0003:00011db0       _IID_IErrorInfo            10091db0     uuid:oaidl_i.obj
 0003:00011dc4       _IID_ICreateErrorInfo      10091dc4     uuid:oaidl_i.obj
 0003:00011dd8       _IID_ISupportErrorInfo     10091dd8     uuid:oaidl_i.obj
 0003:00011dec       _IID_ITypeFactory          10091dec     uuid:oaidl_i.obj
 0003:00011e00       _IID_ITypeMarshal          10091e00     uuid:oaidl_i.obj
 0003:00011e14       _IID_IRecordInfo           10091e14     uuid:oaidl_i.obj
 0003:00011e28       _IID_IErrorLog             10091e28     uuid:oaidl_i.obj
 0003:00011e3c       _IID_IPropertyBag          10091e3c     uuid:oaidl_i.obj
 0003:00011e50       _IID_IUnknown              10091e50     uuid:unknwn_i.obj
 0003:00011e64       _IID_AsyncIUnknown         10091e64     uuid:unknwn_i.obj
 0003:00011e78       _IID_IClassFactory         10091e78     uuid:unknwn_i.obj
 0003:00011e8c       _IID_IMarshal              10091e8c     uuid:objidl_i.obj
 0003:00011ea0       _IID_IMarshal2             10091ea0     uuid:objidl_i.obj
 0003:00011eb4       _IID_IMalloc               10091eb4     uuid:objidl_i.obj
 0003:00011ec8       _IID_IMallocSpy            10091ec8     uuid:objidl_i.obj
 0003:00011edc       _IID_IStdMarshalInfo       10091edc     uuid:objidl_i.obj
 0003:00011ef0       _IID_IExternalConnection   10091ef0     uuid:objidl_i.obj
 0003:00011f04       _IID_IMultiQI              10091f04     uuid:objidl_i.obj
 0003:00011f18       _IID_AsyncIMultiQI         10091f18     uuid:objidl_i.obj
 0003:00011f2c       _IID_IInternalUnknown      10091f2c     uuid:objidl_i.obj
 0003:00011f40       _IID_IEnumUnknown          10091f40     uuid:objidl_i.obj
 0003:00011f54       _IID_IBindCtx              10091f54     uuid:objidl_i.obj
 0003:00011f68       _IID_IEnumMoniker          10091f68     uuid:objidl_i.obj
 0003:00011f7c       _IID_IRunnableObject       10091f7c     uuid:objidl_i.obj
 0003:00011f90       _IID_IRunningObjectTable   10091f90     uuid:objidl_i.obj
 0003:00011fa4       _IID_IPersist              10091fa4     uuid:objidl_i.obj
 0003:00011fb8       _IID_IPersistStream        10091fb8     uuid:objidl_i.obj
 0003:00011fcc       _IID_IMoniker              10091fcc     uuid:objidl_i.obj
 0003:00011fe0       _IID_IROTData              10091fe0     uuid:objidl_i.obj
 0003:00011ff4       _IID_IEnumString           10091ff4     uuid:objidl_i.obj
 0003:00012008       _IID_ISequentialStream     10092008     uuid:objidl_i.obj
 0003:0001201c       _IID_IStream               1009201c     uuid:objidl_i.obj
 0003:00012030       _IID_IEnumSTATSTG          10092030     uuid:objidl_i.obj
 0003:00012044       _IID_IStorage              10092044     uuid:objidl_i.obj
 0003:00012058       _IID_IPersistFile          10092058     uuid:objidl_i.obj
 0003:0001206c       _IID_IPersistStorage       1009206c     uuid:objidl_i.obj
 0003:00012080       _IID_ILockBytes            10092080     uuid:objidl_i.obj
 0003:00012094       _IID_IEnumFORMATETC        10092094     uuid:objidl_i.obj
 0003:000120a8       _IID_IEnumSTATDATA         100920a8     uuid:objidl_i.obj
 0003:000120bc       _IID_IRootStorage          100920bc     uuid:objidl_i.obj
 0003:000120d0       _IID_IAdviseSink           100920d0     uuid:objidl_i.obj
 0003:000120e4       _IID_AsyncIAdviseSink      100920e4     uuid:objidl_i.obj
 0003:000120f8       _IID_IAdviseSink2          100920f8     uuid:objidl_i.obj
 0003:0001210c       _IID_AsyncIAdviseSink2     1009210c     uuid:objidl_i.obj
 0003:00012120       _IID_IDataObject           10092120     uuid:objidl_i.obj
 0003:00012134       _IID_IDataAdviseHolder     10092134     uuid:objidl_i.obj
 0003:00012148       _IID_IMessageFilter        10092148     uuid:objidl_i.obj
 0003:0001215c       _IID_IRpcChannelBuffer     1009215c     uuid:objidl_i.obj
 0003:00012170       _IID_IRpcChannelBuffer2    10092170     uuid:objidl_i.obj
 0003:00012184       _IID_IAsyncRpcChannelBuffer 10092184     uuid:objidl_i.obj
 0003:00012198       _IID_IRpcChannelBuffer3    10092198     uuid:objidl_i.obj
 0003:000121ac       _IID_IRpcSyntaxNegotiate   100921ac     uuid:objidl_i.obj
 0003:000121c0       _IID_IRpcProxyBuffer       100921c0     uuid:objidl_i.obj
 0003:000121d4       _IID_IRpcStubBuffer        100921d4     uuid:objidl_i.obj
 0003:000121e8       _IID_IPSFactoryBuffer      100921e8     uuid:objidl_i.obj
 0003:000121fc       _IID_IChannelHook          100921fc     uuid:objidl_i.obj
 0003:00012210       _IID_IClientSecurity       10092210     uuid:objidl_i.obj
 0003:00012224       _IID_IServerSecurity       10092224     uuid:objidl_i.obj
 0003:00012238       _IID_IClassActivator       10092238     uuid:objidl_i.obj
 0003:0001224c       _IID_IRpcOptions           1009224c     uuid:objidl_i.obj
 0003:00012260       _IID_IFillLockBytes        10092260     uuid:objidl_i.obj
 0003:00012274       _IID_IProgressNotify       10092274     uuid:objidl_i.obj
 0003:00012288       _IID_ILayoutStorage        10092288     uuid:objidl_i.obj
 0003:0001229c       _IID_IBlockingLock         1009229c     uuid:objidl_i.obj
 0003:000122b0       _IID_ITimeAndNoticeControl 100922b0     uuid:objidl_i.obj
 0003:000122c4       _IID_IOplockStorage        100922c4     uuid:objidl_i.obj
 0003:000122d8       _IID_ISurrogate            100922d8     uuid:objidl_i.obj
 0003:000122ec       _IID_IGlobalInterfaceTable 100922ec     uuid:objidl_i.obj
 0003:00012300       _IID_IDirectWriterLock     10092300     uuid:objidl_i.obj
 0003:00012314       _IID_ISynchronize          10092314     uuid:objidl_i.obj
 0003:00012328       _IID_ISynchronizeHandle    10092328     uuid:objidl_i.obj
 0003:0001233c       _IID_ISynchronizeEvent     1009233c     uuid:objidl_i.obj
 0003:00012350       _IID_ISynchronizeContainer 10092350     uuid:objidl_i.obj
 0003:00012364       _IID_ISynchronizeMutex     10092364     uuid:objidl_i.obj
 0003:00012378       _IID_ICancelMethodCalls    10092378     uuid:objidl_i.obj
 0003:0001238c       _IID_IAsyncManager         1009238c     uuid:objidl_i.obj
 0003:000123a0       _IID_ICallFactory          100923a0     uuid:objidl_i.obj
 0003:000123b4       _IID_IRpcHelper            100923b4     uuid:objidl_i.obj
 0003:000123c8       _IID_IReleaseMarshalBuffers 100923c8     uuid:objidl_i.obj
 0003:000123dc       _IID_IWaitMultiple         100923dc     uuid:objidl_i.obj
 0003:000123f0       _IID_IUrlMon               100923f0     uuid:objidl_i.obj
 0003:00012404       _IID_IForegroundTransfer   10092404     uuid:objidl_i.obj
 0003:00012418       _IID_IAddrTrackingControl  10092418     uuid:objidl_i.obj
 0003:0001242c       _IID_IAddrExclusionControl 1009242c     uuid:objidl_i.obj
 0003:00012440       _IID_IPipeByte             10092440     uuid:objidl_i.obj
 0003:00012454       _IID_AsyncIPipeByte        10092454     uuid:objidl_i.obj
 0003:00012468       _IID_IPipeLong             10092468     uuid:objidl_i.obj
 0003:0001247c       _IID_AsyncIPipeLong        1009247c     uuid:objidl_i.obj
 0003:00012490       _IID_IPipeDouble           10092490     uuid:objidl_i.obj
 0003:000124a4       _IID_AsyncIPipeDouble      100924a4     uuid:objidl_i.obj
 0003:000124b8       _IID_IThumbnailExtractor   100924b8     uuid:objidl_i.obj
 0003:000124cc       _IID_IDummyHICONIncluder   100924cc     uuid:objidl_i.obj
 0003:000124e0       _IID_IEnumContextProps     100924e0     uuid:objidl_i.obj
 0003:000124f4       _IID_IContext              100924f4     uuid:objidl_i.obj
 0003:00012508       _IID_IObjContext           10092508     uuid:objidl_i.obj
 0003:0001251c       _IID_IProcessLock          1009251c     uuid:objidl_i.obj
 0003:00012530       _IID_ISurrogateService     10092530     uuid:objidl_i.obj
 0003:00012544       _IID_IComThreadingInfo     10092544     uuid:objidl_i.obj
 0003:00012558       _IID_IProcessInitControl   10092558     uuid:objidl_i.obj
 0003:0001256c       _IID_IInitializeSpy        1009256c     uuid:objidl_i.obj
 0003:000128ac       ??_7type_info@@6B@         100928ac     MSVCRTD:ti_inst.obj
 0003:000128b4       ??_C@_0BO@GNIAFIKK@Unknown?5Runtime?5Check?5Error?6?$AN?$AA@ 100928b4     MSVCRTD:error.obj
 0003:000128d8       ??_C@_0CM@NGINOKPC@Stack?5memory?5around?5_alloca?5was?5@ 100928d8     MSVCRTD:error.obj
 0003:0001290c       ??_C@_0DG@HKJMLLLP@A?5local?5variable?5was?5used?5before@ 1009290c     MSVCRTD:error.obj
 0003:0001294c       ??_C@_0BN@FFOINMNJ@Stack?5memory?5was?5corrupted?6?$AN?$AA@ 1009294c     MSVCRTD:error.obj
 0003:00012970       ??_C@_0BBN@GPMLNJCF@A?5cast?5to?5a?5smaller?5data?5type?5ha@ 10092970     MSVCRTD:error.obj
 0003:00012ac8       ??_C@_0NN@NGPKDKPD@The?5value?5of?5ESP?5was?5not?5properl@ 10092ac8     MSVCRTD:error.obj
 0003:00012c6c       ??_C@_0CA@IODNCDPG@Run?9Time?5Check?5Failure?5?$CD?$CFd?5?9?5?$CFs?$AA@ 10092c6c     MSVCRTD:error.obj
 0003:00012c94       ??_C@_0BE@GNBOBNCK@Unknown?5Module?5Name?$AA@ 10092c94     MSVCRTD:error.obj
 0003:00012cac       ??_C@_0BB@PFFGGCJP@Unknown?5Filename?$AA@ 10092cac     MSVCRTD:error.obj
 0003:00012cc0       ??_C@_1EA@NFKNIFJP@?$AAR?$AAu?$AAn?$AA?9?$AAT?$AAi?$AAm?$AAe?$AA?5?$AAC?$AAh?$AAe?$AAc?$AAk?$AA?5?$AAF?$AAa?$AAi?$AAl?$AAu?$AAr?$AAe?$AA?5?$AA?$CD?$AA?$CF?$AAd?$AA?5?$AA?9?$AA?5?$AA?$CF?$AAs?$AA?$AA@ 10092cc0     MSVCRTD:error.obj
 0003:00012d10       ??_C@_1GM@OLMCBDMB@?$AAR?$AAu?$AAn?$AAt?$AAi?$AAm?$AAe?$AA?5?$AAC?$AAh?$AAe?$AAc?$AAk?$AA?5?$AAE?$AAr?$AAr?$AAo?$AAr?$AA?4?$AA?6?$AA?$AN?$AA?5?$AAU?$AAn?$AAa?$AAb?$AAl?$AAe?$AA?5?$AAt?$AAo@ 10092d10     MSVCRTD:error.obj
 0003:00012d94       ??_C@_0CG@IAFNJNEE@Stack?5corrupted?5near?5unknown?5var@ 10092d94     MSVCRTD:error.obj
 0003:00012dc8       ??_C@_0EJ@LJKNEOLN@Stack?5area?5around?5_alloca?5memory@ 10092dc8     MSVCRTD:error.obj
 0003:00012e20       ??_C@_08KJEDNCKC@?$CFs?$CFs?$CFs?$CFs?$AA@ 10092e20     MSVCRTD:error.obj
 0003:00012e2c       ??_C@_02LLMPMKNF@?$DO?5?$AA@ 10092e2c     MSVCRTD:error.obj
 0003:00012e30       ??_C@_01EEMJAFIK@?6?$AA@   10092e30     MSVCRTD:error.obj
 0003:00012e34       ??_C@_0BC@KIBAILCI@?$CFs?$CFs?$CFp?$CFs?$CFld?$CFs?$CFd?$CFs?$AA@ 10092e34     MSVCRTD:error.obj
 0003:00012e50       ??_C@_0EI@CLEPFNGI@Stack?5area?5around?5_alloca?5memory@ 10092e50     MSVCRTD:error.obj
 0003:00012ea8       ??_C@_0N@MHFFIMFG@?6Address?3?50x?$AA@ 10092ea8     MSVCRTD:error.obj
 0003:00012eb8       ??_C@_07DFDJCKFN@?6Size?3?5?$AA@ 10092eb8     MSVCRTD:error.obj
 0003:00012ec4       ??_C@_0CK@DKGBICFE@?6Allocation?5number?5within?5this?5f@ 10092ec4     MSVCRTD:error.obj
 0003:00012ef8       ??_C@_08OMAHNMHJ@?6Data?3?5?$DM?$AA@ 10092ef8     MSVCRTD:error.obj
 0003:00012f04       ??_C@_09FOPFMPEJ@wsprintfA?$AA@ 10092f04     MSVCRTD:error.obj
 0003:00012f10       ??_C@_0L@GMPLCCII@user32?4dll?$AA@ 10092f10     MSVCRTD:error.obj
 0003:00012f20       ??_C@_05MKKEDADM@?$CF?42X?5?$AA@ 10092f20     MSVCRTD:error.obj
 0003:00012f28       ??_C@_0DA@BEGFPCGG@A?5variable?5is?5being?5used?5without@ 10092f28     MSVCRTD:error.obj
 0003:00012f64       __pDefaultRawDllMain       10092f64     MSVCRTD:crtdll.obj
 0003:00012f64       __pRawDllMain              10092f64     MSVCRTD:crtdll.obj
 0003:00012f68       ??_C@_08EIBOPINA@crtdll?4c?$AA@ 10092f68     MSVCRTD:crtdll.obj
 0003:00012f80       ??_C@_0BP@OGBCLIBO@Stack?5around?5_alloca?5corrupted?$AA@ 10092f80     MSVCRTD:userapi.obj
 0003:00012fa8       ??_C@_0CK@CNLNOEPB@Local?5variable?5used?5before?5initi@ 10092fa8     MSVCRTD:userapi.obj
 0003:00012fdc       ??_C@_0BI@CIGMDCBH@Stack?5memory?5corruption?$AA@ 10092fdc     MSVCRTD:userapi.obj
 0003:00012ff8       ??_C@_0CK@FEGOIOPB@Cast?5to?5smaller?5type?5causing?5los@ 10092ff8     MSVCRTD:userapi.obj
 0003:0001302c       ??_C@_0BJ@HEGAHDFO@Stack?5pointer?5corruption?$AA@ 1009302c     MSVCRTD:userapi.obj
 0003:0001304c       ??_C@_0M@EKFFODEC@MSPDB80?4DLL?$AA@ 1009304c     MSVCRTD:pdblkup.obj
 0003:0001305c       ??_C@_01KDCPPGHE@r?$AA@    1009305c     MSVCRTD:pdblkup.obj
 0003:00013060       ??_C@_0BB@KCIACLNC@PDBOpenValidate5?$AA@ 10093060     MSVCRTD:pdblkup.obj
 0003:00013074       ??_C@_0BF@BMIHBHCA@EnvironmentDirectory?$AA@ 10093074     MSVCRTD:pdblkup.obj
 0003:00013090       ??_C@_0CN@EAEOKKOC@SOFTWARE?2Microsoft?2VisualStudio?2@ 10093090     MSVCRTD:pdblkup.obj
 0003:000130c8       ??_C@_0M@HLOHPNFA@RegCloseKey?$AA@ 100930c8     MSVCRTD:pdblkup.obj
 0003:000130d8       ??_C@_0BB@HHEIPGME@RegQueryValueExA?$AA@ 100930d8     MSVCRTD:pdblkup.obj
 0003:000130ec       ??_C@_0O@DCOGKJGG@RegOpenKeyExA?$AA@ 100930ec     MSVCRTD:pdblkup.obj
 0003:000130fc       ??_C@_0N@JJPEKNFO@ADVAPI32?4DLL?$AA@ 100930fc     MSVCRTD:pdblkup.obj
 0003:0001310c       ?ProcessDetach@NativeDll@<CrtImplementationDetails>@@0IB 1009310c     MSVCRTD:tncleanup.obj
 0003:00013110       ?ProcessAttach@NativeDll@<CrtImplementationDetails>@@0IB 10093110     MSVCRTD:tncleanup.obj
 0003:00013114       ?ThreadAttach@NativeDll@<CrtImplementationDetails>@@0IB 10093114     MSVCRTD:tncleanup.obj
 0003:00013118       ?ThreadDetach@NativeDll@<CrtImplementationDetails>@@0IB 10093118     MSVCRTD:tncleanup.obj
 0003:0001311c       ?ProcessVerifier@NativeDll@<CrtImplementationDetails>@@0IB 1009311c     MSVCRTD:tncleanup.obj
 0003:00013120       ??_C@_0OH@IHEJDJAH@Microsoft?5Visual?5C?$CL?$CL?5Runtime?5Lib@ 10093120     MSVCRTD:gs_support.obj
 0003:00013d48       ??_C@_1GO@KNEJFEMN@?$AAf?$AA?3?$AA?2?$AAr?$AAt?$AAm?$AA?2?$AAv?$AAc?$AAt?$AAo?$AAo?$AAl?$AAs?$AA?2?$AAv?$AAc?$AA7?$AAl?$AAi?$AAb?$AAs?$AA?2?$AAs?$AAh?$AAi?$AAp?$AA?2?$AAa?$AAt?$AAl?$AAm@ 10093d48     atlsd:Externs.obj
 0003:00013dcc       ??_C@_1M@HLGKFCJM@?$AAf?$AAa?$AAl?$AAs?$AAe?$AA?$AA@ 10093dcc     atlsd:Externs.obj
 0003:00013ddc       ??_C@_0DH@PPMHMFEH@f?3?2rtm?2vctools?2vc7libs?2ship?2atlm@ 10093ddc     atlsd:Externs.obj
 0003:00013e20       ??_C@_0BF@IAAKIJDJ@AtlThrow?3?5hr?5?$DN?50x?$CFx?6?$AA@ 10093e20     atlsd:Externs.obj
 0003:00015550       ??_C@_1HC@HNCNIIF@?$AAf?$AA?3?$AA?2?$AAr?$AAt?$AAm?$AA?2?$AAv?$AAc?$AAt?$AAo?$AAo?$AAl?$AAs?$AA?2?$AAv?$AAc?$AA7?$AAl?$AAi?$AAb?$AAs?$AA?2?$AAs?$AAh?$AAi?$AAp?$AA?2?$AAa?$AAt?$AAl?$AAm@ 10095550     atlsd:AtlDebugAPI.obj
 0003:000155d8       ??_C@_1EA@JHMKKLFC@?$AAn?$AAI?$AAn?$AAd?$AAe?$AAx?$AA?5?$AA?$DO?$AA?$DN?$AA?5?$AA0?$AA?5?$AA?$CG?$AA?$CG?$AA?5?$AAn?$AAI?$AAn?$AAd?$AAe?$AAx?$AA?5?$AA?$DM?$AA?5?$AAm?$AA_?$AAn?$AAS?$AAi?$AAz?$AAe?$AA?$AA@ 100955d8     atlsd:AtlDebugAPI.obj
 0003:00015628       ??_C@_1GK@CGOPLFOG@?$AAf?$AA?3?$AA?2?$AAr?$AAt?$AAm?$AA?2?$AAv?$AAc?$AAt?$AAo?$AAo?$AAl?$AAs?$AA?2?$AAv?$AAc?$AA7?$AAl?$AAi?$AAb?$AAs?$AA?2?$AAs?$AAh?$AAi?$AAp?$AA?2?$AAa?$AAt?$AAl?$AAm@ 10095628     atlsd:AtlDebugAPI.obj
 0003:000156a8       ??_C@_1BM@GBBOFEAE@?$AA_?$AA_?$AAa?$AAt?$AAl?$AA_?$AAc?$AAo?$AAn?$AAd?$AAV?$AAa?$AAl?$AA?$AA@ 100956a8     atlsd:AtlDebugAPI.obj
 0003:000162c8       ??_C@_1JA@NPPLIAJE@?$AAf?$AA?3?$AA?2?$AAr?$AAt?$AAm?$AA?2?$AAv?$AAc?$AAt?$AAo?$AAo?$AAl?$AAs?$AA?2?$AAv?$AAc?$AA7?$AAl?$AAi?$AAb?$AAs?$AA?2?$AAs?$AAh?$AAi?$AAp?$AA?2?$AAa?$AAt?$AAl?$AAm@ 100962c8     atlsd:Allocate.obj
 0003:00016374       ??_C@_1BK@GFEAMNLJ@?$AAn?$AAC?$AAo?$AAo?$AAk?$AAi?$AAe?$AA?5?$AA?$CB?$AA?$DN?$AA?5?$AA0?$AA?$AA@ 10096374     atlsd:Allocate.obj
 0003:000167e0       ??_C@_13COJANIEC@?$AA0?$AA?$AA@ 100967e0     atlsd:AtlTraceModuleManager.obj
 0003:000167e4       ??_C@_1BC@GCPDCDFJ@?$AAl?$AAp?$AAw?$AA?5?$AA?$CB?$AA?$DN?$AA?5?$AA0?$AA?$AA@ 100967e4     atlsd:AtlTraceModuleManager.obj
 0003:000167fc       ??_C@_1BC@PMIDFEID@?$AAl?$AAp?$AAa?$AA?5?$AA?$CB?$AA?$DN?$AA?5?$AA0?$AA?$AA@ 100967fc     atlsd:AtlTraceModuleManager.obj
 0003:000170ac       ??_R4CHVDDSAMVANotify@HVDService@@6BIHVDDXVA1AMVANofityConfig@@@ 100970ac     HVDDSAMVANotify.obj
 0003:000170c4       ??_R3CHVDDSAMVANotify@HVDService@@8 100970c4     HVDDSAMVANotify.obj
 0003:000170d8       ??_R2CHVDDSAMVANotify@HVDService@@8 100970d8     HVDDSAMVANotify.obj
 0003:00017104       ??_R1A@?0A@EA@CHVDDSAMVANotify@HVDService@@8 10097104     HVDDSAMVANotify.obj
 0003:00017128       ??_R1A@?0A@EA@IHVDDXVA1AMVANofityConfig@@8 10097128     HVDDSAMVANotify.obj
 0003:0001714c       ??_R3IHVDDXVA1AMVANofityConfig@@8 1009714c     HVDDSAMVANotify.obj
 0003:00017160       ??_R2IHVDDXVA1AMVANofityConfig@@8 10097160     HVDDSAMVANotify.obj
 0003:0001717c       ??_R1A@?0A@EA@IiviVideoAcceleratorNotify2@@8 1009717c     HVDDSAMVANotify.obj
 0003:000171a0       ??_R3IiviVideoAcceleratorNotify2@@8 100971a0     HVDDSAMVANotify.obj
 0003:000171b4       ??_R2IiviVideoAcceleratorNotify2@@8 100971b4     HVDDSAMVANotify.obj
 0003:000171c8       ??_R1A@?0A@EA@IiviVideoAcceleratorNotify@@8 100971c8     HVDDSAMVANotify.obj
 0003:000171ec       ??_R3IiviVideoAcceleratorNotify@@8 100971ec     HVDDSAMVANotify.obj
 0003:00017200       ??_R2IiviVideoAcceleratorNotify@@8 10097200     HVDDSAMVANotify.obj
 0003:00017210       ??_R1A@?0A@EA@IAMVideoAcceleratorNotify@@8 10097210     HVDDSAMVANotify.obj
 0003:00017234       ??_R3IAMVideoAcceleratorNotify@@8 10097234     HVDDSAMVANotify.obj
 0003:00017248       ??_R2IAMVideoAcceleratorNotify@@8 10097248     HVDDSAMVANotify.obj
 0003:00017254       ??_R1A@?0A@EA@IUnknown@@8  10097254     HVDDSAMVANotify.obj
 0003:00017278       ??_R3IUnknown@@8           10097278     HVDDSAMVANotify.obj
 0003:0001728c       ??_R2IUnknown@@8           1009728c     HVDDSAMVANotify.obj
 0003:00017294       ??_R13?0A@EA@CUnknown@@8   10097294     HVDDSAMVANotify.obj
 0003:000172b8       ??_R3CUnknown@@8           100972b8     HVDDSAMVANotify.obj
 0003:000172cc       ??_R2CUnknown@@8           100972cc     HVDDSAMVANotify.obj
 0003:000172dc       ??_R1A@?0A@EA@CUnknown@@8  100972dc     HVDDSAMVANotify.obj
 0003:00017300       ??_R1A@?0A@EA@INonDelegatingUnknown@@8 10097300     HVDDSAMVANotify.obj
 0003:00017324       ??_R3INonDelegatingUnknown@@8 10097324     HVDDSAMVANotify.obj
 0003:00017338       ??_R2INonDelegatingUnknown@@8 10097338     HVDDSAMVANotify.obj
 0003:00017340       ??_R13?0A@EA@CBaseObject@@8 10097340     HVDDSAMVANotify.obj
 0003:00017364       ??_R3CBaseObject@@8        10097364     HVDDSAMVANotify.obj
 0003:00017378       ??_R2CBaseObject@@8        10097378     HVDDSAMVANotify.obj
 0003:00017380       ??_R1A@?0A@EA@CBaseObject@@8 10097380     HVDDSAMVANotify.obj
 0003:000173a4       ??_R13?0A@EA@INonDelegatingUnknown@@8 100973a4     HVDDSAMVANotify.obj
 0003:000173c8       ??_R17?0A@EA@CBaseObject@@8 100973c8     HVDDSAMVANotify.obj
 0003:000173ec       ??_R4CHVDDSAMVANotify@HVDService@@6BCUnknown@@@ 100973ec     HVDDSAMVANotify.obj
 0003:00017404       ??_R4CHVDDSOutPin@HVDService@@6BCUnknown@@@ 10097404     HVDDSOutPin.obj
 0003:0001741c       ??_R3CHVDDSOutPin@HVDService@@8 1009741c     HVDDSOutPin.obj
 0003:00017430       ??_R2CHVDDSOutPin@HVDService@@8 10097430     HVDDSOutPin.obj
 0003:00017464       ??_R1A@?0A@EA@CHVDDSOutPin@HVDService@@8 10097464     HVDDSOutPin.obj
 0003:00017488       ??_R1A@?0A@EA@CBaseOutputPin@@8 10097488     HVDDSOutPin.obj
 0003:000174ac       ??_R3CBaseOutputPin@@8     100974ac     HVDDSOutPin.obj
 0003:000174c0       ??_R2CBaseOutputPin@@8     100974c0     HVDDSOutPin.obj
 0003:000174ec       ??_R1A@?0A@EA@CBasePin@@8  100974ec     HVDDSOutPin.obj
 0003:00017510       ??_R3CBasePin@@8           10097510     HVDDSOutPin.obj
 0003:00017524       ??_R2CBasePin@@8           10097524     HVDDSOutPin.obj
 0003:0001754c       ??_R1BA@?0A@EA@IPin@@8     1009754c     HVDDSOutPin.obj
 0003:00017570       ??_R3IPin@@8               10097570     HVDDSOutPin.obj
 0003:00017584       ??_R2IPin@@8               10097584     HVDDSOutPin.obj
 0003:00017590       ??_R1A@?0A@EA@IPin@@8      10097590     HVDDSOutPin.obj
 0003:000175b4       ??_R1BA@?0A@EC@IUnknown@@8 100975b4     HVDDSOutPin.obj
 0003:000175d8       ??_R1BE@?0A@EA@IQualityControl@@8 100975d8     HVDDSOutPin.obj
 0003:000175fc       ??_R3IQualityControl@@8    100975fc     HVDDSOutPin.obj
 0003:00017610       ??_R2IQualityControl@@8    10097610     HVDDSOutPin.obj
 0003:0001761c       ??_R1A@?0A@EA@IQualityControl@@8 1009761c     HVDDSOutPin.obj
 0003:00017640       ??_R1BE@?0A@EC@IUnknown@@8 10097640     HVDDSOutPin.obj
 0003:00017664       ??_R4CHVDDSOutPin@HVDService@@6BIPin@@@ 10097664     HVDDSOutPin.obj
 0003:0001767c       ??_R4CHVDDSOutPin@HVDService@@6BIQualityControl@@@ 1009767c     HVDDSOutPin.obj
 0003:00017694       ??_R4CHVDDSVPConfig@HVDService@@6BIVPConfig@@@ 10097694     HVDDSVPConfig.obj
 0003:000176ac       ??_R3CHVDDSVPConfig@HVDService@@8 100976ac     HVDDSVPConfig.obj
 0003:000176c0       ??_R2CHVDDSVPConfig@HVDService@@8 100976c0     HVDDSVPConfig.obj
 0003:000176e4       ??_R1A@?0A@EA@CHVDDSVPConfig@HVDService@@8 100976e4     HVDDSVPConfig.obj
 0003:00017708       ??_R1A@?0A@EA@IVPConfig@@8 10097708     HVDDSVPConfig.obj
 0003:0001772c       ??_R3IVPConfig@@8          1009772c     HVDDSVPConfig.obj
 0003:00017740       ??_R2IVPConfig@@8          10097740     HVDDSVPConfig.obj
 0003:00017750       ??_R1A@?0A@EA@IVPBaseConfig@@8 10097750     HVDDSVPConfig.obj
 0003:00017774       ??_R3IVPBaseConfig@@8      10097774     HVDDSVPConfig.obj
 0003:00017788       ??_R2IVPBaseConfig@@8      10097788     HVDDSVPConfig.obj
 0003:00017794       ??_R4CHVDDSVPConfig@HVDService@@6BCUnknown@@@ 10097794     HVDDSVPConfig.obj
 0003:000177ac       ??_R4CHVDDxva1Binder@HVDService@@6BCUnknown@@@ 100977ac     HVDDxva1Binder.obj
 0003:000177c4       ??_R3CHVDDxva1Binder@HVDService@@8 100977c4     HVDDxva1Binder.obj
 0003:000177d8       ??_R2CHVDDxva1Binder@HVDService@@8 100977d8     HVDDxva1Binder.obj
 0003:00017810       ??_R1A@?0A@EA@CHVDDxva1Binder@HVDService@@8 10097810     HVDDxva1Binder.obj
 0003:00017834       ??_R1A@?0A@EA@CBaseFilter@@8 10097834     HVDDxva1Binder.obj
 0003:00017858       ??_R3CBaseFilter@@8        10097858     HVDDxva1Binder.obj
 0003:0001786c       ??_R2CBaseFilter@@8        1009786c     HVDDxva1Binder.obj
 0003:000178a0       ??_R1BA@?0A@EA@IBaseFilter@@8 100978a0     HVDDxva1Binder.obj
 0003:000178c4       ??_R3IBaseFilter@@8        100978c4     HVDDxva1Binder.obj
 0003:000178d8       ??_R2IBaseFilter@@8        100978d8     HVDDxva1Binder.obj
 0003:000178ec       ??_R1A@?0A@EA@IBaseFilter@@8 100978ec     HVDDxva1Binder.obj
 0003:00017910       ??_R1A@?0A@EA@IMediaFilter@@8 10097910     HVDDxva1Binder.obj
 0003:00017934       ??_R3IMediaFilter@@8       10097934     HVDDxva1Binder.obj
 0003:00017948       ??_R2IMediaFilter@@8       10097948     HVDDxva1Binder.obj
 0003:00017958       ??_R1A@?0A@EA@IPersist@@8  10097958     HVDDxva1Binder.obj
 0003:0001797c       ??_R3IPersist@@8           1009797c     HVDDxva1Binder.obj
 0003:00017990       ??_R2IPersist@@8           10097990     HVDDxva1Binder.obj
 0003:0001799c       ??_R1BA@?0A@EA@IMediaFilter@@8 1009799c     HVDDxva1Binder.obj
 0003:000179c0       ??_R1BA@?0A@EA@IPersist@@8 100979c0     HVDDxva1Binder.obj
 0003:000179e4       ??_R1BE@?0A@EA@IAMovieSetup@@8 100979e4     HVDDxva1Binder.obj
 0003:00017a08       ??_R3IAMovieSetup@@8       10097a08     HVDDxva1Binder.obj
 0003:00017a1c       ??_R2IAMovieSetup@@8       10097a1c     HVDDxva1Binder.obj
 0003:00017a28       ??_R1A@?0A@EA@IAMovieSetup@@8 10097a28     HVDDxva1Binder.obj
 0003:00017a4c       ??_R4CHVDDxva1Binder@HVDService@@6BIBaseFilter@@@ 10097a4c     HVDDxva1Binder.obj
 0003:00017a64       ??_R4CHVDDxva1Binder@HVDService@@6BIAMovieSetup@@@ 10097a64     HVDDxva1Binder.obj
 0003:00017a7c       ??_R4Thank_you@Define_the_symbol__ATL_MIXED@@6B@ 10097a7c     HVDDxva1Binder.obj
 0003:00017a94       ??_R3Thank_you@Define_the_symbol__ATL_MIXED@@8 10097a94     HVDDxva1Binder.obj
 0003:00017aa8       ??_R2Thank_you@Define_the_symbol__ATL_MIXED@@8 10097aa8     HVDDxva1Binder.obj
 0003:00017ab0       ??_R1A@?0A@EA@Thank_you@Define_the_symbol__ATL_MIXED@@8 10097ab0     HVDDxva1Binder.obj
 0003:00017ad4       ??_R4CFastReadback@HVDService@@6B@ 10097ad4     HVDFastReadback.obj
 0003:00017aec       ??_R3CFastReadback@HVDService@@8 10097aec     HVDFastReadback.obj
 0003:00017b00       ??_R2CFastReadback@HVDService@@8 10097b00     HVDFastReadback.obj
 0003:00017b08       ??_R1A@?0A@EA@CFastReadback@HVDService@@8 10097b08     HVDFastReadback.obj
 0003:00017b2c       ??_R4CD3DFastReadback@HVDService@@6B@ 10097b2c     HVDFastReadback.obj
 0003:00017b44       ??_R3CD3DFastReadback@HVDService@@8 10097b44     HVDFastReadback.obj
 0003:00017b58       ??_R2CD3DFastReadback@HVDService@@8 10097b58     HVDFastReadback.obj
 0003:00017b64       ??_R1A@?0A@EA@CD3DFastReadback@HVDService@@8 10097b64     HVDFastReadback.obj
 0003:00017b88       ??_R4CNVFastReadback@HVDService@@6B@ 10097b88     HVDFastReadback.obj
 0003:00017ba0       ??_R3CNVFastReadback@HVDService@@8 10097ba0     HVDFastReadback.obj
 0003:00017bb4       ??_R2CNVFastReadback@HVDService@@8 10097bb4     HVDFastReadback.obj
 0003:00017bc0       ??_R1A@?0A@EA@CNVFastReadback@HVDService@@8 10097bc0     HVDFastReadback.obj
 0003:00017be4       ??_R4CIntelFastReadback@HVDService@@6B@ 10097be4     HVDFastReadback.obj
 0003:00017bfc       ??_R3CIntelFastReadback@HVDService@@8 10097bfc     HVDFastReadback.obj
 0003:00017c10       ??_R2CIntelFastReadback@HVDService@@8 10097c10     HVDFastReadback.obj
 0003:00017c1c       ??_R1A@?0A@EA@CIntelFastReadback@HVDService@@8 10097c1c     HVDFastReadback.obj
 0003:00017c40       ??_R4CATIFastReadback@HVDService@@6B@ 10097c40     HVDFastReadback.obj
 0003:00017c58       ??_R3CATIFastReadback@HVDService@@8 10097c58     HVDFastReadback.obj
 0003:00017c6c       ??_R2CATIFastReadback@HVDService@@8 10097c6c     HVDFastReadback.obj
 0003:00017c78       ??_R1A@?0A@EA@CATIFastReadback@HVDService@@8 10097c78     HVDFastReadback.obj
 0003:00017c9c       ??_R4CHVDServiceBase@HVDService@@6B@ 10097c9c     HVDServiceBase.obj
 0003:00017cb4       ??_R3CHVDServiceBase@HVDService@@8 10097cb4     HVDServiceBase.obj
 0003:00017cc8       ??_R2CHVDServiceBase@HVDService@@8 10097cc8     HVDServiceBase.obj
 0003:00017cd8       ??_R1A@?0A@EA@CHVDServiceBase@HVDService@@8 10097cd8     HVDServiceBase.obj
 0003:00017cfc       ??_R1A@?0A@EA@IHVDService@@8 10097cfc     HVDServiceBase.obj
 0003:00017d20       ??_R3IHVDService@@8        10097d20     HVDServiceBase.obj
 0003:00017d34       ??_R2IHVDService@@8        10097d34     HVDServiceBase.obj
 0003:00017d40       ??_R4IHVDService@@6B@      10097d40     HVDServiceBase.obj
 0003:00017d58       ??_R4length_error@std@@6B@ 10097d58     HVDServiceBase.obj
 0003:00017d70       ??_R3length_error@std@@8   10097d70     HVDServiceBase.obj
 0003:00017d84       ??_R2length_error@std@@8   10097d84     HVDServiceBase.obj
 0003:00017d94       ??_R1A@?0A@EA@length_error@std@@8 10097d94     HVDServiceBase.obj
 0003:00017db8       ??_R1A@?0A@EA@logic_error@std@@8 10097db8     HVDServiceBase.obj
 0003:00017ddc       ??_R3logic_error@std@@8    10097ddc     HVDServiceBase.obj
 0003:00017df0       ??_R2logic_error@std@@8    10097df0     HVDServiceBase.obj
 0003:00017dfc       ??_R1A@?0A@EA@exception@std@@8 10097dfc     HVDServiceBase.obj
 0003:00017e20       ??_R3exception@std@@8      10097e20     HVDServiceBase.obj
 0003:00017e34       ??_R2exception@std@@8      10097e34     HVDServiceBase.obj
 0003:00017e3c       ??_R4logic_error@std@@6B@  10097e3c     HVDServiceBase.obj
 0003:00017e54       ??_R4bad_alloc@std@@6B@    10097e54     HVDServiceBase.obj
 0003:00017e6c       ??_R3bad_alloc@std@@8      10097e6c     HVDServiceBase.obj
 0003:00017e80       ??_R2bad_alloc@std@@8      10097e80     HVDServiceBase.obj
 0003:00017e8c       ??_R1A@?0A@EA@bad_alloc@std@@8 10097e8c     HVDServiceBase.obj
 0003:00017eb0       ??_R4CHVDServiceDxva1@HVDService@@6BCHVDServiceBase@1@@ 10097eb0     HVDServiceDxva1.obj
 0003:00017ec8       ??_R3CHVDServiceDxva1@HVDService@@8 10097ec8     HVDServiceDxva1.obj
 0003:00017edc       ??_R2CHVDServiceDxva1@HVDService@@8 10097edc     HVDServiceDxva1.obj
 0003:00017f00       ??_R1A@?0A@EA@CHVDServiceDxva1@HVDService@@8 10097f00     HVDServiceDxva1.obj
 0003:00017f24       ??_R1A@?0A@EC@IUnknown@@8  10097f24     HVDServiceDxva1.obj
 0003:00017f48       ??_R1BDE@?0A@EA@IHVDServiceDxva1@@8 10097f48     HVDServiceDxva1.obj
 0003:00017f6c       ??_R3IHVDServiceDxva1@@8   10097f6c     HVDServiceDxva1.obj
 0003:00017f80       ??_R2IHVDServiceDxva1@@8   10097f80     HVDServiceDxva1.obj
 0003:00017f90       ??_R1A@?0A@EA@IHVDServiceDxva1@@8 10097f90     HVDServiceDxva1.obj
 0003:00017fb4       ??_R1A@?0A@EA@IHVDServiceDxva@@8 10097fb4     HVDServiceDxva1.obj
 0003:00017fd8       ??_R3IHVDServiceDxva@@8    10097fd8     HVDServiceDxva1.obj
 0003:00017fec       ??_R2IHVDServiceDxva@@8    10097fec     HVDServiceDxva1.obj
 0003:00017ff8       ??_R1BDE@?0A@EA@IHVDServiceDxva@@8 10097ff8     HVDServiceDxva1.obj
 0003:0001801c       ??_R1BDE@?0A@EC@IUnknown@@8 1009801c     HVDServiceDxva1.obj
 0003:00018040       ??_R4CHVDServiceDxva1@HVDService@@6BIHVDServiceDxva1@@@ 10098040     HVDServiceDxva1.obj
 0003:00018058       ??_R4IHVDServiceDxva1@@6B@ 10098058     HVDServiceDxva1.obj
 0003:00018070       ??_R4IHVDServiceDxva@@6B@  10098070     HVDServiceDxva1.obj
 0003:00018088       ??_R4CSurfacePool@HVDService@@6B@ 10098088     HVDServiceDxva2.obj
 0003:000180a0       ??_R3CSurfacePool@HVDService@@8 100980a0     HVDServiceDxva2.obj
 0003:000180b4       ??_R2CSurfacePool@HVDService@@8 100980b4     HVDServiceDxva2.obj
 0003:000180bc       ??_R1A@?0A@EA@CSurfacePool@HVDService@@8 100980bc     HVDServiceDxva2.obj
 0003:000180e0       ??_R4CHVDServiceDxva2@HVDService@@6BCHVDServiceBase@1@@ 100980e0     HVDServiceDxva2.obj
 0003:000180f8       ??_R3CHVDServiceDxva2@HVDService@@8 100980f8     HVDServiceDxva2.obj
 0003:0001810c       ??_R2CHVDServiceDxva2@HVDService@@8 1009810c     HVDServiceDxva2.obj
 0003:00018130       ??_R1A@?0A@EA@CHVDServiceDxva2@HVDService@@8 10098130     HVDServiceDxva2.obj
 0003:00018154       ??_R1BDE@?0A@EA@IHVDServiceDxva2@@8 10098154     HVDServiceDxva2.obj
 0003:00018178       ??_R3IHVDServiceDxva2@@8   10098178     HVDServiceDxva2.obj
 0003:0001818c       ??_R2IHVDServiceDxva2@@8   1009818c     HVDServiceDxva2.obj
 0003:0001819c       ??_R1A@?0A@EA@IHVDServiceDxva2@@8 1009819c     HVDServiceDxva2.obj
 0003:000181c0       ??_R4CHVDServiceDxva2@HVDService@@6BIHVDServiceDxva2@@@ 100981c0     HVDServiceDxva2.obj
 0003:000181d8       ??_R4IHVDServiceDxva2@@6B@ 100981d8     HVDServiceDxva2.obj
 0003:000181f0       ??_R4CEnumPins@@6B@        100981f0     strmbasd:amfilter.obj
 0003:00018208       ??_R3CEnumPins@@8          10098208     strmbasd:amfilter.obj
 0003:0001821c       ??_R2CEnumPins@@8          1009821c     strmbasd:amfilter.obj
 0003:0001822c       ??_R1A@?0A@EA@CEnumPins@@8 1009822c     strmbasd:amfilter.obj
 0003:00018250       ??_R1A@?0A@EA@IEnumPins@@8 10098250     strmbasd:amfilter.obj
 0003:00018274       ??_R3IEnumPins@@8          10098274     strmbasd:amfilter.obj
 0003:00018288       ??_R2IEnumPins@@8          10098288     strmbasd:amfilter.obj
 0003:00018294       ??_R4CEnumMediaTypes@@6B@  10098294     strmbasd:amfilter.obj
 0003:000182ac       ??_R3CEnumMediaTypes@@8    100982ac     strmbasd:amfilter.obj
 0003:000182c0       ??_R2CEnumMediaTypes@@8    100982c0     strmbasd:amfilter.obj
 0003:000182d0       ??_R1A@?0A@EA@CEnumMediaTypes@@8 100982d0     strmbasd:amfilter.obj
 0003:000182f4       ??_R1A@?0A@EA@IEnumMediaTypes@@8 100982f4     strmbasd:amfilter.obj
 0003:00018318       ??_R3IEnumMediaTypes@@8    10098318     strmbasd:amfilter.obj
 0003:0001832c       ??_R2IEnumMediaTypes@@8    1009832c     strmbasd:amfilter.obj
 0003:00018338       ??_R4CMediaSample@@6B@     10098338     strmbasd:amfilter.obj
 0003:00018350       ??_R3CMediaSample@@8       10098350     strmbasd:amfilter.obj
 0003:00018364       ??_R2CMediaSample@@8       10098364     strmbasd:amfilter.obj
 0003:00018378       ??_R1A@?0A@EA@CMediaSample@@8 10098378     strmbasd:amfilter.obj
 0003:0001839c       ??_R1A@?0A@EA@IMediaSample2@@8 1009839c     strmbasd:amfilter.obj
 0003:000183c0       ??_R3IMediaSample2@@8      100983c0     strmbasd:amfilter.obj
 0003:000183d4       ??_R2IMediaSample2@@8      100983d4     strmbasd:amfilter.obj
 0003:000183e4       ??_R1A@?0A@EA@IMediaSample@@8 100983e4     strmbasd:amfilter.obj
 0003:00018408       ??_R3IMediaSample@@8       10098408     strmbasd:amfilter.obj
 0003:0001841c       ??_R2IMediaSample@@8       1009841c     strmbasd:amfilter.obj
 0003:00018428       ??_R4CDynamicOutputPin@@6BCUnknown@@@ 10098428     strmbasd:amfilter.obj
 0003:00018440       ??_R3CDynamicOutputPin@@8  10098440     strmbasd:amfilter.obj
 0003:00018454       ??_R2CDynamicOutputPin@@8  10098454     strmbasd:amfilter.obj
 0003:00018490       ??_R1A@?0A@EA@CDynamicOutputPin@@8 10098490     strmbasd:amfilter.obj
 0003:000184b4       ??_R1KI@?0A@EA@IPinFlowControl@@8 100984b4     strmbasd:amfilter.obj
 0003:000184d8       ??_R3IPinFlowControl@@8    100984d8     strmbasd:amfilter.obj
 0003:000184ec       ??_R2IPinFlowControl@@8    100984ec     strmbasd:amfilter.obj
 0003:000184f8       ??_R1A@?0A@EA@IPinFlowControl@@8 100984f8     strmbasd:amfilter.obj
 0003:0001851c       ??_R1KI@?0A@EC@IUnknown@@8 1009851c     strmbasd:amfilter.obj
 0003:00018540       ??_R4CDynamicOutputPin@@6BIPin@@@ 10098540     strmbasd:amfilter.obj
 0003:00018558       ??_R4CDynamicOutputPin@@6BIQualityControl@@@ 10098558     strmbasd:amfilter.obj
 0003:00018570       ??_R4CDynamicOutputPin@@6B@ 10098570     strmbasd:amfilter.obj
 0003:00018588       ??_R4CMemAllocator@@6BCUnknown@@@ 10098588     strmbasd:amfilter.obj
 0003:000185a0       ??_R3CMemAllocator@@8      100985a0     strmbasd:amfilter.obj
 0003:000185b4       ??_R2CMemAllocator@@8      100985b4     strmbasd:amfilter.obj
 0003:000185e0       ??_R1A@?0A@EA@CMemAllocator@@8 100985e0     strmbasd:amfilter.obj
 0003:00018604       ??_R1A@?0A@EA@CBaseAllocator@@8 10098604     strmbasd:amfilter.obj
 0003:00018628       ??_R3CBaseAllocator@@8     10098628     strmbasd:amfilter.obj
 0003:0001863c       ??_R2CBaseAllocator@@8     1009863c     strmbasd:amfilter.obj
 0003:00018664       ??_R1BA@?0A@EA@IMemAllocatorCallbackTemp@@8 10098664     strmbasd:amfilter.obj
 0003:00018688       ??_R3IMemAllocatorCallbackTemp@@8 10098688     strmbasd:amfilter.obj
 0003:0001869c       ??_R2IMemAllocatorCallbackTemp@@8 1009869c     strmbasd:amfilter.obj
 0003:000186ac       ??_R1A@?0A@EA@IMemAllocatorCallbackTemp@@8 100986ac     strmbasd:amfilter.obj
 0003:000186d0       ??_R1A@?0A@EA@IMemAllocator@@8 100986d0     strmbasd:amfilter.obj
 0003:000186f4       ??_R3IMemAllocator@@8      100986f4     strmbasd:amfilter.obj
 0003:00018708       ??_R2IMemAllocator@@8      10098708     strmbasd:amfilter.obj
 0003:00018714       ??_R1BA@?0A@EA@IMemAllocator@@8 10098714     strmbasd:amfilter.obj
 0003:00018738       ??_R1BA@?0A@EA@IUnknown@@8 10098738     strmbasd:amfilter.obj
 0003:0001875c       ??_R1BE@?0A@EA@CCritSec@@8 1009875c     strmbasd:amfilter.obj
 0003:00018780       ??_R3CCritSec@@8           10098780     strmbasd:amfilter.obj
 0003:00018794       ??_R2CCritSec@@8           10098794     strmbasd:amfilter.obj
 0003:0001879c       ??_R1A@?0A@EA@CCritSec@@8  1009879c     strmbasd:amfilter.obj
 0003:000187c0       ??_R4CMemAllocator@@6BIMemAllocatorCallbackTemp@@@ 100987c0     strmbasd:amfilter.obj
 0003:000187d8       ??_R4type_info@@6B@        100987d8     MSVCRTD:ti_inst.obj
 0003:000187f0       ??_R3type_info@@8          100987f0     MSVCRTD:ti_inst.obj
 0003:00018804       ??_R2type_info@@8          10098804     MSVCRTD:ti_inst.obj
 0003:0001880c       ??_R1A@?0A@EA@type_info@@8 1009880c     MSVCRTD:ti_inst.obj
 0003:000189d4       ___rtc_iaa                 100989d4     MSVCRTD:initsect.obj
 0003:00018c44       ___rtc_izz                 10098c44     MSVCRTD:initsect.obj
 0003:00018d48       ___rtc_taa                 10098d48     MSVCRTD:initsect.obj
 0003:00018fb8       ___rtc_tzz                 10098fb8     MSVCRTD:initsect.obj
 0003:00019790       __TI3?AVlength_error@std@@ 10099790     HVDServiceBase.obj
 0003:000197d4       __CTA3?AVlength_error@std@@ 100997d4     HVDServiceBase.obj
 0003:000197e8       __CT??_R0?AVlength_error@std@@@8??0length_error@std@@QAE@ABV01@@Z44 100997e8     HVDServiceBase.obj
 0003:00019808       __CT??_R0?AVlogic_error@std@@@8??0logic_error@std@@QAE@ABV01@@Z44 10099808     HVDServiceBase.obj
 0003:00019828       __CT??_R0?AVexception@std@@@8??0exception@std@@QAE@ABV01@@Z12 10099828     HVDServiceBase.obj
 0003:00019914       __TI2?AVbad_alloc@std@@    10099914     HVDServiceBase.obj
 0003:00019928       __CTA2?AVbad_alloc@std@@   10099928     HVDServiceBase.obj
 0003:00019938       __CT??_R0?AVbad_alloc@std@@@8??0bad_alloc@std@@QAE@ABV01@@Z12 10099938     HVDServiceBase.obj
 0003:0001ad00       __TI1?AVCAtlException@ATL@@ 1009ad00     atlsd:Externs.obj
 0003:0001ad14       __CTA1?AVCAtlException@ATL@@ 1009ad14     atlsd:Externs.obj
 0003:0001ad1c       __CT??_R0?AVCAtlException@ATL@@@84 1009ad1c     atlsd:Externs.obj
 0003:0001b170       ___pobjMapEntryFirst       1009b170     HVDDxva1Binder.obj
 0003:0001b274       ___pobjMapEntryLast        1009b274     HVDDxva1Binder.obj
 0004:00000088       ??_R0?AVCHVDDSAMVANotify@HVDService@@@8 1009c088     HVDDSAMVANotify.obj
 0004:000000bc       ??_R0?AUIHVDDXVA1AMVANofityConfig@@@8 1009c0bc     HVDDSAMVANotify.obj
 0004:000000ec       ??_R0?AUIiviVideoAcceleratorNotify2@@@8 1009c0ec     HVDDSAMVANotify.obj
 0004:00000120       ??_R0?AUIiviVideoAcceleratorNotify@@@8 1009c120     HVDDSAMVANotify.obj
 0004:00000154       ??_R0?AUIAMVideoAcceleratorNotify@@@8 1009c154     HVDDSAMVANotify.obj
 0004:00000184       ??_R0?AUIUnknown@@@8       1009c184     HVDDSAMVANotify.obj
 0004:000001a0       ??_R0?AVCUnknown@@@8       1009c1a0     HVDDSAMVANotify.obj
 0004:000001bc       ??_R0?AUINonDelegatingUnknown@@@8 1009c1bc     HVDDSAMVANotify.obj
 0004:000001e8       ??_R0?AVCBaseObject@@@8    1009c1e8     HVDDSAMVANotify.obj
 0004:00000208       ?__LINE__Var@?1??WdmProxyService@CHVDDSHelper@HVDService@@QAGJPAHABU_GUID@@PBDPAPAUIBaseFilter@@PAD@Z@4JA 1009c208     HVDDSHelper.obj
 0004:0000020c       ??_R0?AVCHVDDSOutPin@HVDService@@@8 1009c20c     HVDDSOutPin.obj
 0004:0000023c       ??_R0?AVCBaseOutputPin@@@8 1009c23c     HVDDSOutPin.obj
 0004:00000260       ??_R0?AVCBasePin@@@8       1009c260     HVDDSOutPin.obj
 0004:0000027c       ??_R0?AUIPin@@@8           1009c27c     HVDDSOutPin.obj
 0004:00000294       ??_R0?AUIQualityControl@@@8 1009c294     HVDDSOutPin.obj
 0004:000002b8       ??_R0?AVCHVDDSVPConfig@HVDService@@@8 1009c2b8     HVDDSVPConfig.obj
 0004:000002e8       ??_R0?AUIVPConfig@@@8      1009c2e8     HVDDSVPConfig.obj
 0004:00000304       ??_R0?AUIVPBaseConfig@@@8  1009c304     HVDDSVPConfig.obj
 0004:00000328       ?m_pVidOutType@CHVDDxva1Binder@HVDService@@0PAU__MIDL___MIDL_itf_strmif_0000_0022_0001@@A 1009c328     HVDDxva1Binder.obj
 0004:00000390       ?m_pSubOutType@CHVDDxva1Binder@HVDService@@0PAU__MIDL___MIDL_itf_strmif_0000_0022_0001@@A 1009c390     HVDDxva1Binder.obj
 0004:000003a8       ?m_FilterInfo@CHVDDxva1Binder@HVDService@@0U_AMOVIESETUP_FILTER@@A 1009c3a8     HVDDxva1Binder.obj
 0004:000003dc       ??_R0?AVCHVDDxva1Binder@HVDService@@@8 1009c3dc     HVDDxva1Binder.obj
 0004:00000410       ??_R0?AVCBaseFilter@@@8    1009c410     HVDDxva1Binder.obj
 0004:00000430       ??_R0?AUIBaseFilter@@@8    1009c430     HVDDxva1Binder.obj
 0004:00000450       ??_R0?AUIMediaFilter@@@8   1009c450     HVDDxva1Binder.obj
 0004:00000470       ??_R0?AUIPersist@@@8       1009c470     HVDDxva1Binder.obj
 0004:0000048c       ??_R0?AUIAMovieSetup@@@8   1009c48c     HVDDxva1Binder.obj
 0004:000004ac       ??_R0?AUThank_you@Define_the_symbol__ATL_MIXED@@@8 1009c4ac     HVDDxva1Binder.obj
 0004:000004f0       ??_R0?AVCFastReadback@HVDService@@@8 1009c4f0     HVDFastReadback.obj
 0004:00000520       ??_R0?AVCD3DFastReadback@HVDService@@@8 1009c520     HVDFastReadback.obj
 0004:00000554       ??_R0?AVCNVFastReadback@HVDService@@@8 1009c554     HVDFastReadback.obj
 0004:00000588       ??_R0?AVCIntelFastReadback@HVDService@@@8 1009c588     HVDFastReadback.obj
 0004:000005bc       ??_R0?AVCATIFastReadback@HVDService@@@8 1009c5bc     HVDFastReadback.obj
 0004:000005f8       ??_R0?AVCHVDServiceBase@HVDService@@@8 1009c5f8     HVDServiceBase.obj
 0004:0000062c       ??_R0?AUIHVDService@@@8    1009c62c     HVDServiceBase.obj
 0004:0000064c       ?__LINE__Var@?1??AddRef@CHVDServiceBase@HVDService@@UAGKXZ@4JA 1009c64c     HVDServiceBase.obj
 0004:00000650       ?__LINE__Var@?1??Release@CHVDServiceBase@HVDService@@UAGKXZ@4JA 1009c650     HVDServiceBase.obj
 0004:00000654       ?__LINE__Var@?1??Initialize@CHVDServiceBase@HVDService@@UAGJPAUHVDInitConfig@3@@Z@4JA 1009c654     HVDServiceBase.obj
 0004:00000658       ??_R0?AVlength_error@std@@@8 1009c658     HVDServiceBase.obj
 0004:00000680       ??_R0?AVlogic_error@std@@@8 1009c680     HVDServiceBase.obj
 0004:000006a4       ??_R0?AVexception@std@@@8  1009c6a4     HVDServiceBase.obj
 0004:000006c8       ??_R0?AVbad_alloc@std@@@8  1009c6c8     HVDServiceBase.obj
 0004:000006f0       ??_R0?AVCHVDServiceDxva1@HVDService@@@8 1009c6f0     HVDServiceDxva1.obj
 0004:00000724       ??_R0?AUIHVDServiceDxva1@@@8 1009c724     HVDServiceDxva1.obj
 0004:0000074c       ??_R0?AUIHVDServiceDxva@@@8 1009c74c     HVDServiceDxva1.obj
 0004:00000770       ?__LINE__Var@?1??AddRef@CHVDServiceDxva1@HVDService@@UAGKXZ@4JA 1009c770     HVDServiceDxva1.obj
 0004:00000774       ?__LINE__Var@?1??Release@CHVDServiceDxva1@HVDService@@UAGKXZ@4JA 1009c774     HVDServiceDxva1.obj
 0004:00000778       ?__LINE__Var@?1??SetMixingPref@CHVDServiceDxva1@HVDService@@IAEJKH@Z@4JA 1009c778     HVDServiceDxva1.obj
 0004:00000780       ??_R0?AVCSurfacePool@HVDService@@@8 1009c780     HVDServiceDxva2.obj
 0004:000007b0       ?__LINE__Var@?1??Release@CSurfacePool@HVDService@@QAEJXZ@4JA 1009c7b0     HVDServiceDxva2.obj
 0004:000007b4       ??_R0?AVCHVDServiceDxva2@HVDService@@@8 1009c7b4     HVDServiceDxva2.obj
 0004:000007e8       ??_R0?AUIHVDServiceDxva2@@@8 1009c7e8     HVDServiceDxva2.obj
 0004:00000810       ?__LINE__Var@?1??AddRef@CHVDServiceDxva2@HVDService@@UAGKXZ@4JA 1009c810     HVDServiceDxva2.obj
 0004:00000814       ?__LINE__Var@?1??Release@CHVDServiceDxva2@HVDService@@UAGKXZ@4JA 1009c814     HVDServiceDxva2.obj
 0004:00000818       ?__LINE__Var@?1??NonDelegatingAddRef@CUnknown@@UAGKXZ@4JA 1009c818     strmbasd:combase.obj
 0004:0000081c       ?__LINE__Var@?1??NonDelegatingRelease@CUnknown@@UAGKXZ@4JA 1009c81c     strmbasd:combase.obj
 0004:00000820       ?__LINE__Var@?1??IsEqualObject@@YGHPAUIUnknown@@0@Z@4JA 1009c820     strmbasd:combase.obj
 0004:00000828       ?m_hOutput@@3PAXA          1009c828     strmbasd:wxdebug.obj
 0004:0000082c       ?dwWaitTimeout@@3KA        1009c82c     strmbasd:wxdebug.obj
 0004:00000830       ?pBaseKey@@3PBDB           1009c830     strmbasd:wxdebug.obj
 0004:00000834       ?pGlobalKey@@3PBDB         1009c834     strmbasd:wxdebug.obj
 0004:0000083c       ?TimeoutName@@3PBDB        1009c83c     strmbasd:wxdebug.obj
 0004:00000840       ?g_GuidNames@@3PAUGUID_STRING_ENTRY@@A 1009c840     strmbasd:wxdebug.obj
 0004:00002654       ?g_cGuidNames@@3HA         1009e654     strmbasd:wxdebug.obj
 0004:00002c64       ?__LINE__Var@?1??DbgTerminate@@YGXXZ@4JA 1009ec64     strmbasd:wxdebug.obj
 0004:00002c68       ?__LINE__Var@?1??DbgInitLogTo@@YGXPAUHKEY__@@@Z@4JA 1009ec68     strmbasd:wxdebug.obj
 0004:00002c6c       ?__LINE__Var@?1??DbgBreakPoint@@YAXPBDH0ZZ@4JA 1009ec6c     strmbasd:wxdebug.obj
 0004:00002c70       ?__LINE__Var@?1??DbgRegisterObjectCreation@@YGKPBDPB_W@Z@4JA 1009ec70     strmbasd:wxdebug.obj
 0004:00002c74       ?__LINE__Var@?1??DbgRegisterObjectDestruction@@YGHK@Z@4JA 1009ec74     strmbasd:wxdebug.obj
 0004:00002c78       ?__LINE__Var@?1??DbgWaitForSingleObject@@YGKPAX@Z@4JA 1009ec78     strmbasd:wxdebug.obj
 0004:00002c7c       ?__LINE__Var@?1??DbgWaitForMultipleObjects@@YGKKPBQAXH@Z@4JA 1009ec7c     strmbasd:wxdebug.obj
 0004:00002c80       ?__LINE__Var@?1??SetFormat@CMediaType@@QAEHPAEK@Z@4JA 1009ec80     strmbasd:mtype.obj
 0004:00002c84       ?__LINE__Var@?1??AllocFormatBuffer@CMediaType@@QAEPAEK@Z@4JA 1009ec84     strmbasd:mtype.obj
 0004:00002c88       ?__LINE__Var@?1??ReallocFormatBuffer@CMediaType@@QAEPAEK@Z@4JA 1009ec88     strmbasd:mtype.obj
 0004:00002c8c       ?__LINE__Var@?1??CreateMediaType@@YGPAU_AMMediaType@@PBU2@@Z@4JA 1009ec8c     strmbasd:mtype.obj
 0004:00002c90       ?__LINE__Var@?1??CopyMediaType@@YGJPAU_AMMediaType@@PBU2@@Z@4JA 1009ec90     strmbasd:mtype.obj
 0004:00002c94       ?__LINE__Var@?1??GetNextI@CBaseList@@IBEPAXAAPAU__POSITION@@@Z@4JA 1009ec94     strmbasd:wxlist.obj
 0004:00002c98       ?__LINE__Var@?1??RemoveI@CBaseList@@IAEPAXPAU__POSITION@@@Z@4JA 1009ec98     strmbasd:wxlist.obj
 0004:00002c9c       ?__LINE__Var@?1??AddAfterI@CBaseList@@IAEPAU__POSITION@@PAU3@PAX@Z@4JA 1009ec9c     strmbasd:wxlist.obj
 0004:00002ca0       ?__LINE__Var@?1??AddBeforeI@CBaseList@@IAEPAU__POSITION@@PAU3@PAX@Z@4JA 1009eca0     strmbasd:wxlist.obj
 0004:00002ca4       ?__LINE__Var@?1??NonDelegatingRelease@CBaseFilter@@UAGKXZ@4JA 1009eca4     strmbasd:amfilter.obj
 0004:00002ca8       ?__LINE__Var@?1???0CBaseFilter@@QAE@PBDPAUIUnknown@@PAVCCritSec@@ABU_GUID@@@Z@4JA 1009eca8     strmbasd:amfilter.obj
 0004:00002cac       ?__LINE__Var@?1???0CBaseFilter@@QAE@PBDPAUIUnknown@@PAVCCritSec@@ABU_GUID@@PAJ@Z@4JA 1009ecac     strmbasd:amfilter.obj
 0004:00002cb0       ?__LINE__Var@?1??JoinFilterGraph@CBaseFilter@@UAGJPAUIFilterGraph@@PB_W@Z@4JA 1009ecb0     strmbasd:amfilter.obj
 0004:00002cb4       ?__LINE__Var@?1??Register@CBaseFilter@@UAGJXZ@4JA 1009ecb4     strmbasd:amfilter.obj
 0004:00002cb8       ?__LINE__Var@?1??Unregister@CBaseFilter@@UAGJXZ@4JA 1009ecb8     strmbasd:amfilter.obj
 0004:00002cbc       ?__LINE__Var@?1???0CEnumPins@@QAE@PAVCBaseFilter@@PAV1@@Z@4JA 1009ecbc     strmbasd:amfilter.obj
 0004:00002cc0       ??_R0?AVCEnumPins@@@8      1009ecc0     strmbasd:amfilter.obj
 0004:00002cdc       ??_R0?AUIEnumPins@@@8      1009ecdc     strmbasd:amfilter.obj
 0004:00002cf8       ?__LINE__Var@?1??Next@CEnumPins@@UAGJKPAPAUIPin@@PAK@Z@4JA 1009ecf8     strmbasd:amfilter.obj
 0004:00002cfc       ?__LINE__Var@?1???0CEnumMediaTypes@@QAE@PAVCBasePin@@PAV1@@Z@4JA 1009ecfc     strmbasd:amfilter.obj
 0004:00002d00       ??_R0?AVCEnumMediaTypes@@@8 1009ed00     strmbasd:amfilter.obj
 0004:00002d24       ??_R0?AUIEnumMediaTypes@@@8 1009ed24     strmbasd:amfilter.obj
 0004:00002d48       ?__LINE__Var@?1???0CBasePin@@QAE@PBDPAVCBaseFilter@@PAVCCritSec@@PAJPB_WW4_PinDirection@@@Z@4JA 1009ed48     strmbasd:amfilter.obj
 0004:00002d4c       ?__LINE__Var@?1???1CBasePin@@UAE@XZ@4JA 1009ed4c     strmbasd:amfilter.obj
 0004:00002d50       ?__LINE__Var@?1??NonDelegatingAddRef@CBasePin@@UAGKXZ@4JA 1009ed50     strmbasd:amfilter.obj
 0004:00002d54       ?__LINE__Var@?1??NonDelegatingRelease@CBasePin@@UAGKXZ@4JA 1009ed54     strmbasd:amfilter.obj
 0004:00002d58       ?__LINE__Var@?1??Connect@CBasePin@@UAGJPAUIPin@@PBU_AMMediaType@@@Z@4JA 1009ed58     strmbasd:amfilter.obj
 0004:00002d5c       ?__LINE__Var@?1??AttemptConnection@CBasePin@@IAEJPAUIPin@@PBVCMediaType@@@Z@4JA 1009ed5c     strmbasd:amfilter.obj
 0004:00002d60       ?__LINE__Var@?1??TryMediaTypes@CBasePin@@IAEJPAUIPin@@PBVCMediaType@@PAUIEnumMediaTypes@@@Z@4JA 1009ed60     strmbasd:amfilter.obj
 0004:00002d64       ?__LINE__Var@?1??AgreeMediaType@CBasePin@@IAEJPAUIPin@@PBVCMediaType@@@Z@4JA 1009ed64     strmbasd:amfilter.obj
 0004:00002d68       ?__LINE__Var@?1??CheckConnect@CBasePin@@UAEJPAUIPin@@@Z@4JA 1009ed68     strmbasd:amfilter.obj
 0004:00002d6c       ?__LINE__Var@?1??ReceiveConnection@CBasePin@@UAGJPAUIPin@@PBU_AMMediaType@@@Z@4JA 1009ed6c     strmbasd:amfilter.obj
 0004:00002d70       ?__LINE__Var@?1??DisconnectInternal@CBasePin@@IAGJXZ@4JA 1009ed70     strmbasd:amfilter.obj
 0004:00002d74       ?__LINE__Var@?1??ConnectedTo@CBasePin@@UAGJPAPAUIPin@@@Z@4JA 1009ed74     strmbasd:amfilter.obj
 0004:00002d78       ?__LINE__Var@?1??Notify@CBasePin@@UAGJPAUIBaseFilter@@UtagQuality@@@Z@4JA 1009ed78     strmbasd:amfilter.obj
 0004:00002d7c       ?__LINE__Var@?1???0CBaseOutputPin@@QAE@PBDPAVCBaseFilter@@PAVCCritSec@@PAJPB_W@Z@4JA 1009ed7c     strmbasd:amfilter.obj
 0004:00002d80       ?__LINE__Var@?1??GetAllocator@CBaseInputPin@@UAGJPAPAUIMemAllocator@@@Z@4JA 1009ed80     strmbasd:amfilter.obj
 0004:00002d84       ?__LINE__Var@?1??Receive@CBaseInputPin@@UAGJPAUIMediaSample@@@Z@4JA 1009ed84     strmbasd:amfilter.obj
 0004:00002d88       ?__LINE__Var@?1??ReceiveCanBlock@CBaseInputPin@@UAGJXZ@4JA 1009ed88     strmbasd:amfilter.obj
 0004:00002d8c       ?__LINE__Var@?1??BeginFlush@CBaseInputPin@@UAGJXZ@4JA 1009ed8c     strmbasd:amfilter.obj
 0004:00002d90       ?__LINE__Var@?1??EndFlush@CBaseInputPin@@UAGJXZ@4JA 1009ed90     strmbasd:amfilter.obj
 0004:00002d94       ?__LINE__Var@?1??Notify@CBaseInputPin@@UAGJPAUIBaseFilter@@UtagQuality@@@Z@4JA 1009ed94     strmbasd:amfilter.obj
 0004:00002d98       ?__LINE__Var@?1??CheckStreaming@CBaseInputPin@@UAEJXZ@4JA 1009ed98     strmbasd:amfilter.obj
 0004:00002d9c       ?__LINE__Var@?1???0CMediaSample@@QAE@PBDPAVCBaseAllocator@@PAJPAEJ@Z@4JA 1009ed9c     strmbasd:amfilter.obj
 0004:00002da0       ??_R0?AVCMediaSample@@@8   1009eda0     strmbasd:amfilter.obj
 0004:00002dc0       ??_R0?AUIMediaSample2@@@8  1009edc0     strmbasd:amfilter.obj
 0004:00002de4       ??_R0?AUIMediaSample@@@8   1009ede4     strmbasd:amfilter.obj
 0004:00002e04       ?__LINE__Var@?1??Release@CMediaSample@@UAGKXZ@4JA 1009ee04     strmbasd:amfilter.obj
 0004:00002e08       ?__LINE__Var@?1??GetPointer@CMediaSample@@UAGJPAPAE@Z@4JA 1009ee08     strmbasd:amfilter.obj
 0004:00002e0c       ?__LINE__Var@?1??SetTime@CMediaSample@@UAGJPA_J0@Z@4JA 1009ee0c     strmbasd:amfilter.obj
 0004:00002e10       ?__LINE__Var@?1??SetMediaTime@CMediaSample@@UAGJPA_J0@Z@4JA 1009ee10     strmbasd:amfilter.obj
 0004:00002e14       ?__LINE__Var@?1??SetActualDataLength@CMediaSample@@UAGJJ@Z@4JA 1009ee14     strmbasd:amfilter.obj
 0004:00002e18       ?__LINE__Var@?1??GetMediaType@CMediaSample@@UAGJPAPAU_AMMediaType@@@Z@4JA 1009ee18     strmbasd:amfilter.obj
 0004:00002e1c       ?__LINE__Var@?1??SetMediaType@CMediaSample@@UAGJPAU_AMMediaType@@@Z@4JA 1009ee1c     strmbasd:amfilter.obj
 0004:00002e20       ??_R0?AVCDynamicOutputPin@@@8 1009ee20     strmbasd:amfilter.obj
 0004:00002e48       ??_R0?AUIPinFlowControl@@@8 1009ee48     strmbasd:amfilter.obj
 0004:00002e6c       ?__LINE__Var@?1??Deliver@CDynamicOutputPin@@UAEJPAUIMediaSample@@@Z@4JA 1009ee6c     strmbasd:amfilter.obj
 0004:00002e70       ?__LINE__Var@?1??DeliverEndOfStream@CDynamicOutputPin@@UAEJXZ@4JA 1009ee70     strmbasd:amfilter.obj
 0004:00002e74       ?__LINE__Var@?1??DeliverNewSegment@CDynamicOutputPin@@UAEJ_J0N@Z@4JA 1009ee74     strmbasd:amfilter.obj
 0004:00002e78       ?__LINE__Var@?1???1CDynamicOutputPin@@UAE@XZ@4JA 1009ee78     strmbasd:amfilter.obj
 0004:00002e7c       ?__LINE__Var@?1??SynchronousBlockOutputPin@CDynamicOutputPin@@IAEJXZ@4JA 1009ee7c     strmbasd:amfilter.obj
 0004:00002e80       ?__LINE__Var@?1??BlockOutputPin@CDynamicOutputPin@@IAEXXZ@4JA 1009ee80     strmbasd:amfilter.obj
 0004:00002e84       ?__LINE__Var@?1??UnblockOutputPin@CDynamicOutputPin@@IAEJXZ@4JA 1009ee84     strmbasd:amfilter.obj
 0004:00002e88       ?__LINE__Var@?1??StartUsingOutputPin@CDynamicOutputPin@@UAEJXZ@4JA 1009ee88     strmbasd:amfilter.obj
 0004:00002e8c       ?__LINE__Var@?1??Active@CDynamicOutputPin@@UAEJXZ@4JA 1009ee8c     strmbasd:amfilter.obj
 0004:00002e90       ?__LINE__Var@?1??Inactive@CDynamicOutputPin@@UAEJXZ@4JA 1009ee90     strmbasd:amfilter.obj
 0004:00002e94       ?__LINE__Var@?1??DeliverBeginFlush@CDynamicOutputPin@@UAEJXZ@4JA 1009ee94     strmbasd:amfilter.obj
 0004:00002e98       ?__LINE__Var@?1??DeliverEndFlush@CDynamicOutputPin@@UAEJXZ@4JA 1009ee98     strmbasd:amfilter.obj
 0004:00002e9c       ?__LINE__Var@?1??ChangeOutputFormat@CDynamicOutputPin@@QAEJPBU_AMMediaType@@_J1N@Z@4JA 1009ee9c     strmbasd:amfilter.obj
 0004:00002ea0       ?__LINE__Var@?1??ChangeMediaType@CDynamicOutputPin@@QAEJPBVCMediaType@@@Z@4JA 1009eea0     strmbasd:amfilter.obj
 0004:00002ea4       ?__LINE__Var@?1??ChangeMediaTypeHelper@CDynamicOutputPin@@AAEJPBVCMediaType@@@Z@4JA 1009eea4     strmbasd:amfilter.obj
 0004:00002ea8       ?__LINE__Var@?1??DynamicReconnect@CDynamicOutputPin@@QAEJPBVCMediaType@@@Z@4JA 1009eea8     strmbasd:amfilter.obj
 0004:00002eac       ?__LINE__Var@?1??CompleteConnect@CDynamicOutputPin@@UAEJPAUIPin@@@Z@4JA 1009eeac     strmbasd:amfilter.obj
 0004:00002eb0       ?__LINE__Var@?1??AssertValid@CDynamicOutputPin@@AAEXXZ@4JA 1009eeb0     strmbasd:amfilter.obj
 0004:00002eb4       ?__LINE__Var@?1??WaitEvent@CDynamicOutputPin@@KAJPAX@Z@4JA@829f6d65 1009eeb4     strmbasd:amfilter.obj
 0004:00002eb8       ?__LINE__Var@?1???1CBaseAllocator@@UAE@XZ@4JA 1009eeb8     strmbasd:amfilter.obj
 0004:00002ebc       ?__LINE__Var@?1??SetProperties@CBaseAllocator@@UAGJPAU_AllocatorProperties@@0@Z@4JA 1009eebc     strmbasd:amfilter.obj
 0004:00002ec0       ?__LINE__Var@?1??GetBuffer@CBaseAllocator@@UAGJPAPAUIMediaSample@@PA_J1K@Z@4JA 1009eec0     strmbasd:amfilter.obj
 0004:00002ec4       ?__LINE__Var@?1??ReleaseBuffer@CBaseAllocator@@UAGJPAUIMediaSample@@@Z@4JA 1009eec4     strmbasd:amfilter.obj
 0004:00002ec8       ?__LINE__Var@?1??SetNotify@CBaseAllocator@@UAGJPAUIMemAllocatorNotifyCallbackTemp@@@Z@4JA 1009eec8     strmbasd:amfilter.obj
 0004:00002ecc       ?__LINE__Var@?1??GetFreeCount@CBaseAllocator@@UAGJPAJ@Z@4JA 1009eecc     strmbasd:amfilter.obj
 0004:00002ed0       ?__LINE__Var@?1??NotifySample@CBaseAllocator@@QAEXXZ@4JA 1009eed0     strmbasd:amfilter.obj
 0004:00002ed4       ?__LINE__Var@?1??Alloc@CBaseAllocator@@MAEJXZ@4JA 1009eed4     strmbasd:amfilter.obj
 0004:00002ed8       ?__LINE__Var@?1??Remove@CSampleList@CBaseAllocator@@QAEXPAVCMediaSample@@@Z@4JA 1009eed8     strmbasd:amfilter.obj
 0004:00002edc       ??_R0?AVCMemAllocator@@@8  1009eedc     strmbasd:amfilter.obj
 0004:00002f00       ??_R0?AVCBaseAllocator@@@8 1009ef00     strmbasd:amfilter.obj
 0004:00002f24       ??_R0?AUIMemAllocatorCallbackTemp@@@8 1009ef24     strmbasd:amfilter.obj
 0004:00002f54       ??_R0?AUIMemAllocator@@@8  1009ef54     strmbasd:amfilter.obj
 0004:00002f78       ??_R0?AVCCritSec@@@8       1009ef78     strmbasd:amfilter.obj
 0004:00002f94       ?__LINE__Var@?1??SetProperties@CMemAllocator@@UAGJPAU_AllocatorProperties@@0@Z@4JA 1009ef94     strmbasd:amfilter.obj
 0004:00002f98       ?__LINE__Var@?1??Alloc@CMemAllocator@@MAEJXZ@4JA 1009ef98     strmbasd:amfilter.obj
 0004:00002f9c       ?__LINE__Var@?1??ReallyFree@CMemAllocator@@IAEXXZ@4JA 1009ef9c     strmbasd:amfilter.obj
 0004:00002fa0       ?__LINE__Var@?1???1CAMEvent@@QAE@XZ@4JA 1009efa0     strmbasd:wxutil.obj
 0004:00002fa4       ?__LINE__Var@?1??CoInitializeHelper@CAMThread@@SAJXZ@4JA@828df9a3 1009efa4     strmbasd:wxutil.obj
 0004:00002fa8       ?__LINE__Var@?1???1CMsgThread@@QAE@XZ@4JA 1009efa8     strmbasd:wxutil.obj
 0004:00002fac       ?__LINE__Var@?1??GetTrueColorType@@9@4@4JA 1009efac     strmbasd:amvideo.obj
 0004:00002fb0       ?__LINE__Var@?1??GetBitmapSubtype@@9@4@4JA 1009efb0     strmbasd:amvideo.obj
 0004:00002fb4       ?__LINE__Var@?1??GetBitCount@@9@4@4JA 1009efb4     strmbasd:amvideo.obj
 0004:00002fb8       ?__LINE__Var@?1??LocateSubtype@@YAHPBU_GUID@@@Z@4JA 1009efb8     strmbasd:amvideo.obj
 0004:00002fbc       ?__LINE__Var@?1??GetBitmapFormatSize@@9@4@4JA 1009efbc     strmbasd:amvideo.obj
 0004:0000397c       ?kSynchName@@3PBDB         1009f97c     libgpu:UtilGPU.obj
 0004:00003980       ?kScrOriName@@3PBDB        1009f980     libgpu:UtilGPU.obj
 0004:00003988       ___security_cookie         1009f988     MSVCRTD:gs_cookie.obj
 0004:0000398c       ___security_cookie_complement 1009f98c     MSVCRTD:gs_cookie.obj
 0004:00003990       ??_R0?AVtype_info@@@8      1009f990     MSVCRTD:ti_inst.obj
 0004:000039ac       ?_RTC_ErrorLevels@@3PAHA   1009f9ac     MSVCRTD:error.obj
 0004:000039fc       ___native_dllmain_reason   1009f9fc     MSVCRTD:natstart.obj
 0004:00003a00       ___native_vcclrit_reason   1009fa00     MSVCRTD:natstart.obj
 0004:00003a08       ?g_pfnGetThreadACP@ATL@@3P6GIXZA 1009fa08     atlsd:atltrace.obj
 0004:00003a0c       ?rcDefault@CWindow@ATL@@2UtagRECT@@A 1009fa0c     atlsd:atltrace.obj
 0004:00003a20       ?g_pszUpdateEventName@@3PBDB 1009fa20     atlsd:Externs.obj
 0004:00003a24       ?g_pszAllocFileMapName@@3PBDB 1009fa24     atlsd:Externs.obj
 0004:00003a28       ?g_pszKernelObjFmt@@3PBDB  1009fa28     atlsd:Externs.obj
 0004:00003a30       ??_R0?AVCAtlException@ATL@@@8 1009fa30     atlsd:Externs.obj
 0004:00003bf0       ?_pAtlAutoThreadModule@ATL@@3PAUIAtlAutoThreadModule@1@A 1009fbf0     HVDDxva1Binder.obj
 0004:00003bf4       ?s_pfnPrevHook@CNoUIAssertHook@ATL@@0P6AHHPADPAH@ZA 1009fbf4     HVDDxva1Binder.obj
 0004:00003bf8       ?m_bInitFailed@CAtlBaseModule@ATL@@2_NA 1009fbf8     HVDDxva1Binder.obj
 0004:00003bfc       ?_pPerfRegFunc@ATL@@3P6AJPAUHINSTANCE__@@@ZA 1009fbfc     HVDDxva1Binder.obj
 0004:00003c00       ?_pPerfUnRegFunc@ATL@@3P6AJXZA 1009fc00     HVDDxva1Binder.obj
 0004:00003c04       ?_pAtlModule@ATL@@3PAVCAtlModule@1@A 1009fc04     HVDDxva1Binder.obj
 0004:00003c08       ?m_libid@CAtlModule@ATL@@2U_GUID@@A 1009fc08     HVDDxva1Binder.obj
 0004:00003c1c       ?_pModule@ATL@@3PAVCComModule@1@A 1009fc1c     HVDDxva1Binder.obj
 0004:00003c20       ?ATL_CREATE_OBJECT@CComApartment@ATL@@2IA 1009fc20     HVDDxva1Binder.obj
 0004:00003c24       ?clash@Define_the_symbol__ATL_MIXED@@3UThank_you@1@A 1009fc24     HVDDxva1Binder.obj
 0004:00003c28       ?clash@Inconsistent_definition_of_symbol__ATL_MIXED@@3U_Please_define_it_the_same_throughout_your_project@1@A 1009fc28     HVDDxva1Binder.obj
 0004:00003c2c       ?m_sOthers@CHVDSelector@HVDService@@0QBU_GUID@@B 1009fc2c     HVDSelector.obj
 0004:00003c3c       ?m_sDxva2MPEG2MC@CHVDSelector@HVDService@@0QBU_GUID@@B 1009fc3c     HVDSelector.obj
 0004:00003c4c       ?m_sDxva2MPEG2IDCT@CHVDSelector@HVDService@@0QBU_GUID@@B 1009fc4c     HVDSelector.obj
 0004:00003c5c       ?m_sDxva2MPEG2VLD@CHVDSelector@HVDService@@0QBU_GUID@@B 1009fc5c     HVDSelector.obj
 0004:00003c6c       ?m_sDxva2VC1MC@CHVDSelector@HVDService@@0QBU_GUID@@B 1009fc6c     HVDSelector.obj
 0004:00003c8c       ?m_sDxva2VC1IDCT@CHVDSelector@HVDService@@0QBU_GUID@@B 1009fc8c     HVDSelector.obj
 0004:00003c9c       ?m_sDxva2VC1VLD@CHVDSelector@HVDService@@0QBU_GUID@@B 1009fc9c     HVDSelector.obj
 0004:00003ccc       ?m_sDxva2H264MC@CHVDSelector@HVDService@@0QBU_GUID@@B 1009fccc     HVDSelector.obj
 0004:00003cfc       ?m_sDxva2H264IDCT@CHVDSelector@HVDService@@0QBU_GUID@@B 1009fcfc     HVDSelector.obj
 0004:00003d1c       ?m_sDxva2H264VLD@CHVDSelector@HVDService@@0QBU_GUID@@B 1009fd1c     HVDSelector.obj
 0004:00003d88       ?hlibOLEAut32@@3PAUHINSTANCE__@@A 1009fd88     strmbasd:combase.obj
 0004:00003d8c       ?m_cObjects@CBaseObject@@0JA 1009fd8c     strmbasd:combase.obj
 0004:00003d98       ?dwTimeOffset@@3KA         1009fd98     strmbasd:wxdebug.obj
 0004:00003d9c       ?m_dwNextCookie@@3KA       1009fd9c     strmbasd:wxdebug.obj
 0004:00003da0       ?m_ModuleName@@3PADA       1009fda0     strmbasd:wxdebug.obj
 0004:000041a0       ?m_CSDebug@@3U_RTL_CRITICAL_SECTION@@A 100a01a0     strmbasd:wxdebug.obj
 0004:000041b8       ?m_hInst@@3PAUHINSTANCE__@@A 100a01b8     strmbasd:wxdebug.obj
 0004:000041bc       ?GuidNames@@3VCGuidNameList@@A 100a01bc     strmbasd:wxdebug.obj
 0004:000041c0       ?m_Levels@@3PAKA           100a01c0     strmbasd:wxdebug.obj
 0004:000041e8       ?m_dwObjectCount@@3KA      100a01e8     strmbasd:wxdebug.obj
 0004:000041ec       ?pListHead@@3PAUtag_ObjectDesc@@A 100a01ec     strmbasd:wxdebug.obj
 0004:000041f0       ?m_bInit@@3HA              100a01f0     strmbasd:wxdebug.obj
 0004:000041f4       ?g_fUseKASSERT@@3_NA       100a01f4     strmbasd:wxdebug.obj
 0004:000041f5       ?g_fDbgInDllEntryPoint@@3_NA 100a01f5     strmbasd:wxdebug.obj
 0004:000041f6       ?g_fAutoRefreshLevels@@3_NA 100a01f6     strmbasd:wxdebug.obj
 0004:00004310       ?m_bCloneMode@CUtilGPU@@0HA 100a0310     libgpu:UtilGPU.obj
 0004:00004314       ?m_NumDevTableItems@CUtilGPU@@0JA 100a0314     libgpu:UtilGPU.obj
 0004:00004318       ?m_bDeviceTableValid@CUtilGPU@@0HC 100a0318     libgpu:UtilGPU.obj
 0004:00004320       ?m_DeviceTable@CUtilGPU@@0PAVCDisplayDevItem@@A 100a0320     libgpu:UtilGPU.obj
 0004:00006df0       _g_pfnGetSystemMetrics     100a2df0     libgpu:UtilGPU.obj
 0004:00006df4       _g_pfnMonitorFromWindow    100a2df4     libgpu:UtilGPU.obj
 0004:00006df8       _g_pfnMonitorFromRect      100a2df8     libgpu:UtilGPU.obj
 0004:00006dfc       _g_pfnMonitorFromPoint     100a2dfc     libgpu:UtilGPU.obj
 0004:00006e00       _g_pfnGetMonitorInfo       100a2e00     libgpu:UtilGPU.obj
 0004:00006e04       _g_pfnEnumDisplayMonitors  100a2e04     libgpu:UtilGPU.obj
 0004:00006e08       _g_pfnEnumDisplayDevices   100a2e08     libgpu:UtilGPU.obj
 0004:00006e0c       _g_fMultiMonInitDone       100a2e0c     libgpu:UtilGPU.obj
 0004:00006e10       _g_fMultimonPlatformNT     100a2e10     libgpu:UtilGPU.obj
 0004:000076b0       ?wsprintffp@@3P6AHPADPBDZZA 100a36b0     MSVCRTD:error.obj
 0004:00007a94       ?__type_info_root_node@@3U__type_info_node@@A 100a3a94     MSVCRTD:tncleanup.obj
 0004:00007aa0       ?atlTraceGeneral@ATL@@3VCTraceCategory@1@A 100a3aa0     atlsd:atltrace.obj
 0004:00007aa4       ?atlTraceCOM@ATL@@3VCTraceCategory@1@A 100a3aa4     atlsd:atltrace.obj
 0004:00007aa8       ?atlTraceQI@ATL@@3VCTraceCategory@1@A 100a3aa8     atlsd:atltrace.obj
 0004:00007aac       ?atlTraceRegistrar@ATL@@3VCTraceCategory@1@A 100a3aac     atlsd:atltrace.obj
 0004:00007ab0       ?atlTraceRefcount@ATL@@3VCTraceCategory@1@A 100a3ab0     atlsd:atltrace.obj
 0004:00007ab4       ?atlTraceWindowing@ATL@@3VCTraceCategory@1@A 100a3ab4     atlsd:atltrace.obj
 0004:00007ab8       ?atlTraceControls@ATL@@3VCTraceCategory@1@A 100a3ab8     atlsd:atltrace.obj
 0004:00007abc       ?atlTraceHosting@ATL@@3VCTraceCategory@1@A 100a3abc     atlsd:atltrace.obj
 0004:00007ac0       ?atlTraceDBClient@ATL@@3VCTraceCategory@1@A 100a3ac0     atlsd:atltrace.obj
 0004:00007ac4       ?atlTraceDBProvider@ATL@@3VCTraceCategory@1@A 100a3ac4     atlsd:atltrace.obj
 0004:00007ac8       ?atlTraceSnapin@ATL@@3VCTraceCategory@1@A 100a3ac8     atlsd:atltrace.obj
 0004:00007acc       ?atlTraceNotImpl@ATL@@3VCTraceCategory@1@A 100a3acc     atlsd:atltrace.obj
 0004:00007ad0       ?atlTraceAllocation@ATL@@3VCTraceCategory@1@A 100a3ad0     atlsd:atltrace.obj
 0004:00007ad4       ?atlTraceException@ATL@@3VCTraceCategory@1@A 100a3ad4     atlsd:atltrace.obj
 0004:00007ad8       ?atlTraceTime@ATL@@3VCTraceCategory@1@A 100a3ad8     atlsd:atltrace.obj
 0004:00007adc       ?atlTraceCache@ATL@@3VCTraceCategory@1@A 100a3adc     atlsd:atltrace.obj
 0004:00007ae0       ?atlTraceStencil@ATL@@3VCTraceCategory@1@A 100a3ae0     atlsd:atltrace.obj
 0004:00007ae4       ?atlTraceString@ATL@@3VCTraceCategory@1@A 100a3ae4     atlsd:atltrace.obj
 0004:00007ae8       ?atlTraceMap@ATL@@3VCTraceCategory@1@A 100a3ae8     atlsd:atltrace.obj
 0004:00007aec       ?atlTraceUtil@ATL@@3VCTraceCategory@1@A 100a3aec     atlsd:atltrace.obj
 0004:00007af0       ?atlTraceSecurity@ATL@@3VCTraceCategory@1@A 100a3af0     atlsd:atltrace.obj
 0004:00007af4       ?atlTraceSync@ATL@@3VCTraceCategory@1@A 100a3af4     atlsd:atltrace.obj
 0004:00007af8       ?atlTraceISAPI@ATL@@3VCTraceCategory@1@A 100a3af8     atlsd:atltrace.obj
 0004:00007afc       ?atlTraceUser@ATL@@3VCTraceCategory@1@A 100a3afc     atlsd:atltrace.obj
 0004:00007b00       ?atlTraceUser2@ATL@@3VCTraceCategory@1@A 100a3b00     atlsd:atltrace.obj
 0004:00007b04       ?atlTraceUser3@ATL@@3VCTraceCategory@1@A 100a3b04     atlsd:atltrace.obj
 0004:00007b08       ?atlTraceUser4@ATL@@3VCTraceCategory@1@A 100a3b08     atlsd:atltrace.obj
 0004:00007b24       ?g_Allocator@@3VCAtlAllocator@@A 100a3b24     atlsd:Externs.obj
 0004:00007b58       ?s_trace@CTrace@ATL@@2V12@A 100a3b58     atlsd:Externs.obj
 0004:00007b6c       __adjust_fdiv              100a3b6c     <common>
 0004:00007b78       ___native_startup_state    100a3b78     <common>
 0004:00007b88       ___native_startup_lock     100a3b88     <common>
 0004:00007b8c       ___onexitend               100a3b8c     <common>
 0004:00007b9c       ___onexitbegin             100a3b9c     <common>
 0004:00007ba0       ___sse2_available          100a3ba0     <common>
 0004:00007bac       ___dyn_tls_init_callback   100a3bac     <common>
 0005:00000000       __IMPORT_DESCRIPTOR_d3d9   100a4000     d3d9:d3d9.dll
 0005:00000014       __IMPORT_DESCRIPTOR_WINMM  100a4014     winmm:WINMM.dll
 0005:00000028       __IMPORT_DESCRIPTOR_KERNEL32 100a4028     kernel32:KERNEL32.dll
 0005:0000003c       __IMPORT_DESCRIPTOR_USER32 100a403c     user32:USER32.dll
 0005:00000050       __IMPORT_DESCRIPTOR_ADVAPI32 100a4050     advapi32:ADVAPI32.dll
 0005:00000064       __IMPORT_DESCRIPTOR_ole32  100a4064     ole32:ole32.dll
 0005:00000078       __IMPORT_DESCRIPTOR_OLEAUT32 100a4078     oleaut32:OLEAUT32.dll
 0005:0000008c       __IMPORT_DESCRIPTOR_MSVCR80D 100a408c     MSVCRTD:MSVCR80D.dll
 0005:000000a0       __IMPORT_DESCRIPTOR_MSVCP80D 100a40a0     msvcprtd:MSVCP80D.dll
 0005:000000b4       __IMPORT_DESCRIPTOR_DDRAW  100a40b4     ddraw:DDRAW.dll
 0005:000000c8       __IMPORT_DESCRIPTOR_GDI32  100a40c8     gdi32:GDI32.dll
 0005:000000dc       __NULL_IMPORT_DESCRIPTOR   100a40dc     d3d9:d3d9.dll
 0005:0000066c       __imp__RegQueryValueExA@24 100a466c     advapi32:ADVAPI32.dll
 0005:00000670       __imp__RegCreateKeyExA@36  100a4670     advapi32:ADVAPI32.dll
 0005:00000674       __imp__RegCloseKey@4       100a4674     advapi32:ADVAPI32.dll
 0005:00000678       __imp__OpenThreadToken@16  100a4678     advapi32:ADVAPI32.dll
 0005:0000067c       __imp__RegSetValueExA@24   100a467c     advapi32:ADVAPI32.dll
 0005:00000680       __imp__SetThreadToken@8    100a4680     advapi32:ADVAPI32.dll
 0005:00000684       __imp__RevertToSelf@0      100a4684     advapi32:ADVAPI32.dll
 0005:00000688       \177ADVAPI32_NULL_THUNK_DATA 100a4688     advapi32:ADVAPI32.dll
 0005:000006b8       __imp__DirectDrawCreate@12 100a46b8     ddraw:DDRAW.dll
 0005:000006bc       \177DDRAW_NULL_THUNK_DATA  100a46bc     ddraw:DDRAW.dll
 0005:000006e8       __imp__GetDCOrgEx@8        100a46e8     gdi32:GDI32.dll
 0005:000006ec       __imp__GetClipBox@8        100a46ec     gdi32:GDI32.dll
 0005:000006f0       \177GDI32_NULL_THUNK_DATA  100a46f0     gdi32:GDI32.dll
 0005:0000071c       __imp__Sleep@4             100a471c     kernel32:KERNEL32.dll
 0005:00000720       __imp__FreeLibrary@4       100a4720     kernel32:KERNEL32.dll
 0005:00000724       __imp__LoadLibraryA@4      100a4724     kernel32:KERNEL32.dll
 0005:00000728       __imp__DebugBreak@0        100a4728     kernel32:KERNEL32.dll
 0005:0000072c       __imp__GetProfileIntA@12   100a472c     kernel32:KERNEL32.dll
 0005:00000730       __imp__InitializeCriticalSection@4 100a4730     kernel32:KERNEL32.dll
 0005:00000734       __imp__DeleteCriticalSection@4 100a4734     kernel32:KERNEL32.dll
 0005:00000738       __imp__CloseHandle@4       100a4738     kernel32:KERNEL32.dll
 0005:0000073c       __imp__OutputDebugStringA@4 100a473c     kernel32:KERNEL32.dll
 0005:00000740       __imp__WriteFile@20        100a4740     kernel32:KERNEL32.dll
 0005:00000744       __imp__lstrlenA@4          100a4744     kernel32:KERNEL32.dll
 0005:00000748       __imp__SetFilePointer@16   100a4748     kernel32:KERNEL32.dll
 0005:0000074c       __imp__GetLastError@0      100a474c     kernel32:KERNEL32.dll
 0005:00000750       __imp__CreateFileA@28      100a4750     kernel32:KERNEL32.dll
 0005:00000754       __imp__SetConsoleTitleA@4  100a4754     kernel32:KERNEL32.dll
 0005:00000758       __imp__AllocConsole@0      100a4758     kernel32:KERNEL32.dll
 0005:0000075c       __imp__GetStdHandle@4      100a475c     kernel32:KERNEL32.dll
 0005:00000760       __imp__lstrcmpiA@8         100a4760     kernel32:KERNEL32.dll
 0005:00000764       __imp__GetModuleFileNameA@12 100a4764     kernel32:KERNEL32.dll
 0005:00000768       __imp__WaitForSingleObject@8 100a4768     kernel32:KERNEL32.dll
 0005:0000076c       __imp__CreateThread@24     100a476c     kernel32:KERNEL32.dll
 0005:00000770       __imp__FatalAppExitA@8     100a4770     kernel32:KERNEL32.dll
 0005:00000774       __imp__GetCurrentThreadId@0 100a4774     kernel32:KERNEL32.dll
 0005:00000778       __imp__LeaveCriticalSection@4 100a4778     kernel32:KERNEL32.dll
 0005:0000077c       __imp__EnterCriticalSection@4 100a477c     kernel32:KERNEL32.dll
 0005:00000780       __imp__GetModuleHandleA@4  100a4780     kernel32:KERNEL32.dll
 0005:00000784       __imp__WaitForMultipleObjects@16 100a4784     kernel32:KERNEL32.dll
 0005:00000788       __imp__GetACP@0            100a4788     kernel32:KERNEL32.dll
 0005:0000078c       __imp__lstrlenW@4          100a478c     kernel32:KERNEL32.dll
 0005:00000790       __imp__lstrcmpW@8          100a4790     kernel32:KERNEL32.dll
 0005:00000794       __imp__InterlockedDecrement@4 100a4794     kernel32:KERNEL32.dll
 0005:00000798       __imp__ResetEvent@4        100a4798     kernel32:KERNEL32.dll
 0005:0000079c       __imp__MulDiv@12           100a479c     kernel32:KERNEL32.dll
 0005:000007a0       __imp__GetCurrentProcess@0 100a47a0     kernel32:KERNEL32.dll
 0005:000007a4       __imp__SetEvent@4          100a47a4     kernel32:KERNEL32.dll
 0005:000007a8       __imp__CreateSemaphoreA@16 100a47a8     kernel32:KERNEL32.dll
 0005:000007ac       __imp__ReleaseSemaphore@12 100a47ac     kernel32:KERNEL32.dll
 0005:000007b0       __imp__GetSystemInfo@4     100a47b0     kernel32:KERNEL32.dll
 0005:000007b4       __imp__VirtualAlloc@16     100a47b4     kernel32:KERNEL32.dll
 0005:000007b8       __imp__VirtualFree@12      100a47b8     kernel32:KERNEL32.dll
 0005:000007bc       __imp__InterlockedExchange@8 100a47bc     kernel32:KERNEL32.dll
 0005:000007c0       __imp__SetThreadPriority@8 100a47c0     kernel32:KERNEL32.dll
 0005:000007c4       __imp__GetThreadPriority@4 100a47c4     kernel32:KERNEL32.dll
 0005:000007c8       __imp__GetCurrentThread@0  100a47c8     kernel32:KERNEL32.dll
 0005:000007cc       __imp__GetTickCount@0      100a47cc     kernel32:KERNEL32.dll
 0005:000007d0       __imp__GetVersionExA@4     100a47d0     kernel32:KERNEL32.dll
 0005:000007d4       __imp__SetUnhandledExceptionFilter@4 100a47d4     kernel32:KERNEL32.dll
 0005:000007d8       __imp__UnhandledExceptionFilter@4 100a47d8     kernel32:KERNEL32.dll
 0005:000007dc       __imp__TerminateProcess@8  100a47dc     kernel32:KERNEL32.dll
 0005:000007e0       __imp__InterlockedCompareExchange@12 100a47e0     kernel32:KERNEL32.dll
 0005:000007e4       __imp__IsDebuggerPresent@0 100a47e4     kernel32:KERNEL32.dll
 0005:000007e8       __imp__RaiseException@16   100a47e8     kernel32:KERNEL32.dll
 0005:000007ec       __imp__WideCharToMultiByte@32 100a47ec     kernel32:KERNEL32.dll
 0005:000007f0       __imp__MultiByteToWideChar@24 100a47f0     kernel32:KERNEL32.dll
 0005:000007f4       __imp__GetCurrentProcessId@0 100a47f4     kernel32:KERNEL32.dll
 0005:000007f8       __imp__InterlockedIncrement@4 100a47f8     kernel32:KERNEL32.dll
 0005:000007fc       __imp__GetProcAddress@8    100a47fc     kernel32:KERNEL32.dll
 0005:00000800       __imp__HeapFree@12         100a4800     kernel32:KERNEL32.dll
 0005:00000804       __imp__HeapAlloc@12        100a4804     kernel32:KERNEL32.dll
 0005:00000808       __imp__GetProcessHeap@0    100a4808     kernel32:KERNEL32.dll
 0005:0000080c       __imp__GetModuleFileNameW@12 100a480c     kernel32:KERNEL32.dll
 0005:00000810       __imp__CreateEventA@16     100a4810     kernel32:KERNEL32.dll
 0005:00000814       __imp__DisableThreadLibraryCalls@4 100a4814     kernel32:KERNEL32.dll
 0005:00000818       __imp__OpenFileMappingA@12 100a4818     kernel32:KERNEL32.dll
 0005:0000081c       __imp__GetVersion@0        100a481c     kernel32:KERNEL32.dll
 0005:00000820       __imp__CreateFileMappingA@24 100a4820     kernel32:KERNEL32.dll
 0005:00000824       __imp__MapViewOfFile@20    100a4824     kernel32:KERNEL32.dll
 0005:00000828       __imp__UnmapViewOfFile@4   100a4828     kernel32:KERNEL32.dll
 0005:0000082c       __imp__OutputDebugStringW@4 100a482c     kernel32:KERNEL32.dll
 0005:00000830       __imp__OpenEventA@12       100a4830     kernel32:KERNEL32.dll
 0005:00000834       __imp__GetThreadLocale@0   100a4834     kernel32:KERNEL32.dll
 0005:00000838       __imp__VirtualQuery@12     100a4838     kernel32:KERNEL32.dll
 0005:0000083c       __imp__GetSystemTimeAsFileTime@4 100a483c     kernel32:KERNEL32.dll
 0005:00000840       __imp__QueryPerformanceCounter@4 100a4840     kernel32:KERNEL32.dll
 0005:00000844       __imp__CreateMutexA@12     100a4844     kernel32:KERNEL32.dll
 0005:00000848       __imp__ReleaseMutex@4      100a4848     kernel32:KERNEL32.dll
 0005:0000084c       __imp__DuplicateHandle@28  100a484c     kernel32:KERNEL32.dll
 0005:00000850       __imp__GetLocaleInfoA@16   100a4850     kernel32:KERNEL32.dll
 0005:00000854       \177KERNEL32_NULL_THUNK_DATA 100a4854     kernel32:KERNEL32.dll
 0005:000008bc       __imp_??0?$basic_string@DU?$char_traits@D@std@@V?$allocator@D@2@@std@@QAE@ABV01@@Z 100a48bc     msvcprtd:MSVCP80D.dll
 0005:000008c0       __imp_??0?$basic_string@DU?$char_traits@D@std@@V?$allocator@D@2@@std@@QAE@PBD@Z 100a48c0     msvcprtd:MSVCP80D.dll
 0005:000008c4       __imp_??1?$basic_string@DU?$char_traits@D@std@@V?$allocator@D@2@@std@@QAE@XZ 100a48c4     msvcprtd:MSVCP80D.dll
 0005:000008c8       __imp_??0_Container_base@std@@QAE@XZ 100a48c8     msvcprtd:MSVCP80D.dll
 0005:000008cc       __imp_?_Orphan_all@_Container_base@std@@QBEXXZ 100a48cc     msvcprtd:MSVCP80D.dll
 0005:000008d0       __imp_??1_Container_base@std@@QAE@XZ 100a48d0     msvcprtd:MSVCP80D.dll
 0005:000008d4       __imp_?_Debug_message@std@@YAXPB_W0I@Z 100a48d4     msvcprtd:MSVCP80D.dll
 0005:000008d8       __imp_??0_Lockit@std@@QAE@H@Z 100a48d8     msvcprtd:MSVCP80D.dll
 0005:000008dc       __imp_??1_Lockit@std@@QAE@XZ 100a48dc     msvcprtd:MSVCP80D.dll
 0005:000008e0       __imp_?c_str@?$basic_string@DU?$char_traits@D@std@@V?$allocator@D@2@@std@@QBEPBDXZ 100a48e0     msvcprtd:MSVCP80D.dll
 0005:000008e4       \177MSVCP80D_NULL_THUNK_DATA 100a48e4     msvcprtd:MSVCP80D.dll
 0005:00000918       __imp___recalloc           100a4918     MSVCRTD:MSVCR80D.dll
 0005:0000091c       __imp_??_V@YAXPAX@Z        100a491c     MSVCRTD:MSVCR80D.dll
 0005:00000920       __imp_??_U@YAPAXI@Z        100a4920     MSVCRTD:MSVCR80D.dll
 0005:00000924       __imp___CrtDbgReportW      100a4924     MSVCRTD:MSVCR80D.dll
 0005:00000928       __imp___purecall           100a4928     MSVCRTD:MSVCR80D.dll
 0005:0000092c       __imp___invalid_parameter  100a492c     MSVCRTD:MSVCR80D.dll
 0005:00000930       __imp___CxxThrowException@8 100a4930     MSVCRTD:MSVCR80D.dll
 0005:00000934       __imp_??0exception@std@@QAE@ABV01@@Z 100a4934     MSVCRTD:MSVCR80D.dll
 0005:00000938       __imp_??1exception@std@@UAE@XZ 100a4938     MSVCRTD:MSVCR80D.dll
 0005:0000093c       __imp_??0exception@std@@QAE@XZ 100a493c     MSVCRTD:MSVCR80D.dll
 0005:00000940       __imp_??0exception@std@@QAE@ABQBD@Z 100a4940     MSVCRTD:MSVCR80D.dll
 0005:00000944       __imp_?what@exception@std@@UBEPBDXZ 100a4944     MSVCRTD:MSVCR80D.dll
 0005:00000948       __imp__memmove_s           100a4948     MSVCRTD:MSVCR80D.dll
 0005:0000094c       __imp__wcscpy_s            100a494c     MSVCRTD:MSVCR80D.dll
 0005:00000950       __imp___vsnprintf          100a4950     MSVCRTD:MSVCR80D.dll
 0005:00000954       __imp___mbsrchr            100a4954     MSVCRTD:MSVCR80D.dll
 0005:00000958       __imp__strncpy_s           100a4958     MSVCRTD:MSVCR80D.dll
 0005:0000095c       __imp___mbscmp             100a495c     MSVCRTD:MSVCR80D.dll
 0005:00000960       __imp___mbsnbcpy_s         100a4960     MSVCRTD:MSVCR80D.dll
 0005:00000964       __imp___mbsnicmp           100a4964     MSVCRTD:MSVCR80D.dll
 0005:00000968       __imp__strcmp              100a4968     MSVCRTD:MSVCR80D.dll
 0005:0000096c       __imp___encode_pointer     100a496c     MSVCRTD:MSVCR80D.dll
 0005:00000970       __imp___malloc_dbg         100a4970     MSVCRTD:MSVCR80D.dll
 0005:00000974       __imp___encoded_null       100a4974     MSVCRTD:MSVCR80D.dll
 0005:00000978       __imp___free_dbg           100a4978     MSVCRTD:MSVCR80D.dll
 0005:0000097c       __imp___decode_pointer     100a497c     MSVCRTD:MSVCR80D.dll
 0005:00000980       __imp___CrtSetCheckCount   100a4980     MSVCRTD:MSVCR80D.dll
 0005:00000984       __imp___initterm           100a4984     MSVCRTD:MSVCR80D.dll
 0005:00000988       __imp___initterm_e         100a4988     MSVCRTD:MSVCR80D.dll
 0005:0000098c       __imp___amsg_exit          100a498c     MSVCRTD:MSVCR80D.dll
 0005:00000990       __imp___adjust_fdiv        100a4990     MSVCRTD:MSVCR80D.dll
 0005:00000994       __imp____CppXcptFilter     100a4994     MSVCRTD:MSVCR80D.dll
 0005:00000998       __imp___crt_debugger_hook  100a4998     MSVCRTD:MSVCR80D.dll
 0005:0000099c       __imp_?terminate@@YAXXZ    100a499c     MSVCRTD:MSVCR80D.dll
