 DispSvr

 Timestamp is 4c98e182 (Wed Sep 22 00:46:58 2010)

 Preferred load address is 10000000

 Start         Length     Name                   Class
 0001:00000000 0006cc01H .text                   CODE
 0001:0006cc10 0000326fH .text$x                 CODE
 0001:0006fe80 000003adH .text$yc                CODE
 0001:00070230 0000011bH .text$yd                CODE
 0002:00000000 00000324H .idata$5                DATA
 0002:00000324 00000004H .CRT$XCA                DATA
 0002:00000328 00000044H .CRT$XCU                DATA
 0002:0000036c 00000004H .CRT$XCZ                DATA
 0002:00000370 00000004H .CRT$XIA                DATA
 0002:00000374 00000004H .CRT$XIAA               DATA
 0002:00000378 00000004H .CRT$XIC                DATA
 0002:0000037c 00000004H .CRT$XIZ                DATA
 0002:00000380 0000dfc0H .rdata                  DATA
 0002:0000e340 00000060H .rdata$debug            DATA
 0002:0000e3a0 00000090H .rdata$r                DATA
 0002:0000e430 00000358H .rdata$sxdata           DATA
 0002:0000e788 00000004H .rtc$IAA                DATA
 0002:0000e78c 00000004H .rtc$IZZ                DATA
 0002:0000e790 00000004H .rtc$TAA                DATA
 0002:0000e794 00000004H .rtc$TZZ                DATA
 0002:0000e798 00003874H .xdata$x                DATA
 0002:0001200c 00000004H ATL$__a                 DATA
 0002:00012010 00000004H ATL$__z                 DATA
 0002:00012014 000000f0H .idata$2                DATA
 0002:00012104 00000014H .idata$3                DATA
 0002:00012118 00000324H .idata$4                DATA
 0002:0001243c 00001082H .idata$6                DATA
 0002:000134c0 000000d4H .edata                  DATA
 0003:00000000 000015d0H .data                   DATA
 0003:000015d0 000014a0H .bss                    DATA
 0004:00000000 00000128H .rsrc$01                DATA
 0004:00000130 00004a60H .rsrc$02                DATA

  Address         Publics by Value              Rva+Base       Lib:Object

 0000:00000000       __except_list              00000000     <absolute>
 0000:000000d6       ___safe_se_handler_count   000000d6     <absolute>
 0000:00009876       __ldused                   00009876     <absolute>
 0000:00009876       __fltused                  00009876     <absolute>
 0000:00000000       ___ImageBase               10000000     <linker-defined>
 0001:00000000       ?IsD3D9Ex@CD3D9Helper@@QBE_NXZ 10001000 f i D3D9Helper.obj
 0001:00000010       ?IsD3D9Overlay@CD3D9Helper@@QBE_NXZ 10001010 f i D3D9Helper.obj
 0001:00000020       ?NoRequirement@PresetEnvPredicate@@YA_NKK@Z 10001020 f   ResourceManager.obj
 0001:00000020       ??$?8UVideoProcessorStub@DispSvr@@U01@@std@@YA_NABV?$allocator@UVideoProcessorStub@DispSvr@@@0@0@Z 10001020 f   D3D9VideoMixerBase.obj
 0001:00000030       ?Create@CD3D9ResponderBase@@UBEJABUConfigParam@CD3D9Helper@@ABUCreationParam@3@AAUCreationOutput@3@@Z 10001030 f i D3D9Helper.obj
 0001:00000080       ?Reset@CD3D9ResponderBase@@UBEJABUConfigParam@CD3D9Helper@@ABUCreationParam@3@AAUCreationOutput@3@@Z 10001080 f i D3D9Helper.obj
 0001:000000c0       ?CustomParam@CD3D9Responder@@UBEJABUConfigParam@CD3D9Helper@@ABUCreationParam@3@AAUCreationOutput@3@@Z 100010c0 f i D3D9Helper.obj
 0001:000000c0       ?SetBackBufferSize@CRenderEngine@@UAGJII@Z 100010c0 f i RenderEngine.obj
 0001:000000d0       ?Create@CD3D9ExResponderBase@@UBEJABUConfigParam@CD3D9Helper@@ABUCreationParam@3@AAUCreationOutput@3@@Z 100010d0 f i D3D9Helper.obj
 0001:00000130       ?Reset@CD3D9ExResponderBase@@UBEJABUConfigParam@CD3D9Helper@@ABUCreationParam@3@AAUCreationOutput@3@@Z 10001130 f i D3D9Helper.obj
 0001:00000170       ?CustomParam@CD3D9ExResponder@@UBEJABUConfigParam@CD3D9Helper@@ABUCreationParam@3@AAUCreationOutput@3@@Z 10001170 f i D3D9Helper.obj
 0001:000001b0       ?Create@CD3D9ExExclusiveModeResponder@@UBEJABUConfigParam@CD3D9Helper@@ABUCreationParam@3@AAUCreationOutput@3@@Z 100011b0 f i D3D9Helper.obj
 0001:00000250       ?Reset@CD3D9ExExclusiveModeResponder@@UBEJABUConfigParam@CD3D9Helper@@ABUCreationParam@3@AAUCreationOutput@3@@Z 10001250 f i D3D9Helper.obj
 0001:000002d0       ?CustomParam@CD3D9ExExclusiveModeResponder@@UBEJABUConfigParam@CD3D9Helper@@ABUCreationParam@3@AAUCreationOutput@3@@Z 100012d0 f i D3D9Helper.obj
 0001:00000310       ?CustomParam@CD3D9ExFlipExResponder@@UBEJABUConfigParam@CD3D9Helper@@ABUCreationParam@3@AAUCreationOutput@3@@Z 10001310 f i D3D9Helper.obj
 0001:00000330       ??0CD3D9Responder@@QAE@XZ  10001330 f i D3D9Helper.obj
 0001:00000340       ??0CD3D9ResponderBase@@QAE@XZ 10001340 f i D3D9Helper.obj
 0001:00000350       ??0ICreationChainResponder@CD3D9Helper@@QAE@XZ 10001350 f i D3D9Helper.obj
 0001:00000360       ??0CD3D9ExResponder@@QAE@XZ 10001360 f i D3D9Helper.obj
 0001:00000370       ??0CD3D9ExResponderBase@@QAE@XZ 10001370 f i D3D9Helper.obj
 0001:00000380       ??0CD3D9ExExclusiveModeResponder@@QAE@XZ 10001380 f i D3D9Helper.obj
 0001:00000390       ??0?$CD3D9ExOverlayResponder@$0BG@@@QAE@XZ 10001390 f i D3D9Helper.obj
 0001:000003a0       ??0?$CD3D9ExOverlayResponder@$0DCFJFFFJ@@@QAE@XZ 100013a0 f i D3D9Helper.obj
 0001:000003b0       ??0CD3D9ExFlipExResponder@@QAE@XZ 100013b0 f i D3D9Helper.obj
 0001:000003c0       ??0CD3D9Helper@@QAE@XZ     100013c0 f   D3D9Helper.obj
 0001:00000490       ??_ECD3D9Helper@@UAEPAXI@Z 10001490 f i  CIL library: CIL module
 0001:00000490       ??_GCD3D9Helper@@UAEPAXI@Z 10001490 f i D3D9Helper.obj
 0001:000004b0       ??0IRegistryInitializer@DispSvr@@QAE@XZ 100014b0 f i D3D9Helper.obj
 0001:000004c0       ??1CD3D9Helper@@UAE@XZ     100014c0 f   D3D9Helper.obj
 0001:000005c0       ??_GCFlipExWindow@@QAEPAXI@Z 100015c0 f i D3D9Helper.obj
 0001:000005e0       ?GetRegistryValue@CD3D9Helper@@UAEJW4REGISTRY_TYPE@DispSvr@@AAJ@Z 100015e0 f   D3D9Helper.obj
 0001:00000750       ?CreateDevice@CD3D9Helper@@QAEJPAUHWND__@@ABUConfigParam@1@@Z 10001750 f   D3D9Helper.obj
 0001:000007c0       ?ResetDevice@CD3D9Helper@@QAEJABUConfigParam@1@@Z 100017c0 f   D3D9Helper.obj
 0001:00000820       ?ReleaseDevice@CD3D9Helper@@QAEJXZ 10001820 f   D3D9Helper.obj
 0001:000008a0       ?Create@CD3D9Helper@@IAEJXZ 100018a0 f   D3D9Helper.obj
 0001:000009d0       ?Reset@CD3D9Helper@@IAEJXZ 100019d0 f   D3D9Helper.obj
 0001:00000a70       ?CreateD3D9@CD3D9Helper@@IAEJXZ 10001a70 f   D3D9Helper.obj
 0001:00000b40       ?GetAdapterIdentifier@CD3D9Helper@@IAEJXZ 10001b40 f   D3D9Helper.obj
 0001:00000c90       ?InitCreationParam@CD3D9Helper@@IAEJXZ 10001c90 f   D3D9Helper.obj
 0001:00000f10       ?SetupResponderChain@CD3D9Helper@@IAEJXZ 10001f10 f   D3D9Helper.obj
 0001:000010a0       ?InitDevice@CD3D9Helper@@IAEJXZ 100020a0 f   D3D9Helper.obj
 0001:00001260       ?CheckDeviceState@CD3D9Helper@@QAEJXZ 10002260 f   D3D9Helper.obj
 0001:00001290       ?CheckModeSwitch@CD3D9Helper@@QAEJXZ 10002290 f   D3D9Helper.obj
 0001:00001370       ?SetDisplayWindow@CD3D9Helper@@QAEJPAUHWND__@@PAUtagRECT@@@Z 10002370 f   D3D9Helper.obj
 0001:00001390       ?GetBackBufferSize@CD3D9Helper@@QAEJPAI0@Z 10002390 f   D3D9Helper.obj
 0001:000013b0       ?GetBackgroundColor@CD3D9Helper@@QAEJPAK@Z 100023b0 f   D3D9Helper.obj
 0001:000013e0       ?SetBackgroundColor@CD3D9Helper@@QAEJK@Z 100023e0 f   D3D9Helper.obj
 0001:00001410       ?Clear@CD3D9Helper@@QAEJXZ 10002410 f   D3D9Helper.obj
 0001:00001450       ?SetRenderStates@CD3D9Helper@@QAEJW4_D3D9HELPER_RENDERSTATE_TYPE@@@Z 10002450 f   D3D9Helper.obj
 0001:00001560       ?ResetRenderStates@CD3D9Helper@@QAEJW4_D3D9HELPER_RENDERSTATE_TYPE@@@Z 10002560 f   D3D9Helper.obj
 0001:00001610       ?InitRenderStates@CD3D9Helper@@QAEJW4_D3D9HELPER_RENDERSTATE_TYPE@@AAUtagRECT@@@Z 10002610 f   D3D9Helper.obj
 0001:000017a0       ??0CFlipExWindow@@QAE@PAUHWND__@@@Z 100027a0 f   D3D9Helper.obj
 0001:00001830       ??1CFlipExWindow@@QAE@XZ   10002830 f   D3D9Helper.obj
 0001:00001840       ?UpdatePosition@CFlipExWindow@@QAEXABUtagRECT@@@Z 10002840 f   D3D9Helper.obj
 0001:00001870       ?UpdateWindow@CFlipExWindow@@QAEXPAUHWND__@@@Z 10002870 f   D3D9Helper.obj
 0001:000018c0       ?HideWindow@CFlipExWindow@@QAEXXZ 100028c0 f   D3D9Helper.obj
 0001:000018d0       ?GetInstance@?$Singleton@VCResourceManager@DispSvr@@@DispSvr@@SAPAVCResourceManager@2@XZ 100028d0 f i D3D9Helper.obj
 0001:000018e0       ?GetInstance@?$Singleton@VCDynLibManager@DispSvr@@@DispSvr@@SAPAVCDynLibManager@2@XZ 100028e0 f i D3D9Helper.obj
 0001:000018f0       ??0?$CComPtr@UIDisplayLock@@@ATL@@QAE@XZ 100028f0 f i RenderEngine.obj
 0001:000018f0       ??0?$_Bidit@UPlugin@CResourceManager@DispSvr@@HPBU123@ABU123@@std@@QAE@XZ 100028f0 f i ResourceManager.obj
 0001:000018f0       ??0?$CComPtr@UIDirect3DVertexBuffer9@@@ATL@@QAE@XZ 100028f0 f i MixerControl.obj
 0001:000018f0       ??0?$CComPtr@UIDisplayVideoSink@@@ATL@@QAE@XZ 100028f0 f i VideoSource.obj
 0001:000018f0       ??0?$CComPtrBase@UIDisplayRenderEngine@@@ATL@@IAE@XZ 100028f0 f i MixerControl.obj
 0001:000018f0       ??0?$CComPtrBase@UIMFTransform@@@ATL@@IAE@XZ 100028f0 f i VideoSourceEvr.obj
 0001:000018f0       ??0?$_Bidit@U?$pair@QBUIDirect3DSurface9@@PAUNVDX_ObjectHandle__@@@std@@HPBU12@ABU12@@std@@QAE@XZ 100028f0 f i NvAPIPresenter.obj
 0001:000018f0       ??0?$CComPtr@UIDisplayRenderEngine@@@ATL@@QAE@H@Z 100028f0 f i Wizard.obj
 0001:000018f0       ??0?$CComPtr@UIDispSvrVideoEffect3DManager@@@ATL@@QAE@XZ 100028f0 f i DynLibManager.obj
 0001:000018f0       ??0?$CComPtrBase@UIVMRFilterConfig9@@@ATL@@IAE@XZ 100028f0 f i VideoSource.obj
 0001:000018f0       ??0?$CComPtr@UIEnumPins@@@ATL@@QAE@XZ 100028f0 f i VideoSource.obj
 0001:000018f0       ??0?$CComPtrBase@UIDirectXVideoDecoder@@@ATL@@IAE@XZ 100028f0 f i ScreenCaptureDefense.obj
 0001:000018f0       ??0?$CComPtrBase@UIDirectXVideoAccelerationService@@@ATL@@IAE@XZ 100028f0 f i NvDxva2HDMixerRender.obj
 0001:000018f0       ??0?$CComPtrBase@UIDirect3D9ExOverlayExtension@@@ATL@@IAE@XZ 100028f0 f i D3D9Helper.obj
 0001:000018f0       ??0?$CComPtrBase@UIDisplayObject@@@ATL@@IAE@XZ 100028f0 f i RenderEngine.obj
 0001:000018f0       ??0?$CComPtrBase@UIDispSvrDriverExtension@@@ATL@@IAE@XZ 100028f0 f i D3D9Helper.obj
 0001:000018f0       ??0?$CComPtr@UIDirectXVideoAccelerationService@@@ATL@@QAE@XZ 100028f0 f i NvDxva2HDMixerRender.obj
 0001:000018f0       ??0?$CComPtr@UIDirect3D9@@@ATL@@QAE@XZ 100028f0 f i D3D9Helper.obj
 0001:000018f0       ??0?$CComPtr@UIMFMediaBuffer@@@ATL@@QAE@XZ 100028f0 f i VideoSourceEvr.obj
 0001:000018f0       ??0?$_Bidit@UVideoProcessorStub@DispSvr@@HPBU12@ABU12@@std@@QAE@XZ 100028f0 f i AMDPCOMMixerPresenter.obj
 0001:000018f0       ??0?$CComPtrBase@UIMFVideoRenderer@@@ATL@@IAE@XZ 100028f0 f i VideoSourceMgr.obj
 0001:000018f0       ??0?$CComPtrBase@UIDirect3DPixelShader9@@@ATL@@IAE@XZ 100028f0 f i D3D9VideoMixer.obj
 0001:000018f0       ??0?$CComPtrBase@UIXVESample@@@ATL@@IAE@XZ 100028f0 f i D3D9VideoMixerBase.obj
 0001:000018f0       ??0?$CComPtr@UIDisplayRenderEngine@@@ATL@@QAE@XZ 100028f0 f i MixerControl.obj
 0001:000018f0       ??0?$CComPtr@UIDisplayServer@@@ATL@@QAE@XZ 100028f0 f i RenderEngine.obj
 0001:000018f0       ??0?$CComPtrBase@UIDisplayServer@@@ATL@@IAE@XZ 100028f0 f i RenderEngine.obj
 0001:000018f0       ??0?$CComPtr@UIDisplayServerStateEventSink@@@ATL@@QAE@XZ 100028f0 f i VideoSourceEvr.obj
 0001:000018f0       ??0?$_Bidit@W4_D3DFORMAT@@HPBW41@ABW41@@std@@QAE@XZ 100028f0 f i DXVAHDVideoProcessor.obj
 0001:000018f0       ??0?$CComPtrBase@UIMediaEventSink@@@ATL@@IAE@XZ 100028f0 f i EvrCustomMixer.obj
 0001:000018f0       ??0?$CComPtr@UIDisplayProperties@@@ATL@@QAE@XZ 100028f0 f i VideoSourceEvr.obj
 0001:000018f0       ??0?$CComPtrBase@UIDirect3DDevice9@@@ATL@@IAE@XZ 100028f0 f i D3D9Helper.obj
 0001:000018f0       ??0?$_Bidit@U?$pair@$$CBW4PLANE_FORMAT@DispSvr@@UTextureCap@2@@std@@HPBU12@ABU12@@std@@QAE@XZ 100028f0 f i D3D9TexturePool.obj
 0001:000018f0       ??0?$CComPtrBase@UIDirect3DDevice9Ex@@@ATL@@IAE@XZ 100028f0 f i D3D9Helper.obj
 0001:000018f0       ??0?$CComPtr@UICUIExternal8@@@ATL@@QAE@XZ 100028f0 f i IntelCUISDKHelper.obj
 0001:000018f0       ??0?$CComPtrBase@UIDirect3DVertexBuffer9@@@ATL@@IAE@XZ 100028f0 f i MixerControl.obj
 0001:000018f0       ??0?$CComPtr@UIDirect3D9ExOverlayExtension@@@ATL@@QAE@XZ 100028f0 f i D3D9Helper.obj
 0001:000018f0       ??0?$CComPtr@UIMediaEventSink@@@ATL@@QAE@XZ 100028f0 f i EvrCustomMixer.obj
 0001:000018f0       ??0?$CComPtrBase@UIDispSvrVideoPresenter@@@ATL@@IAE@XZ 100028f0 f i RenderEngine.obj
 0001:000018f0       ??0?$CComPtrBase@UIDirectXVideoDecoderService@@@ATL@@IAE@XZ 100028f0 f i IntelDxva2Device.obj
 0001:000018f0       ??0?$CComPtr@UIDispSvrVideoMixerVideoPlane@@@ATL@@QAE@XZ 100028f0 f i VideoSourceDO.obj
 0001:000018f0       ??0?$_Bidit@U?$pair@$$CBKUVideoSourceRate@CServerStateEventSink@DispSvr@@@std@@HPBU12@ABU12@@std@@QAE@XZ 100028f0 f i ServerStateEventSink.obj
 0001:000018f0       ??0?$_Bidit@U?$pair@$$CBKW4_PCOM_STEREOSCOPIC_FORMAT@@@std@@HPBU12@ABU12@@std@@QAE@XZ 100028f0 f i AMDPCOMMixerPresenter.obj
 0001:000018f0       ??0?$CComPtrBase@UIPin@@@ATL@@IAE@XZ 100028f0 f i VideoSource.obj
 0001:000018f0       ??0?$CComPtr@UIDirectXVideoDecoder@@@ATL@@QAE@XZ 100028f0 f i ScreenCaptureDefense.obj
 0001:000018f0       ??0?$CComPtrBase@UIDisplayLock@@@ATL@@IAE@XZ 100028f0 f i RenderEngine.obj
 0001:000018f0       ??0?$CComPtrBase@UIDisplayProperties@@@ATL@@IAE@XZ 100028f0 f i VideoSourceEvr.obj
 0001:000018f0       ??0?$_Bidit@T?$PlaneVB@UD3D9ClearRectVertex@DispSvr@@@DispSvr@@HPBT12@ABT12@@std@@QAE@XZ 100028f0 f i D3D9VideoMixer.obj
 0001:000018f0       ??0?$CComPtr@UIDispSvrVideoMixer@@@ATL@@QAE@XZ 100028f0 f i RenderEngine.obj
 0001:000018f0       ??0?$CComPtrBase@UIFilterGraph@@@ATL@@IAE@XZ 100028f0 f i VideoSource.obj
 0001:000018f0       ??0?$CComPtrBase@UIMediaControl@@@ATL@@IAE@XZ 100028f0 f i VideoSource.obj
 0001:000018f0       ??0?$CComPtr@UIDirect3DSwapChain9@@@ATL@@QAE@XZ 100028f0 f i AMDPCOMMixerPresenter.obj
 0001:000018f0       ??0?$_Bidit@UClearRect@DispSvr@@HPBU12@ABU12@@std@@QAE@XZ 100028f0 f i AMDPCOMMixerPresenter.obj
 0001:000018f0       ??0?$CComPtr@UIDirect3DVertexShader9@@@ATL@@QAE@XZ 100028f0 f i StereoVideoMixer.obj
 0001:000018f0       ??0?$iterator@Uoutput_iterator_tag@std@@XXXX@std@@QAE@XZ 100028f0 f i CompositeDO.obj
 0001:000018f0       ??0_Iterator_base@std@@QAE@XZ 100028f0 f i D3D9VBlt.obj
 0001:000018f0       ??0?$_Ranit@UDisplayObjectInfo@IParentDisplayObjectImpl@@HPBU12@ABU12@@std@@QAE@XZ 100028f0 f i CompositeDO.obj
 0001:000018f0       ??0?$CComPtrBase@UIDisplayRenderEngine@@@ATL@@IAE@H@Z 100028f0 f i Wizard.obj
 0001:000018f0       ??0?$CComPtrBase@UIMFSample@@@ATL@@IAE@XZ 100028f0 f i EvrPresentScheduler.obj
 0001:000018f0       ??0?$CComPtr@UIMFMediaType@@@ATL@@QAE@XZ 100028f0 f i VideoSourceEvr.obj
 0001:000018f0       ??0?$CComPtrBase@UICUIExternal8@@@ATL@@IAE@XZ 100028f0 f i IntelCUISDKHelper.obj
 0001:000018f0       ??0?$CComPtr@UIDirect3DDeviceManager9@@@ATL@@QAE@XZ 100028f0 f i VideoSourceEvr.obj
 0001:000018f0       ??0?$CComPtrBase@UIDisplayVideoSourcePropertyExtension@@@ATL@@IAE@XZ 100028f0 f i VideoSourceDO.obj
 0001:000018f0       ??0?$CComPtrBase@UIDirect3DSurface9@@@ATL@@IAE@XZ 100028f0 f i DXVA2VideoProcessor.obj
 0001:000018f0       ??0?$CComPtr@UIDispSvrXVEManagerWrapper@@@ATL@@QAE@XZ 100028f0 f i D3D9VideoMixerBase.obj
 0001:000018f0       ??0?$CComPtrBase@UIDispSvrVideoMixerVideoPlane@@@ATL@@IAE@XZ 100028f0 f i VideoSourceDO.obj
 0001:000018f0       ??0?$_Ranit@PAUIDispSvrRenderEngineNotify@@HPBQAU1@ABQAU1@@std@@QAE@XZ 100028f0 f i RenderEngine.obj
 0001:000018f0       ??0?$CComPtr@UIDisplayObject@@@ATL@@QAE@XZ 100028f0 f i RenderEngine.obj
 0001:000018f0       ??0?$CComPtr@UIVMRFilterConfig9@@@ATL@@QAE@XZ 100028f0 f i VideoSource.obj
 0001:000018f0       ??0?$CComPtr@UIXVEType@@@ATL@@QAE@XZ 100028f0 f i D3D9VideoMixerBase.obj
 0001:000018f0       ??0?$CComPtr@UIMFSample@@@ATL@@QAE@H@Z 100028f0 f i EvrPresentScheduler.obj
 0001:000018f0       ??0?$CComPtrBase@UIDirect3DVertexShader9@@@ATL@@IAE@XZ 100028f0 f i StereoVideoMixer.obj
 0001:000018f0       ??0?$CComPtr@UIMFSample@@@ATL@@QAE@XZ 100028f0 f i EvrPresentScheduler.obj
 0001:000018f0       ??0?$CComPtrBase@UIDisplayServerStateEventSink@@@ATL@@IAE@XZ 100028f0 f i VideoSourceEvr.obj
 0001:000018f0       ??0?$CComQIPtr@UIDisplayProperties@@$1?_GUID_403a5de1_a8da_4b8a_84f9_38a2693e191f@@3U__s_GUID@@B@ATL@@QAE@XZ 100028f0 f i VideoSourceEvr.obj
 0001:000018f0       ??0?$CComPtr@UIDispSvrVideoPresenter@@@ATL@@QAE@XZ 100028f0 f i RenderEngine.obj
 0001:000018f0       ??0?$CComPtrBase@UIDirect3D9Ex@@@ATL@@IAE@XZ 100028f0 f i D3D9Helper.obj
 0001:000018f0       ??0?$CComPtrBase@UIBaseFilter@@@ATL@@IAE@XZ 100028f0 f i VideoSource.obj
 0001:000018f0       ?EndPosition@?$List@PAUIMFSample@@@@QBE?AVPOSITION@1@XZ 100028f0 f i EvrSamplePool.obj
 0001:000018f0       ??0?$CComPtrBase@UIEnumPins@@@ATL@@IAE@XZ 100028f0 f i VideoSource.obj
 0001:000018f0       ??0?$CComPtrBase@UIDisplayVideoSourceFRCControl@@@ATL@@IAE@XZ 100028f0 f i VideoSourceDO.obj
 0001:000018f0       ??0?$CComPtr@UIDirect3D9Ex@@@ATL@@QAE@XZ 100028f0 f i D3D9Helper.obj
 0001:000018f0       ??0?$CComPtrBase@UIDirect3D9@@@ATL@@IAE@XZ 100028f0 f i D3D9Helper.obj
 0001:000018f0       ??0?$CComPtr@UIDirect3DDevice9@@@ATL@@QAE@XZ 100028f0 f i D3D9Helper.obj
 0001:000018f0       ??0?$CComPtr@UIVMRSurfaceAllocatorNotify9@@@ATL@@QAE@XZ 100028f0 f i VideoSource.obj
 0001:000018f0       ??0?$CComPtrBase@UIMFMediaType@@@ATL@@IAE@XZ 100028f0 f i VideoSourceEvr.obj
 0001:000018f0       ??0?$_Bidit@UD3D9Texture@CD3D9TexturePool@DispSvr@@HPBU123@ABU123@@std@@QAE@XZ 100028f0 f i D3D9TexturePool.obj
 0001:000018f0       ??0?$CComPtrBase@UIMFSample@@@ATL@@IAE@H@Z 100028f0 f i EvrPresentScheduler.obj
 0001:000018f0       ??0?$CComPtrBase@UIDisplayVideoSource@@@ATL@@IAE@XZ 100028f0 f i MixerControl.obj
 0001:000018f0       ??0?$CComPtr@UIPin@@@ATL@@QAE@XZ 100028f0 f i VideoSource.obj
 0001:000018f0       ??0?$CComPtr@UIDispSvrDriverExtension@@@ATL@@QAE@XZ 100028f0 f i D3D9Helper.obj
 0001:000018f0       ??0?$CComPtr@UIMFVideoRenderer@@@ATL@@QAE@XZ 100028f0 f i VideoSourceMgr.obj
 0001:000018f0       ??0?$CComPtrBase@UIDispSvrVideoMixer@@@ATL@@IAE@XZ 100028f0 f i RenderEngine.obj
 0001:000018f0       ??0?$CComPtrBase@UIDisplayVideoSink@@@ATL@@IAE@XZ 100028f0 f i VideoSource.obj
 0001:000018f0       ??0?$CComPtrBase@UIDirect3DQuery9@@@ATL@@IAE@XZ 100028f0 f i D3D9VideoPresenter.obj
 0001:000018f0       ??0?$CComPtrBase@UIVMRSurfaceAllocatorNotify9@@@ATL@@IAE@XZ 100028f0 f i VideoSource.obj
 0001:000018f0       ??0?$_Bidit@PAUHINSTANCE__@@HPBQAU1@ABQAU1@@std@@QAE@XZ 100028f0 f i DynLibManager.obj
 0001:000018f0       ??0?$_Ranit@UEffect@CD3D9VideoEffect3DManager@DispSvr@@HPBU123@ABU123@@std@@QAE@XZ 100028f0 f i D3D9VideoEffect3DManager.obj
 0001:000018f0       ??0?$_Bidit@U?$pair@QAXUD3D9Texture@CD3D9TexturePool@DispSvr@@@std@@HPBU12@ABU12@@std@@QAE@XZ 100028f0 f i D3D9TexturePool.obj
 0001:000018f0       ??0?$CComPtrBase@UIDispSvrVideoEffect3DManager@@@ATL@@IAE@XZ 100028f0 f i DynLibManager.obj
 0001:000018f0       ??0?$CComPtrBase@UIDispSvrXVEManagerWrapper@@@ATL@@IAE@XZ 100028f0 f i D3D9VideoMixerBase.obj
 0001:000018f0       ??0?$CComPtrBase@UIDisplayOptimizedRender@@@ATL@@IAE@XZ 100028f0 f i CompositeDO.obj
 0001:000018f0       ??0?$CComPtrBase@UIMFMediaBuffer@@@ATL@@IAE@XZ 100028f0 f i VideoSourceEvr.obj
 0001:000018f0       ??0?$CComPtr@UIDirect3DSurface9@@@ATL@@QAE@XZ 100028f0 f i DXVA2VideoProcessor.obj
 0001:000018f0       ??0?$_Bidit@U?$pair@$$CBKK@std@@HPBU12@ABU12@@std@@QAE@XZ 100028f0 f i IntelDxva2Device.obj
 0001:000018f0       ??0?$_Ranit@UCEvrVideoSample@CVideoSamplePool@@HPBU12@ABU12@@std@@QAE@XZ 100028f0 f i VideoSourceEvr.obj
 0001:000018f0       ??0?$CComPtrBase@UIDirect3DSwapChain9@@@ATL@@IAE@XZ 100028f0 f i AMDPCOMMixerPresenter.obj
 0001:000018f0       ??0?$_Ranit@UVideoReferenceSample@DispSvr@@HPBU12@ABU12@@std@@QAE@XZ 100028f0 f i D3D9VBlt.obj
 0001:000018f0       ??0?$CComPtrBase@UIMFGetService@@@ATL@@IAE@XZ 100028f0 f i VideoSourceEvr.obj
 0001:000018f0       ??0?$CComPtrBase@UIDisplayEventHandler@@@ATL@@IAE@XZ 100028f0 f i VideoSourceDO.obj
 0001:000018f0       ??0?$CComPtrBase@UIDirect3DDeviceManager9@@@ATL@@IAE@XZ 100028f0 f i VideoSourceEvr.obj
 0001:000018f0       ??0?$CComPtr@UIXVESample@@@ATL@@QAE@XZ 100028f0 f i D3D9VideoMixerBase.obj
 0001:000018f0       ??0?$CComPtr@UIDisplayVideoSource@@@ATL@@QAE@XZ 100028f0 f i MixerControl.obj
 0001:000018f0       ??0?$CComPtr@UIMFClock@@@ATL@@QAE@XZ 100028f0 f i EvrPresentScheduler.obj
 0001:000018f0       ??0?$CComPtrBase@UIUnknown@@@ATL@@IAE@XZ 100028f0 f i MixerControl.obj
 0001:000018f0       ??0?$_Ranit@PAUIDisplayVideoSource@@HPBQAU1@ABQAU1@@std@@QAE@XZ 100028f0 f i VideoSourceMgr.obj
 0001:000018f0       ??0?$CComPtr@UIDirectXVideoProcessorService@@@ATL@@QAE@XZ 100028f0 f i DXVA2VideoProcessor.obj
 0001:000018f0       ??0?$CComPtr@UIMediaControl@@@ATL@@QAE@XZ 100028f0 f i VideoSource.obj
 0001:000018f0       ??0?$CComPtr@UIUnknown@@@ATL@@QAE@XZ 100028f0 f i MixerControl.obj
 0001:000018f0       ??0?$CComPtrBase@UIVMRMixerControl9@@@ATL@@IAE@XZ 100028f0 f i VideoSource.obj
 0001:000018f0       ??0?$CComPtrBase@UIMFClock@@@ATL@@IAE@XZ 100028f0 f i EvrPresentScheduler.obj
 0001:000018f0       ??0?$_Ranit@PAUIMFSample@@HPBQAU1@ABQAU1@@std@@QAE@XZ 100028f0 f i VideoSourceEvr.obj
 0001:000018f0       ??0?$CComPtr@UIDisplayOptimizedRender@@@ATL@@QAE@XZ 100028f0 f i CompositeDO.obj
 0001:000018f0       ??0?$CComPtr@UIDisplayEventHandler@@@ATL@@QAE@XZ 100028f0 f i VideoSourceDO.obj
 0001:000018f0       ??0?$CComPtr@UIFilterGraph@@@ATL@@QAE@XZ 100028f0 f i VideoSource.obj
 0001:000018f0       ??0?$CComPtrBase@UIDispSvrVideoEffectManager@@@ATL@@IAE@XZ 100028f0 f i VideoSourceDO.obj
 0001:000018f0       ??0?$CComPtr@UIMFGetService@@@ATL@@QAE@XZ 100028f0 f i VideoSourceEvr.obj
 0001:000018f0       ??0?$CComPtr@UIVMRMixerControl9@@@ATL@@QAE@XZ 100028f0 f i VideoSource.obj
 0001:000018f0       ??0?$CComPtrBase@UIDirectXVideoProcessorService@@@ATL@@IAE@XZ 100028f0 f i DXVA2VideoProcessor.obj
 0001:000018f0       ??0?$CComPtrBase@UIDirect3DTexture9@@@ATL@@IAE@XZ 100028f0 f i DXVAHDVideoProcessor.obj
 0001:000018f0       ??0?$CComPtr@UIXVideoEffectManager@@@ATL@@QAE@XZ 100028f0 f i D3D9VideoMixerBase.obj
 0001:000018f0       ??0?$CComPtrBase@UIXVEType@@@ATL@@IAE@XZ 100028f0 f i D3D9VideoMixerBase.obj
 0001:000018f0       ??0?$CComPtrBase@UIXVideoEffectManager@@@ATL@@IAE@XZ 100028f0 f i D3D9VideoMixerBase.obj
 0001:000018f0       ??0POSITION@?$List@PAUIMFSample@@@@QAE@XZ 100028f0 f i EvrSamplePool.obj
 0001:000018f0       ??0?$CComPtr@UIDisplayVideoSourceFRCControl@@@ATL@@QAE@XZ 100028f0 f i VideoSourceDO.obj
 0001:000018f0       ??0?$CComPtr@UIDispSvrVideoEffectManager@@@ATL@@QAE@XZ 100028f0 f i VideoSourceDO.obj
 0001:000018f0       ??0?$CComPtr@UIDirect3DDevice9Ex@@@ATL@@QAE@XZ 100028f0 f i D3D9Helper.obj
 0001:000018f0       ??0_Outit@std@@QAE@XZ      100028f0 f i CompositeDO.obj
 0001:000018f0       ??0?$_Bidit@U?$pair@$$CBU_GUID@@UResourceGroup@CResourceManager@DispSvr@@@std@@HPBU12@ABU12@@std@@QAE@XZ 100028f0 f i ResourceManager.obj
 0001:000018f0       ??0?$CComPtr@UIMFTransform@@@ATL@@QAE@XZ 100028f0 f i VideoSourceEvr.obj
 0001:000018f0       ??0?$CComPtr@UIBaseFilter@@@ATL@@QAE@XZ 100028f0 f i VideoSource.obj
 0001:000018f0       ??0?$CComPtr@UIDirect3DQuery9@@@ATL@@QAE@XZ 100028f0 f i D3D9VideoPresenter.obj
 0001:000018f0       ??0?$CComPtr@UIDisplayVideoSourcePropertyExtension@@@ATL@@QAE@XZ 100028f0 f i VideoSourceDO.obj
 0001:000018f0       ??0?$CComPtr@UIDirectXVideoDecoderService@@@ATL@@QAE@XZ 100028f0 f i IntelDxva2Device.obj
 0001:000018f0       ??0?$_Ranit@UEventHandler@CRenderEngine@@HPBU12@ABU12@@std@@QAE@XZ 100028f0 f i RenderEngine.obj
 0001:000018f0       ??0?$_Ranit@PAVCVideoFrame@@HPBQAV1@ABQAV1@@std@@QAE@XZ 100028f0 f i MixerControl.obj
 0001:000018f0       ??0?$CComPtr@UIDirect3DPixelShader9@@@ATL@@QAE@XZ 100028f0 f i D3D9VideoMixer.obj
 0001:00001900       ?CustomParam@?$CD3D9ExOverlayResponder@$0BG@@@UBEJABUConfigParam@CD3D9Helper@@ABUCreationParam@3@AAUCreationOutput@3@@Z 10002900 f i D3D9Helper.obj
 0001:00001a80       ?CustomParam@?$CD3D9ExOverlayResponder@$0DCFJFFFJ@@@UBEJABUConfigParam@CD3D9Helper@@ABUCreationParam@3@AAUCreationOutput@3@@Z 10002a80 f i D3D9Helper.obj
 0001:00001c00       ??0?$CComQIPtr@UIDirect3D9ExOverlayExtension@@$1?_GUID_187aeb13_aaf5_4c59_876d_e059088c0df8@@3U__s_GUID@@B@ATL@@QAE@PAUIUnknown@@@Z 10002c00 f i D3D9Helper.obj
 0001:00001c20       ??$QueryInterface@UIDirect3DDevice9@@@?$CComPtrBase@UIDirect3DDevice9Ex@@@ATL@@QBEJPAPAUIDirect3DDevice9@@@Z 10002c20 f i D3D9Helper.obj
 0001:00001c30       ?AtlComPtrAssign@ATL@@YGPAUIUnknown@@PAPAU2@PAU2@@Z 10002c30 f i D3D9Helper.obj
 0001:00001c60       ??RD3DXMATRIX@@QAEAAMII@Z  10002c60 f i D3D9Helper.obj
 0001:00001c70       ?D3DXMatrixIdentity@@YAPAUD3DXMATRIX@@PAU1@@Z 10002c70 f i D3D9Helper.obj
 0001:00001ce0       ?GetInstance@?$Singleton@VCRegistryService@DispSvr@@@DispSvr@@SAPAVCRegistryService@2@XZ 10002ce0 f i D3D9Helper.obj
 0001:00001d20       ??0CD3D9PluginBase@DispSvr@@IAE@XZ 10002d20 f   D3D9PluginBase.obj
 0001:00001d60       ?GetResourceId@CD3D9PluginBase@DispSvr@@UAGJPAU_GUID@@@Z 10002d60 f   D3D9PluginBase.obj
 0001:00001d90       ?ProcessMessage@CD3D9PluginBase@DispSvr@@UAGJW4RESOURCE_MESSAGE_TYPE@@PAX@Z 10002d90 f   D3D9PluginBase.obj
 0001:00001e20       ?QueryInterface@CD3D9PluginBase@DispSvr@@UAGJABU_GUID@@PAPAX@Z 10002e20 f   D3D9PluginBase.obj
 0001:00001e80       ?AddRef@CD3D9PluginBase@DispSvr@@UAGKXZ 10002e80 f   D3D9PluginBase.obj
 0001:00001e80       ?AddRef@CVideoSourceEvrEx@@UAGKXZ 10002e80 f   VideoSourceEvrEx.obj
 0001:00001ea0       ?Release@CD3D9PluginBase@DispSvr@@UAGKXZ 10002ea0 f   D3D9PluginBase.obj
 0001:00001ed0       ?_SetDevice@CD3D9PluginBase@DispSvr@@MAGJPAUIUnknown@@@Z 10002ed0 f   D3D9PluginBase.obj
 0001:00001f50       ?_ReleaseDevice@CD3D9PluginBase@DispSvr@@MAGJXZ 10002f50 f   D3D9PluginBase.obj
 0001:00001f90       ?_SetWindow@CD3D9PluginBase@DispSvr@@MAGJPAUHWND__@@@Z 10002f90 f   D3D9PluginBase.obj
 0001:00001fd0       _==                        10002fd0 f i D3D9PluginBase.obj
 0001:00001fe0       _IsEqualGUID               10002fe0 f i D3D9PluginBase.obj
 0001:00002080       ??1ID3D9VBlt@DispSvr@@UAE@XZ 10003080 f i D3D9VBlt.obj
 0001:00002090       ??_EID3D9VBlt@DispSvr@@UAEPAXI@Z 10003090 f i  CIL library: CIL module
 0001:00002090       ??_GID3D9VBlt@DispSvr@@UAEPAXI@Z 10003090 f i D3D9VBlt.obj
 0001:000020b0       ??0DXVA2VP_RefSample@DispSvr@@QAE@XZ 100030b0 f i D3D9VBlt.obj
 0001:000020c0       ?Create@CD3D9VBlt@DispSvr@@SAPAUID3D9VBlt@2@PAUD3D9Plane@2@PAUVideoProcessorStub@2@PAVCD3D9TexturePool@2@@Z 100030c0 f   D3D9VBlt.obj
 0001:000020f0       ??0CD3D9VBlt@DispSvr@@IAE@PAUD3D9Plane@1@PAUVideoProcessorStub@1@PAVCD3D9TexturePool@1@@Z 100030f0 f   D3D9VBlt.obj
 0001:00002120       ??_ECD3D9VBlt@DispSvr@@UAEPAXI@Z 10003120 f i  CIL library: CIL module
 0001:00002120       ??_GCD3D9VBlt@DispSvr@@UAEPAXI@Z 10003120 f i D3D9VBlt.obj
 0001:00002140       ??0ID3D9VBlt@DispSvr@@QAE@XZ 10003140 f i D3D9VBlt.obj
 0001:00002150       ??1CD3D9VBlt@DispSvr@@UAE@XZ 10003150 f   D3D9VBlt.obj
 0001:000021c0       ?IntermediateTextureVBlt@CD3D9VBlt@DispSvr@@UAEJPAUIDirect3DSurface9@@ABUtagRECT@@PAPAUIDirect3DTexture9@@@Z 100031c0 f   D3D9VBlt.obj
 0001:00002240       ?IntermediateVBlt@CD3D9VBlt@DispSvr@@UAEJPAUIDirect3DSurface9@@ABUtagRECT@@W4PLANE_FORMAT@2@PAPAU3@@Z 10003240 f   D3D9VBlt.obj
 0001:00002270       ?IntermediateVBlt@CD3D9VBlt@DispSvr@@IAEJPAUIDirect3DSurface9@@ABUtagRECT@@W4PLANE_FORMAT@2@PAPAU3@_N4@Z 10003270 f   D3D9VBlt.obj
 0001:00002410       ?DirectVBlt@CD3D9VBlt@DispSvr@@UAEJPAUIDirect3DSurface9@@ABUtagRECT@@01@Z 10003410 f   D3D9VBlt.obj
 0001:00002510       ?Create@CDXVA2VBlt@DispSvr@@SAPAUID3D9VBlt@2@PAUD3D9Plane@2@PAUVideoProcessorStub@2@PAVCD3D9TexturePool@2@@Z 10003510 f   D3D9VBlt.obj
 0001:00002590       ??0CDXVA2VBlt@DispSvr@@IAE@PAUD3D9Plane@1@PAUVideoProcessorStub@1@PAVCD3D9TexturePool@1@@Z 10003590 f   D3D9VBlt.obj
 0001:00002670       ??_ECDXVA2VBlt@DispSvr@@UAEPAXI@Z 10003670 f i  CIL library: CIL module
 0001:00002670       ??_GCDXVA2VBlt@DispSvr@@UAEPAXI@Z 10003670 f i D3D9VBlt.obj
 0001:00002690       ??_H@YGXPAXIHP6EPAX0@Z@Z   10003690 f i D3D9VBlt.obj
 0001:000026b0       ??1CDXVA2VBlt@DispSvr@@UAE@XZ 100036b0 f   D3D9VBlt.obj
 0001:00002730       ??_GCDXVA2VideoProcessor@DispSvr@@QAEPAXI@Z 10003730 f i D3D9VBlt.obj
 0001:00002750       ?DirectVBlt@CDXVA2VBlt@DispSvr@@UAEJPAUIDirect3DSurface9@@ABUtagRECT@@01@Z 10003750 f   D3D9VBlt.obj
 0001:00002960       ?SetFilterValue@CDXVA2VBlt@DispSvr@@UAEJW4VIDEO_FILTER@2@M@Z 10003960 f   D3D9VBlt.obj
 0001:00002980       ?rbegin@?$deque@UVideoReferenceSample@DispSvr@@V?$allocator@UVideoReferenceSample@DispSvr@@@std@@@std@@QAE?AV?$reverse_iterator@V?$_Deque_iterator@UVideoReferenceSample@DispSvr@@V?$allocator@UVideoReferenceSample@DispSvr@@@std@@$00@std@@@2@XZ 10003980 f i D3D9VBlt.obj
 0001:000029b0       ?rend@?$deque@UVideoReferenceSample@DispSvr@@V?$allocator@UVideoReferenceSample@DispSvr@@@std@@@std@@QAE?AV?$reverse_iterator@V?$_Deque_iterator@UVideoReferenceSample@DispSvr@@V?$allocator@UVideoReferenceSample@DispSvr@@@std@@$00@std@@@2@XZ 100039b0 f i D3D9VBlt.obj
 0001:000029e0       ??D?$reverse_iterator@V?$_Deque_const_iterator@UVideoReferenceSample@DispSvr@@V?$allocator@UVideoReferenceSample@DispSvr@@@std@@$00@std@@@std@@QBEABUVideoReferenceSample@DispSvr@@XZ 100039e0 f i D3D9VBlt.obj
 0001:000029e0       ??C?$reverse_iterator@V?$_Deque_const_iterator@UVideoReferenceSample@DispSvr@@V?$allocator@UVideoReferenceSample@DispSvr@@@std@@$00@std@@@std@@QBEPBUVideoReferenceSample@DispSvr@@XZ 100039e0 f i D3D9VBlt.obj
 0001:00002a30       ??E?$reverse_iterator@V?$_Deque_const_iterator@UVideoReferenceSample@DispSvr@@V?$allocator@UVideoReferenceSample@DispSvr@@@std@@$00@std@@@std@@QAEAAV01@XZ 10003a30 f i D3D9VBlt.obj
 0001:00002a60       ??Y?$reverse_iterator@V?$_Deque_const_iterator@UVideoReferenceSample@DispSvr@@V?$allocator@UVideoReferenceSample@DispSvr@@@std@@$00@std@@@std@@QAEAAV01@H@Z 10003a60 f i D3D9VBlt.obj
 0001:00002aa0       ??F?$_Deque_const_iterator@UVideoReferenceSample@DispSvr@@V?$allocator@UVideoReferenceSample@DispSvr@@@std@@$00@std@@QAEAAV01@XZ 10003aa0 f i D3D9VBlt.obj
 0001:00002ad0       ??Z?$_Deque_const_iterator@UVideoReferenceSample@DispSvr@@V?$allocator@UVideoReferenceSample@DispSvr@@@std@@$00@std@@QAEAAV01@H@Z 10003ad0 f i D3D9VBlt.obj
 0001:00002b10       ??0?$reverse_iterator@V?$_Deque_iterator@UVideoReferenceSample@DispSvr@@V?$allocator@UVideoReferenceSample@DispSvr@@@std@@$00@std@@@std@@QAE@V?$_Deque_iterator@UVideoReferenceSample@DispSvr@@V?$allocator@UVideoReferenceSample@DispSvr@@@std@@$00@1@@Z 10003b10 f i D3D9VBlt.obj
 0001:00002b30       ??D?$_Deque_iterator@UVideoReferenceSample@DispSvr@@V?$allocator@UVideoReferenceSample@DispSvr@@@std@@$00@std@@QBEAAUVideoReferenceSample@DispSvr@@XZ 10003b30 f i D3D9VideoPlane.obj
 0001:00002b30       ??D?$_Deque_const_iterator@UVideoReferenceSample@DispSvr@@V?$allocator@UVideoReferenceSample@DispSvr@@@std@@$00@std@@QBEABUVideoReferenceSample@DispSvr@@XZ 10003b30 f i D3D9VBlt.obj
 0001:00002b30       ??C?$_Deque_const_iterator@UVideoReferenceSample@DispSvr@@V?$allocator@UVideoReferenceSample@DispSvr@@@std@@$00@std@@QBEPBUVideoReferenceSample@DispSvr@@XZ 10003b30 f i D3D9Dxva2HDVideoMixer.obj
 0001:00002b80       ??Y?$_Deque_const_iterator@UVideoReferenceSample@DispSvr@@V?$allocator@UVideoReferenceSample@DispSvr@@@std@@$00@std@@QAEAAV01@H@Z 10003b80 f i D3D9VBlt.obj
 0001:00002bb0       ??$?0V?$_Deque_iterator@UVideoReferenceSample@DispSvr@@V?$allocator@UVideoReferenceSample@DispSvr@@@std@@$00@std@@@?$reverse_iterator@V?$_Deque_const_iterator@UVideoReferenceSample@DispSvr@@V?$allocator@UVideoReferenceSample@DispSvr@@@std@@$00@std@@@std@@QAE@ABV?$reverse_iterator@V?$_Deque_iterator@UVideoReferenceSample@DispSvr@@V?$allocator@UVideoReferenceSample@DispSvr@@@std@@$00@std@@@1@@Z 10003bb0 f i D3D9VBlt.obj
 0001:00002bd0       ??$?9V?$_Deque_const_iterator@UVideoReferenceSample@DispSvr@@V?$allocator@UVideoReferenceSample@DispSvr@@@std@@$00@std@@V?$_Deque_iterator@UVideoReferenceSample@DispSvr@@V?$allocator@UVideoReferenceSample@DispSvr@@@std@@$00@1@@std@@YA_NABV?$reverse_iterator@V?$_Deque_const_iterator@UVideoReferenceSample@DispSvr@@V?$allocator@UVideoReferenceSample@DispSvr@@@std@@$00@std@@@0@ABV?$reverse_iterator@V?$_Deque_iterator@UVideoReferenceSample@DispSvr@@V?$allocator@UVideoReferenceSample@DispSvr@@@std@@$00@std@@@0@@Z 10003bd0 f i D3D9VBlt.obj
 0001:00002c00       ?base@?$reverse_iterator@V?$_Deque_iterator@UVideoReferenceSample@DispSvr@@V?$allocator@UVideoReferenceSample@DispSvr@@@std@@$00@std@@@std@@QBE?AV?$_Deque_iterator@UVideoReferenceSample@DispSvr@@V?$allocator@UVideoReferenceSample@DispSvr@@@std@@$00@2@XZ 10003c00 f i D3D9VBlt.obj
 0001:00002c20       ??$?8V?$_Deque_const_iterator@UVideoReferenceSample@DispSvr@@V?$allocator@UVideoReferenceSample@DispSvr@@@std@@$00@std@@V?$_Deque_iterator@UVideoReferenceSample@DispSvr@@V?$allocator@UVideoReferenceSample@DispSvr@@@std@@$00@1@@std@@YA_NABV?$reverse_iterator@V?$_Deque_const_iterator@UVideoReferenceSample@DispSvr@@V?$allocator@UVideoReferenceSample@DispSvr@@@std@@$00@std@@@0@ABV?$reverse_iterator@V?$_Deque_iterator@UVideoReferenceSample@DispSvr@@V?$allocator@UVideoReferenceSample@DispSvr@@@std@@$00@std@@@0@@Z 10003c20 f i D3D9VBlt.obj
 0001:00002c20       ??$_Equal@V?$_Deque_iterator@UVideoReferenceSample@DispSvr@@V?$allocator@UVideoReferenceSample@DispSvr@@@std@@$00@std@@@?$reverse_iterator@V?$_Deque_const_iterator@UVideoReferenceSample@DispSvr@@V?$allocator@UVideoReferenceSample@DispSvr@@@std@@$00@std@@@std@@QBE_NABV?$reverse_iterator@V?$_Deque_iterator@UVideoReferenceSample@DispSvr@@V?$allocator@UVideoReferenceSample@DispSvr@@@std@@$00@std@@@1@@Z 10003c20 f i D3D9VBlt.obj
 0001:00002c50       ??8?$_Deque_const_iterator@UVideoReferenceSample@DispSvr@@V?$allocator@UVideoReferenceSample@DispSvr@@@std@@$00@std@@QBE_NABV01@@Z 10003c50 f i D3D9VBlt.obj
 0001:00002cb0       _D3DXMatrixMultiply@12     10003cb0 f   D3DXImpl.obj
 0001:00002d60       _D3DXMatrixTranspose@8     10003d60 f   D3DXImpl.obj
 0001:00002da0       ?QueryVideoMemorySize@CDirectDrawHelper@DispSvr@@SAJPAK0@Z 10003da0 f   DirectDrawHelper.obj
 0001:00002f90       ??0CDXVA2VideoProcessor@DispSvr@@QAE@ABU_GUID@@W4_D3DFORMAT@@@Z 10003f90 f   DXVA2VideoProcessor.obj
 0001:00002fd0       ??1CDXVA2VideoProcessor@DispSvr@@QAE@XZ 10003fd0 f   DXVA2VideoProcessor.obj
 0001:00002fe0       ?Release@CDXVA2VideoProcessor@DispSvr@@QAEXXZ 10003fe0 f   DXVA2VideoProcessor.obj
 0001:00003030       ?CreateVideoProcessor@CDXVA2VideoProcessor@DispSvr@@QAEJPAUIDirect3DSurface9@@0ABUVideoProperty@2@@Z 10004030 f   DXVA2VideoProcessor.obj
 0001:000032a0       ?VideoProcessBlt@CDXVA2VideoProcessor@DispSvr@@QAEJPAUIDirect3DSurface9@@ABUtagRECT@@01ABUVideoProperty@2@PAUDXVA2VP_RefSample@2@IPAM@Z 100042a0 f   DXVA2VideoProcessor.obj
 0001:000035f0       ?GetDXVA2VPCaps@CDXVA2VideoProcessor@DispSvr@@SAJPAUIDirect3DDevice9@@PAIPAPAUDXVA2VP_Caps@2@@Z 100045f0 f   DXVA2VideoProcessor.obj
 0001:00003ab0       _DXVA2FloatToFixed         10004ab0 f i DXVA2VideoProcessor.obj
 0001:00003b20       _DXVA2FixedToFloat         10004b20 f i DXVA2VideoProcessor.obj
 0001:00003bc0       ??0DXVAHDVP_StreamStateCache@CDXVAHDVP@DispSvr@@QAE@XZ 10004bc0 f i DXVAHDVideoProcessor.obj
 0001:00003bd0       ??1DXVAHDVP_StreamStateCache@CDXVAHDVP@DispSvr@@QAE@XZ 10004bd0 f i DXVAHDVideoProcessor.obj
 0001:00003c30       ??0CDXVAHDVP@DispSvr@@IAE@XZ 10004c30 f   DXVAHDVideoProcessor.obj
 0001:00003d50       ??1?$set@W4_D3DFORMAT@@U?$less@W4_D3DFORMAT@@@std@@V?$allocator@W4_D3DFORMAT@@@3@@std@@QAE@XZ 10004d50 f i DXVAHDVideoProcessor.obj
 0001:00003d60       ??1CDXVAHDVP@DispSvr@@QAE@XZ 10004d60 f   DXVAHDVideoProcessor.obj
 0001:00003e60       ??_EDXVAHDVP_StreamStateCache@CDXVAHDVP@DispSvr@@QAEPAXI@Z 10004e60 f i DXVAHDVideoProcessor.obj
 0001:00003e90       ?CreateVP@CDXVAHDVP@DispSvr@@SAJPAUIDirect3DDevice9Ex@@PAUDXVAHDVP_INIT@2@PAPAV12@@Z 10004e90 f   DXVAHDVideoProcessor.obj
 0001:00003f60       ??_GCDXVAHDVP@DispSvr@@QAEPAXI@Z 10004f60 f i DXVAHDVideoProcessor.obj
 0001:00003f80       ?CreateVP@CDXVAHDVP@DispSvr@@IAEJPAUIDirect3DDevice9Ex@@PAUDXVAHDVP_INIT@2@@Z 10004f80 f   DXVAHDVideoProcessor.obj
 0001:000043c0       ?CreateD3D9VP@CDXVAHDVP@DispSvr@@IAEJPAUIDirect3DDevice9Ex@@@Z 100053c0 f   DXVAHDVideoProcessor.obj
 0001:00004780       ?GetVPCaps@CDXVAHDVP@DispSvr@@QAEJAAUVideoProcessorCaps@2@@Z 10005780 f   DXVAHDVideoProcessor.obj
 0001:000047a0       ?GetFilterValueRange@CDXVAHDVP@DispSvr@@QAEJW4VIDEO_FILTER@2@AAUValueRange@2@@Z 100057a0 f   DXVAHDVideoProcessor.obj
 0001:000047e0       ?SetStreamState@CDXVAHDVP@DispSvr@@QAEJIABUDXVAHDVP_StreamState@2@_N@Z 100057e0 f   DXVAHDVideoProcessor.obj
 0001:00004f20       ?VBltHD@CDXVAHDVP@DispSvr@@QAEJPAUIDirect3DSurface9@@ABUDXVAHDVP_BltState@2@@Z 10005f20 f   DXVAHDVideoProcessor.obj
 0001:00004ff0       ?SyncBltState@CDXVAHDVP@DispSvr@@IAEJABUDXVAHDVP_BltState@2@@Z 10005ff0 f   DXVAHDVideoProcessor.obj
 0001:000050c0       ?IsValidInputFormat@CDXVAHDVP@DispSvr@@QBE_NW4PLANE_FORMAT@2@@Z 100060c0 f   DXVAHDVideoProcessor.obj
 0001:00005120       ?D3D9VBltHD@CDXVAHDVP@DispSvr@@IAEJPAUIDirect3DSurface9@@IIPBU_DXVAHD_STREAM_DATA@@@Z 10006120 f   DXVAHDVideoProcessor.obj
 0001:00005590       ?DXVA2Blt@CDXVAHDVP@DispSvr@@IAEJPAUIDirect3DSurface9@@AAUDXVAHDVP_StreamStateCache@12@ABU_DXVAHD_STREAM_DATA@@ABUDXVAHDVP_BltState@2@@Z 10006590 f   DXVAHDVideoProcessor.obj
 0001:000057d0       ?D3D9Blt@CDXVAHDVP@DispSvr@@IAEJPAUIDirect3DSurface9@@AAUDXVAHDVP_StreamStateCache@12@ABU_DXVAHD_STREAM_DATA@@ABUDXVAHDVP_BltState@2@@Z 100067d0 f   DXVAHDVideoProcessor.obj
 0001:00005a70       ??1?$CComPtr@UIDirect3DTexture9@@@ATL@@QAE@XZ 10006a70 f i DXVAHDVideoProcessor.obj
 0001:00005a80       ??0?$_Tree@V?$_Tset_traits@W4_D3DFORMAT@@U?$less@W4_D3DFORMAT@@@std@@V?$allocator@W4_D3DFORMAT@@@3@$0A@@std@@@std@@QAE@ABU?$less@W4_D3DFORMAT@@@1@ABV?$allocator@W4_D3DFORMAT@@@1@@Z 10006a80 f i DXVAHDVideoProcessor.obj
 0001:00005a80       ??0?$set@W4_D3DFORMAT@@U?$less@W4_D3DFORMAT@@@std@@V?$allocator@W4_D3DFORMAT@@@3@@std@@QAE@XZ 10006a80 f i DXVAHDVideoProcessor.obj
 0001:00005ab0       ??1?$_Tree@V?$_Tset_traits@W4_D3DFORMAT@@U?$less@W4_D3DFORMAT@@@std@@V?$allocator@W4_D3DFORMAT@@@3@$0A@@std@@@std@@QAE@XZ 10006ab0 f i DXVAHDVideoProcessor.obj
 0001:00005ac0       ??4?$_Tree@V?$_Tset_traits@W4_D3DFORMAT@@U?$less@W4_D3DFORMAT@@@std@@V?$allocator@W4_D3DFORMAT@@@3@$0A@@std@@@std@@QAEAAV01@ABV01@@Z 10006ac0 f i DXVAHDVideoProcessor.obj
 0001:00005ac0       ??4?$set@W4_D3DFORMAT@@U?$less@W4_D3DFORMAT@@@std@@V?$allocator@W4_D3DFORMAT@@@3@@std@@QAEAAV01@ABV01@@Z 10006ac0 f i DXVAHDVideoProcessor.obj
 0001:00005af0       ?find@?$_Tree@V?$_Tset_traits@W4_D3DFORMAT@@U?$less@W4_D3DFORMAT@@@std@@V?$allocator@W4_D3DFORMAT@@@3@$0A@@std@@@std@@QBE?AVconst_iterator@12@ABW4_D3DFORMAT@@@Z 10006af0 f i DXVAHDVideoProcessor.obj
 0001:00005b60       ??0?$CComPtr@UIDirect3DTexture9@@@ATL@@QAE@XZ 10006b60 f i DXVAHDVideoProcessor.obj
 0001:00005b70       ?erase@?$_Tree@V?$_Tset_traits@W4_D3DFORMAT@@U?$less@W4_D3DFORMAT@@@std@@V?$allocator@W4_D3DFORMAT@@@3@$0A@@std@@@std@@QAE?AViterator@12@V312@0@Z 10006b70 f i DXVAHDVideoProcessor.obj
 0001:00005c40       ?lower_bound@?$_Tree@V?$_Tset_traits@W4_D3DFORMAT@@U?$less@W4_D3DFORMAT@@@std@@V?$allocator@W4_D3DFORMAT@@@3@$0A@@std@@@std@@QBE?AVconst_iterator@12@ABW4_D3DFORMAT@@@Z 10006c40 f i DXVAHDVideoProcessor.obj
 0001:00005c70       ?_Copy@?$_Tree@V?$_Tset_traits@W4_D3DFORMAT@@U?$less@W4_D3DFORMAT@@@std@@V?$allocator@W4_D3DFORMAT@@@3@$0A@@std@@@std@@IAEXABV12@@Z 10006c70 f i DXVAHDVideoProcessor.obj
 0001:00005ce0       ?_Tidy@?$_Tree@V?$_Tset_traits@W4_D3DFORMAT@@U?$less@W4_D3DFORMAT@@@std@@V?$allocator@W4_D3DFORMAT@@@3@$0A@@std@@@std@@IAEXXZ 10006ce0 f i DXVAHDVideoProcessor.obj
 0001:00005d20       ?_Isnil@?$_Tree@V?$_Tset_traits@W4_D3DFORMAT@@U?$less@W4_D3DFORMAT@@@std@@V?$allocator@W4_D3DFORMAT@@@3@$0A@@std@@@std@@KAAADPAU_Node@?$_Tree_nod@V?$_Tset_traits@W4_D3DFORMAT@@U?$less@W4_D3DFORMAT@@@std@@V?$allocator@W4_D3DFORMAT@@@3@$0A@@std@@@2@@Z 10006d20 f i DXVAHDVideoProcessor.obj
 0001:00005d30       ?_Parent@?$_Tree@V?$_Tmap_traits@KUVideoSourceRate@CServerStateEventSink@DispSvr@@U?$less@K@std@@V?$allocator@U?$pair@$$CBKUVideoSourceRate@CServerStateEventSink@DispSvr@@@std@@@5@$0A@@std@@@std@@KAAAPAU_Node@?$_Tree_nod@V?$_Tmap_traits@KUVideoSourceRate@CServerStateEventSink@DispSvr@@U?$less@K@std@@V?$allocator@U?$pair@$$CBKUVideoSourceRate@CServerStateEventSink@DispSvr@@@std@@@5@$0A@@std@@@2@PAU342@@Z 10006d30 f i ServerStateEventSink.obj
 0001:00005d30       ?_Prevnode@?$list@PAUHINSTANCE__@@V?$allocator@PAUHINSTANCE__@@@std@@@std@@KAAAPAU_Node@?$_List_nod@PAUHINSTANCE__@@V?$allocator@PAUHINSTANCE__@@@std@@@2@PAU342@@Z 10006d30 f i DynLibManager.obj
 0001:00005d30       ?_Parent@?$_Tree@V?$_Tmap_traits@$$CBKW4_PCOM_STEREOSCOPIC_FORMAT@@U?$less@$$CBK@std@@V?$allocator@U?$pair@$$CBKW4_PCOM_STEREOSCOPIC_FORMAT@@@std@@@3@$0A@@std@@@std@@KAAAPAU_Node@?$_Tree_nod@V?$_Tmap_traits@$$CBKW4_PCOM_STEREOSCOPIC_FORMAT@@U?$less@$$CBK@std@@V?$allocator@U?$pair@$$CBKW4_PCOM_STEREOSCOPIC_FORMAT@@@std@@@3@$0A@@std@@@2@PAU342@@Z 10006d30 f i AMDPCOMMixerPresenter.obj
 0001:00005d30       ?_Parent@?$_Tree@V?$_Tset_traits@W4_D3DFORMAT@@U?$less@W4_D3DFORMAT@@@std@@V?$allocator@W4_D3DFORMAT@@@3@$0A@@std@@@std@@KAAAPAU_Node@?$_Tree_nod@V?$_Tset_traits@W4_D3DFORMAT@@U?$less@W4_D3DFORMAT@@@std@@V?$allocator@W4_D3DFORMAT@@@3@$0A@@std@@@2@PAU342@@Z 10006d30 f i DXVAHDVideoProcessor.obj
 0001:00005d30       ?_Parent@?$_Tree@V?$_Tmap_traits@PBUIDirect3DSurface9@@PAUNVDX_ObjectHandle__@@U?$less@PBUIDirect3DSurface9@@@std@@V?$allocator@U?$pair@QBUIDirect3DSurface9@@PAUNVDX_ObjectHandle__@@@std@@@4@$0A@@std@@@std@@KAAAPAU_Node@?$_Tree_nod@V?$_Tmap_traits@PBUIDirect3DSurface9@@PAUNVDX_ObjectHandle__@@U?$less@PBUIDirect3DSurface9@@@std@@V?$allocator@U?$pair@QBUIDirect3DSurface9@@PAUNVDX_ObjectHandle__@@@std@@@4@$0A@@std@@@2@PAU342@@Z 10006d30 f i NvAPIPresenter.obj
 0001:00005d30       ?_Parent@?$_Tree@V?$_Tmap_traits@W4PLANE_FORMAT@DispSvr@@UTextureCap@2@U?$less@W4PLANE_FORMAT@DispSvr@@@std@@V?$allocator@U?$pair@$$CBW4PLANE_FORMAT@DispSvr@@UTextureCap@2@@std@@@5@$0A@@std@@@std@@KAAAPAU_Node@?$_Tree_nod@V?$_Tmap_traits@W4PLANE_FORMAT@DispSvr@@UTextureCap@2@U?$less@W4PLANE_FORMAT@DispSvr@@@std@@V?$allocator@U?$pair@$$CBW4PLANE_FORMAT@DispSvr@@UTextureCap@2@@std@@@5@$0A@@std@@@2@PAU342@@Z 10006d30 f i D3D9TexturePool.obj
 0001:00005d30       ?_Parent@?$_Tree@V?$_Tmap_traits@$$CBKKU?$less@$$CBK@std@@V?$allocator@U?$pair@$$CBKK@std@@@2@$0A@@std@@@std@@KAAAPAU_Node@?$_Tree_nod@V?$_Tmap_traits@$$CBKKU?$less@$$CBK@std@@V?$allocator@U?$pair@$$CBKK@std@@@2@$0A@@std@@@2@PAU342@@Z 10006d30 f i AMDPCOMMixerPresenter.obj
 0001:00005d30       ?_Prevnode@?$list@UClearRect@DispSvr@@V?$allocator@UClearRect@DispSvr@@@std@@@std@@KAAAPAU_Node@?$_List_nod@UClearRect@DispSvr@@V?$allocator@UClearRect@DispSvr@@@std@@@2@PAU342@@Z 10006d30 f i D3D9VideoMixerModel.obj
 0001:00005d30       ?_Parent@?$_Tree@V?$_Tmap_traits@U_GUID@@UResourceGroup@CResourceManager@DispSvr@@U?$less@U_GUID@@@std@@V?$allocator@U?$pair@$$CBU_GUID@@UResourceGroup@CResourceManager@DispSvr@@@std@@@6@$0A@@std@@@std@@KAAAPAU_Node@?$_Tree_nod@V?$_Tmap_traits@U_GUID@@UResourceGroup@CResourceManager@DispSvr@@U?$less@U_GUID@@@std@@V?$allocator@U?$pair@$$CBU_GUID@@UResourceGroup@CResourceManager@DispSvr@@@std@@@6@$0A@@std@@@2@PAU342@@Z 10006d30 f i ResourceManager.obj
 0001:00005d30       ?_Parent@?$_Tree@V?$_Tmap_traits@PAXUD3D9Texture@CD3D9TexturePool@DispSvr@@U?$less@PAX@std@@V?$allocator@U?$pair@QAXUD3D9Texture@CD3D9TexturePool@DispSvr@@@std@@@5@$0A@@std@@@std@@KAAAPAU_Node@?$_Tree_nod@V?$_Tmap_traits@PAXUD3D9Texture@CD3D9TexturePool@DispSvr@@U?$less@PAX@std@@V?$allocator@U?$pair@QAXUD3D9Texture@CD3D9TexturePool@DispSvr@@@std@@@5@$0A@@std@@@2@PAU342@@Z 10006d30 f i D3D9TexturePool.obj
 0001:00005d30       ?_Prevnode@?$list@UD3D9Texture@CD3D9TexturePool@DispSvr@@V?$allocator@UD3D9Texture@CD3D9TexturePool@DispSvr@@@std@@@std@@KAAAPAU_Node@?$_List_nod@UD3D9Texture@CD3D9TexturePool@DispSvr@@V?$allocator@UD3D9Texture@CD3D9TexturePool@DispSvr@@@std@@@2@PAU342@@Z 10006d30 f i D3D9TexturePool.obj
 0001:00005d30       ?_Prevnode@?$list@UVideoProcessorStub@DispSvr@@V?$allocator@UVideoProcessorStub@DispSvr@@@std@@@std@@KAAAPAU_Node@?$_List_nod@UVideoProcessorStub@DispSvr@@V?$allocator@UVideoProcessorStub@DispSvr@@@std@@@2@PAU342@@Z 10006d30 f i AMDPCOMMixerPresenter.obj
 0001:00005d30       ?_Prevnode@?$list@UPlugin@CResourceManager@DispSvr@@V?$allocator@UPlugin@CResourceManager@DispSvr@@@std@@@std@@KAAAPAU_Node@?$_List_nod@UPlugin@CResourceManager@DispSvr@@V?$allocator@UPlugin@CResourceManager@DispSvr@@@std@@@2@PAU342@@Z 10006d30 f i ResourceManager.obj
 0001:00005d30       ?_Prevnode@?$list@T?$PlaneVB@UD3D9ClearRectVertex@DispSvr@@@DispSvr@@V?$allocator@T?$PlaneVB@UD3D9ClearRectVertex@DispSvr@@@DispSvr@@@std@@@std@@KAAAPAU_Node@?$_List_nod@T?$PlaneVB@UD3D9ClearRectVertex@DispSvr@@@DispSvr@@V?$allocator@T?$PlaneVB@UD3D9ClearRectVertex@DispSvr@@@DispSvr@@@std@@@2@PAU342@@Z 10006d30 f i D3D9VideoMixer.obj
 0001:00005d30       ?_Parent@?$_Tree@V?$_Tmap_traits@KKU?$less@K@std@@V?$allocator@U?$pair@$$CBKK@std@@@2@$0A@@std@@@std@@KAAAPAU_Node@?$_Tree_nod@V?$_Tmap_traits@KKU?$less@K@std@@V?$allocator@U?$pair@$$CBKK@std@@@2@$0A@@std@@@2@PAU342@@Z 10006d30 f i IntelDxva2Device.obj
 0001:00005d40       ?_Right@?$_Tree@V?$_Tmap_traits@PAXUD3D9Texture@CD3D9TexturePool@DispSvr@@U?$less@PAX@std@@V?$allocator@U?$pair@QAXUD3D9Texture@CD3D9TexturePool@DispSvr@@@std@@@5@$0A@@std@@@std@@KAAAPAU_Node@?$_Tree_nod@V?$_Tmap_traits@PAXUD3D9Texture@CD3D9TexturePool@DispSvr@@U?$less@PAX@std@@V?$allocator@U?$pair@QAXUD3D9Texture@CD3D9TexturePool@DispSvr@@@std@@@5@$0A@@std@@@2@PAU342@@Z 10006d40 f i D3D9TexturePool.obj
 0001:00005d40       ?_Myval@?$list@PAUHINSTANCE__@@V?$allocator@PAUHINSTANCE__@@@std@@@std@@KAAAPAUHINSTANCE__@@PAU_Node@?$_List_nod@PAUHINSTANCE__@@V?$allocator@PAUHINSTANCE__@@@std@@@2@@Z 10006d40 f i DynLibManager.obj
 0001:00005d40       ?_Right@?$_Tree@V?$_Tmap_traits@$$CBKW4_PCOM_STEREOSCOPIC_FORMAT@@U?$less@$$CBK@std@@V?$allocator@U?$pair@$$CBKW4_PCOM_STEREOSCOPIC_FORMAT@@@std@@@3@$0A@@std@@@std@@KAAAPAU_Node@?$_Tree_nod@V?$_Tmap_traits@$$CBKW4_PCOM_STEREOSCOPIC_FORMAT@@U?$less@$$CBK@std@@V?$allocator@U?$pair@$$CBKW4_PCOM_STEREOSCOPIC_FORMAT@@@std@@@3@$0A@@std@@@2@PAU342@@Z 10006d40 f i AMDPCOMMixerPresenter.obj
 0001:00005d40       ?_Myval@?$list@T?$PlaneVB@UD3D9ClearRectVertex@DispSvr@@@DispSvr@@V?$allocator@T?$PlaneVB@UD3D9ClearRectVertex@DispSvr@@@DispSvr@@@std@@@std@@KAAAT?$PlaneVB@UD3D9ClearRectVertex@DispSvr@@@DispSvr@@PAU_Node@?$_List_nod@T?$PlaneVB@UD3D9ClearRectVertex@DispSvr@@@DispSvr@@V?$allocator@T?$PlaneVB@UD3D9ClearRectVertex@DispSvr@@@DispSvr@@@std@@@2@@Z 10006d40 f i D3D9VideoMixer.obj
 0001:00005d40       ?_Right@?$_Tree@V?$_Tset_traits@W4_D3DFORMAT@@U?$less@W4_D3DFORMAT@@@std@@V?$allocator@W4_D3DFORMAT@@@3@$0A@@std@@@std@@KAAAPAU_Node@?$_Tree_nod@V?$_Tset_traits@W4_D3DFORMAT@@U?$less@W4_D3DFORMAT@@@std@@V?$allocator@W4_D3DFORMAT@@@3@$0A@@std@@@2@PAU342@@Z 10006d40 f i DXVAHDVideoProcessor.obj
 0001:00005d40       ?_Right@?$_Tree@V?$_Tmap_traits@W4PLANE_FORMAT@DispSvr@@UTextureCap@2@U?$less@W4PLANE_FORMAT@DispSvr@@@std@@V?$allocator@U?$pair@$$CBW4PLANE_FORMAT@DispSvr@@UTextureCap@2@@std@@@5@$0A@@std@@@std@@KAAAPAU_Node@?$_Tree_nod@V?$_Tmap_traits@W4PLANE_FORMAT@DispSvr@@UTextureCap@2@U?$less@W4PLANE_FORMAT@DispSvr@@@std@@V?$allocator@U?$pair@$$CBW4PLANE_FORMAT@DispSvr@@UTextureCap@2@@std@@@5@$0A@@std@@@2@PAU342@@Z 10006d40 f i D3D9TexturePool.obj
 0001:00005d40       ?_Right@?$_Tree@V?$_Tmap_traits@U_GUID@@UResourceGroup@CResourceManager@DispSvr@@U?$less@U_GUID@@@std@@V?$allocator@U?$pair@$$CBU_GUID@@UResourceGroup@CResourceManager@DispSvr@@@std@@@6@$0A@@std@@@std@@KAAAPAU_Node@?$_Tree_nod@V?$_Tmap_traits@U_GUID@@UResourceGroup@CResourceManager@DispSvr@@U?$less@U_GUID@@@std@@V?$allocator@U?$pair@$$CBU_GUID@@UResourceGroup@CResourceManager@DispSvr@@@std@@@6@$0A@@std@@@2@PAU342@@Z 10006d40 f i ResourceManager.obj
 0001:00005d40       ?_Right@?$_Tree@V?$_Tmap_traits@PBUIDirect3DSurface9@@PAUNVDX_ObjectHandle__@@U?$less@PBUIDirect3DSurface9@@@std@@V?$allocator@U?$pair@QBUIDirect3DSurface9@@PAUNVDX_ObjectHandle__@@@std@@@4@$0A@@std@@@std@@KAAAPAU_Node@?$_Tree_nod@V?$_Tmap_traits@PBUIDirect3DSurface9@@PAUNVDX_ObjectHandle__@@U?$less@PBUIDirect3DSurface9@@@std@@V?$allocator@U?$pair@QBUIDirect3DSurface9@@PAUNVDX_ObjectHandle__@@@std@@@4@$0A@@std@@@2@PAU342@@Z 10006d40 f i NvAPIPresenter.obj
 0001:00005d40       ?_Right@?$_Tree@V?$_Tmap_traits@$$CBKKU?$less@$$CBK@std@@V?$allocator@U?$pair@$$CBKK@std@@@2@$0A@@std@@@std@@KAAAPAU_Node@?$_Tree_nod@V?$_Tmap_traits@$$CBKKU?$less@$$CBK@std@@V?$allocator@U?$pair@$$CBKK@std@@@2@$0A@@std@@@2@PAU342@@Z 10006d40 f i AMDPCOMMixerPresenter.obj
 0001:00005d40       ?_Myval@?$list@UPlugin@CResourceManager@DispSvr@@V?$allocator@UPlugin@CResourceManager@DispSvr@@@std@@@std@@KAAAUPlugin@CResourceManager@DispSvr@@PAU_Node@?$_List_nod@UPlugin@CResourceManager@DispSvr@@V?$allocator@UPlugin@CResourceManager@DispSvr@@@std@@@2@@Z 10006d40 f i ResourceManager.obj
 0001:00005d40       ?_Myval@?$list@UD3D9Texture@CD3D9TexturePool@DispSvr@@V?$allocator@UD3D9Texture@CD3D9TexturePool@DispSvr@@@std@@@std@@KAAAUD3D9Texture@CD3D9TexturePool@DispSvr@@PAU_Node@?$_List_nod@UD3D9Texture@CD3D9TexturePool@DispSvr@@V?$allocator@UD3D9Texture@CD3D9TexturePool@DispSvr@@@std@@@2@@Z 10006d40 f i D3D9TexturePool.obj
 0001:00005d40       ?_Right@?$_Tree@V?$_Tmap_traits@KKU?$less@K@std@@V?$allocator@U?$pair@$$CBKK@std@@@2@$0A@@std@@@std@@KAAAPAU_Node@?$_Tree_nod@V?$_Tmap_traits@KKU?$less@K@std@@V?$allocator@U?$pair@$$CBKK@std@@@2@$0A@@std@@@2@PAU342@@Z 10006d40 f i IntelDxva2Device.obj
 0001:00005d40       ?_Myval@?$list@UVideoProcessorStub@DispSvr@@V?$allocator@UVideoProcessorStub@DispSvr@@@std@@@std@@KAAAUVideoProcessorStub@DispSvr@@PAU_Node@?$_List_nod@UVideoProcessorStub@DispSvr@@V?$allocator@UVideoProcessorStub@DispSvr@@@std@@@2@@Z 10006d40 f i AMDPCOMMixerPresenter.obj
 0001:00005d40       ?_Myval@?$list@UClearRect@DispSvr@@V?$allocator@UClearRect@DispSvr@@@std@@@std@@KAAAUClearRect@DispSvr@@PAU_Node@?$_List_nod@UClearRect@DispSvr@@V?$allocator@UClearRect@DispSvr@@@std@@@2@@Z 10006d40 f i AMDPCOMMixerPresenter.obj
 0001:00005d40       ?_Right@?$_Tree@V?$_Tmap_traits@KUVideoSourceRate@CServerStateEventSink@DispSvr@@U?$less@K@std@@V?$allocator@U?$pair@$$CBKUVideoSourceRate@CServerStateEventSink@DispSvr@@@std@@@5@$0A@@std@@@std@@KAAAPAU_Node@?$_Tree_nod@V?$_Tmap_traits@KUVideoSourceRate@CServerStateEventSink@DispSvr@@U?$less@K@std@@V?$allocator@U?$pair@$$CBKUVideoSourceRate@CServerStateEventSink@DispSvr@@@std@@@5@$0A@@std@@@2@PAU342@@Z 10006d40 f i ServerStateEventSink.obj
 0001:00005d50       ?erase@?$_Tree@V?$_Tset_traits@W4_D3DFORMAT@@U?$less@W4_D3DFORMAT@@@std@@V?$allocator@W4_D3DFORMAT@@@3@$0A@@std@@@std@@QAE?AViterator@12@V312@@Z 10006d50 f i DXVAHDVideoProcessor.obj
 0001:00006010       ?clear@?$_Tree@V?$_Tset_traits@W4_D3DFORMAT@@U?$less@W4_D3DFORMAT@@@std@@V?$allocator@W4_D3DFORMAT@@@3@$0A@@std@@@std@@QAEXXZ 10007010 f i DXVAHDVideoProcessor.obj
 0001:00006040       ?_Copy@?$_Tree@V?$_Tset_traits@W4_D3DFORMAT@@U?$less@W4_D3DFORMAT@@@std@@V?$allocator@W4_D3DFORMAT@@@3@$0A@@std@@@std@@IAEPAU_Node@?$_Tree_nod@V?$_Tset_traits@W4_D3DFORMAT@@U?$less@W4_D3DFORMAT@@@std@@V?$allocator@W4_D3DFORMAT@@@3@$0A@@std@@@2@PAU342@0@Z 10007040 f i DXVAHDVideoProcessor.obj
 0001:00006100       ?_Init@?$_Tree@V?$_Tset_traits@W4_D3DFORMAT@@U?$less@W4_D3DFORMAT@@@std@@V?$allocator@W4_D3DFORMAT@@@3@$0A@@std@@@std@@IAEXXZ 10007100 f i DXVAHDVideoProcessor.obj
 0001:00006130       ?_Lbound@?$_Tree@V?$_Tset_traits@W4_D3DFORMAT@@U?$less@W4_D3DFORMAT@@@std@@V?$allocator@W4_D3DFORMAT@@@3@$0A@@std@@@std@@IBEPAU_Node@?$_Tree_nod@V?$_Tset_traits@W4_D3DFORMAT@@U?$less@W4_D3DFORMAT@@@std@@V?$allocator@W4_D3DFORMAT@@@3@$0A@@std@@@2@ABW4_D3DFORMAT@@@Z 10007130 f i DXVAHDVideoProcessor.obj
 0001:00006160       ?_Max@?$_Tree@V?$_Tset_traits@W4_D3DFORMAT@@U?$less@W4_D3DFORMAT@@@std@@V?$allocator@W4_D3DFORMAT@@@3@$0A@@std@@@std@@KAPAU_Node@?$_Tree_nod@V?$_Tset_traits@W4_D3DFORMAT@@U?$less@W4_D3DFORMAT@@@std@@V?$allocator@W4_D3DFORMAT@@@3@$0A@@std@@@2@PAU342@@Z 10007160 f i DXVAHDVideoProcessor.obj
 0001:00006180       ?_Min@?$_Tree@V?$_Tset_traits@W4_D3DFORMAT@@U?$less@W4_D3DFORMAT@@@std@@V?$allocator@W4_D3DFORMAT@@@3@$0A@@std@@@std@@KAPAU_Node@?$_Tree_nod@V?$_Tset_traits@W4_D3DFORMAT@@U?$less@W4_D3DFORMAT@@@std@@V?$allocator@W4_D3DFORMAT@@@3@$0A@@std@@@2@PAU342@@Z 10007180 f i DXVAHDVideoProcessor.obj
 0001:000061a0       ??Eiterator@?$_Tree@V?$_Tset_traits@W4_D3DFORMAT@@U?$less@W4_D3DFORMAT@@@std@@V?$allocator@W4_D3DFORMAT@@@3@$0A@@std@@@std@@QAE?AV012@H@Z 100071a0 f i DXVAHDVideoProcessor.obj
 0001:000061c0       ??0length_error@std@@QAE@ABV01@@Z 100071c0 f i DXVAHDVideoProcessor.obj
 0001:000061c0       ??0out_of_range@std@@QAE@ABV01@@Z 100071c0 f i DXVAHDVideoProcessor.obj
 0001:000061e0       ??0logic_error@std@@QAE@ABV01@@Z 100071e0 f i DXVAHDVideoProcessor.obj
 0001:00006250       ?_Color@?$_Tree@V?$_Tset_traits@W4_D3DFORMAT@@U?$less@W4_D3DFORMAT@@@std@@V?$allocator@W4_D3DFORMAT@@@3@$0A@@std@@@std@@KAAADPAU_Node@?$_Tree_nod@V?$_Tset_traits@W4_D3DFORMAT@@U?$less@W4_D3DFORMAT@@@std@@V?$allocator@W4_D3DFORMAT@@@3@$0A@@std@@@2@@Z 10007250 f i DXVAHDVideoProcessor.obj
 0001:00006250       ?_Myval@?$_Tree@V?$_Tmap_traits@KUVideoSourceRate@CServerStateEventSink@DispSvr@@U?$less@K@std@@V?$allocator@U?$pair@$$CBKUVideoSourceRate@CServerStateEventSink@DispSvr@@@std@@@5@$0A@@std@@@std@@KAAAU?$pair@$$CBKUVideoSourceRate@CServerStateEventSink@DispSvr@@@2@PAU_Node@?$_Tree_nod@V?$_Tmap_traits@KUVideoSourceRate@CServerStateEventSink@DispSvr@@U?$less@K@std@@V?$allocator@U?$pair@$$CBKUVideoSourceRate@CServerStateEventSink@DispSvr@@@std@@@5@$0A@@std@@@2@@Z 10007250 f i ServerStateEventSink.obj
 0001:00006250       ?_Key@?$_Tree@V?$_Tmap_traits@KUVideoSourceRate@CServerStateEventSink@DispSvr@@U?$less@K@std@@V?$allocator@U?$pair@$$CBKUVideoSourceRate@CServerStateEventSink@DispSvr@@@std@@@5@$0A@@std@@@std@@KAABKPAU_Node@?$_Tree_nod@V?$_Tmap_traits@KUVideoSourceRate@CServerStateEventSink@DispSvr@@U?$less@K@std@@V?$allocator@U?$pair@$$CBKUVideoSourceRate@CServerStateEventSink@DispSvr@@@std@@@5@$0A@@std@@@2@@Z 10007250 f i ServerStateEventSink.obj
 0001:00006260       ?_Erase@?$_Tree@V?$_Tset_traits@W4_D3DFORMAT@@U?$less@W4_D3DFORMAT@@@std@@V?$allocator@W4_D3DFORMAT@@@3@$0A@@std@@@std@@IAEXPAU_Node@?$_Tree_nod@V?$_Tset_traits@W4_D3DFORMAT@@U?$less@W4_D3DFORMAT@@@std@@V?$allocator@W4_D3DFORMAT@@@3@$0A@@std@@@2@@Z 10007260 f i DXVAHDVideoProcessor.obj
 0001:000062a0       ?_Lrotate@?$_Tree@V?$_Tset_traits@W4_D3DFORMAT@@U?$less@W4_D3DFORMAT@@@std@@V?$allocator@W4_D3DFORMAT@@@3@$0A@@std@@@std@@IAEXPAU_Node@?$_Tree_nod@V?$_Tset_traits@W4_D3DFORMAT@@U?$less@W4_D3DFORMAT@@@std@@V?$allocator@W4_D3DFORMAT@@@3@$0A@@std@@@2@@Z 100072a0 f i DXVAHDVideoProcessor.obj
 0001:000062f0       ?_Rrotate@?$_Tree@V?$_Tset_traits@W4_D3DFORMAT@@U?$less@W4_D3DFORMAT@@@std@@V?$allocator@W4_D3DFORMAT@@@3@$0A@@std@@@std@@IAEXPAU_Node@?$_Tree_nod@V?$_Tset_traits@W4_D3DFORMAT@@U?$less@W4_D3DFORMAT@@@std@@V?$allocator@W4_D3DFORMAT@@@3@$0A@@std@@@2@@Z 100072f0 f i DXVAHDVideoProcessor.obj
 0001:00006340       ?_Buynode@?$_Tree@V?$_Tset_traits@W4_D3DFORMAT@@U?$less@W4_D3DFORMAT@@@std@@V?$allocator@W4_D3DFORMAT@@@3@$0A@@std@@@std@@IAEPAU_Node@?$_Tree_nod@V?$_Tset_traits@W4_D3DFORMAT@@U?$less@W4_D3DFORMAT@@@std@@V?$allocator@W4_D3DFORMAT@@@3@$0A@@std@@@2@XZ 10007340 f i DXVAHDVideoProcessor.obj
 0001:00006380       ?_Buynode@?$_Tree@V?$_Tset_traits@W4_D3DFORMAT@@U?$less@W4_D3DFORMAT@@@std@@V?$allocator@W4_D3DFORMAT@@@3@$0A@@std@@@std@@IAEPAU_Node@?$_Tree_nod@V?$_Tset_traits@W4_D3DFORMAT@@U?$less@W4_D3DFORMAT@@@std@@V?$allocator@W4_D3DFORMAT@@@3@$0A@@std@@@2@PAU342@00ABW4_D3DFORMAT@@D@Z 10007380 f i DXVAHDVideoProcessor.obj
 0001:000063c0       ?allocate@?$allocator@U_Node@?$_Tree_nod@V?$_Tset_traits@W4_D3DFORMAT@@U?$less@W4_D3DFORMAT@@@std@@V?$allocator@W4_D3DFORMAT@@@3@$0A@@std@@@std@@@std@@QAEPAU_Node@?$_Tree_nod@V?$_Tset_traits@W4_D3DFORMAT@@U?$less@W4_D3DFORMAT@@@std@@V?$allocator@W4_D3DFORMAT@@@3@$0A@@std@@@2@I@Z 100073c0 f i DXVAHDVideoProcessor.obj
 0001:000063d0       ??Eiterator@?$_Tree@V?$_Tset_traits@W4_D3DFORMAT@@U?$less@W4_D3DFORMAT@@@std@@V?$allocator@W4_D3DFORMAT@@@3@$0A@@std@@@std@@QAEAAV012@XZ 100073d0 f i DXVAHDVideoProcessor.obj
 0001:000063d0       ??Econst_iterator@?$_Tree@V?$_Tset_traits@W4_D3DFORMAT@@U?$less@W4_D3DFORMAT@@@std@@V?$allocator@W4_D3DFORMAT@@@3@$0A@@std@@@std@@QAEAAV012@XZ 100073d0 f i DXVAHDVideoProcessor.obj
 0001:000063e0       ??0_Node@?$_Tree_nod@V?$_Tset_traits@W4_D3DFORMAT@@U?$less@W4_D3DFORMAT@@@std@@V?$allocator@W4_D3DFORMAT@@@3@$0A@@std@@@std@@QAE@PAU012@00ABW4_D3DFORMAT@@D@Z 100073e0 f i DXVAHDVideoProcessor.obj
 0001:00006410       ?_Inc@const_iterator@?$_Tree@V?$_Tset_traits@W4_D3DFORMAT@@U?$less@W4_D3DFORMAT@@@std@@V?$allocator@W4_D3DFORMAT@@@3@$0A@@std@@@std@@QAEXXZ 10007410 f i DXVAHDVideoProcessor.obj
 0001:00006480       ??$?0PAW4_D3DFORMAT@@@?$set@W4_D3DFORMAT@@U?$less@W4_D3DFORMAT@@@std@@V?$allocator@W4_D3DFORMAT@@@3@@std@@QAE@PAW4_D3DFORMAT@@0@Z 10007480 f i DXVAHDVideoProcessor.obj
 0001:00006480       ??$?0PBW4_D3DFORMAT@@@?$set@W4_D3DFORMAT@@U?$less@W4_D3DFORMAT@@@std@@V?$allocator@W4_D3DFORMAT@@@3@@std@@QAE@PBW4_D3DFORMAT@@0@Z 10007480 f i DXVAHDVideoProcessor.obj
 0001:00006500       ??$swap@D@std@@YAXAAD0@Z   10007500 f i DXVAHDVideoProcessor.obj
 0001:00006510       ??$_Allocate@U_Node@?$_Tree_nod@V?$_Tset_traits@W4_D3DFORMAT@@U?$less@W4_D3DFORMAT@@@std@@V?$allocator@W4_D3DFORMAT@@@3@$0A@@std@@@std@@@std@@YAPAU_Node@?$_Tree_nod@V?$_Tset_traits@W4_D3DFORMAT@@U?$less@W4_D3DFORMAT@@@std@@V?$allocator@W4_D3DFORMAT@@@3@$0A@@std@@@0@IPAU120@@Z 10007510 f i DXVAHDVideoProcessor.obj
 0001:00006560       ?insert@?$_Tree@V?$_Tset_traits@W4_D3DFORMAT@@U?$less@W4_D3DFORMAT@@@std@@V?$allocator@W4_D3DFORMAT@@@3@$0A@@std@@@std@@QAE?AU?$pair@Viterator@?$_Tree@V?$_Tset_traits@W4_D3DFORMAT@@U?$less@W4_D3DFORMAT@@@std@@V?$allocator@W4_D3DFORMAT@@@3@$0A@@std@@@std@@_N@2@ABW4_D3DFORMAT@@@Z 10007560 f i DXVAHDVideoProcessor.obj
 0001:00006640       ?_Insert@?$_Tree@V?$_Tset_traits@W4_D3DFORMAT@@U?$less@W4_D3DFORMAT@@@std@@V?$allocator@W4_D3DFORMAT@@@3@$0A@@std@@@std@@IAE?AViterator@12@_NPAU_Node@?$_Tree_nod@V?$_Tset_traits@W4_D3DFORMAT@@U?$less@W4_D3DFORMAT@@@std@@V?$allocator@W4_D3DFORMAT@@@3@$0A@@std@@@2@ABW4_D3DFORMAT@@@Z 10007640 f i DXVAHDVideoProcessor.obj
 0001:00006870       ??Fiterator@?$_Tree@V?$_Tset_traits@W4_D3DFORMAT@@U?$less@W4_D3DFORMAT@@@std@@V?$allocator@W4_D3DFORMAT@@@3@$0A@@std@@@std@@QAEAAV012@XZ 10007870 f i DXVAHDVideoProcessor.obj
 0001:00006870       ??Fconst_iterator@?$_Tree@V?$_Tset_traits@W4_D3DFORMAT@@U?$less@W4_D3DFORMAT@@@std@@V?$allocator@W4_D3DFORMAT@@@3@$0A@@std@@@std@@QAEAAV012@XZ 10007870 f i DXVAHDVideoProcessor.obj
 0001:00006880       ?_Dec@const_iterator@?$_Tree@V?$_Tset_traits@W4_D3DFORMAT@@U?$less@W4_D3DFORMAT@@@std@@V?$allocator@W4_D3DFORMAT@@@3@$0A@@std@@@std@@QAEXXZ 10007880 f i DXVAHDVideoProcessor.obj
 0001:00006910       ?what@logic_error@std@@UBEPBDXZ 10007910 f i DXVAHDVideoProcessor.obj
 0001:00006920       ??0logic_error@std@@QAE@ABV?$basic_string@DU?$char_traits@D@std@@V?$allocator@D@2@@1@@Z 10007920 f i DXVAHDVideoProcessor.obj
 0001:00006980       ??1bad_alloc@std@@UAE@XZ   10007980 f i DXVAHDVideoProcessor.obj
 0001:00006990       ??_Ebad_alloc@std@@UAEPAXI@Z 10007990 f i  CIL library: CIL module
 0001:00006990       ??_Gbad_alloc@std@@UAEPAXI@Z 10007990 f i DXVAHDVideoProcessor.obj
 0001:000069c0       ??0bad_alloc@std@@QAE@ABV01@@Z 100079c0 f i DXVAHDVideoProcessor.obj
 0001:000069e0       ??0bad_alloc@std@@QAE@PBD@Z 100079e0 f i DXVAHDVideoProcessor.obj
 0001:00006a00       ??_Elength_error@std@@UAEPAXI@Z 10007a00 f i  CIL library: CIL module
 0001:00006a00       ??_Gout_of_range@std@@UAEPAXI@Z 10007a00 f i DXVAHDVideoProcessor.obj
 0001:00006a00       ??_Eout_of_range@std@@UAEPAXI@Z 10007a00 f i  CIL library: CIL module
 0001:00006a00       ??_Elogic_error@std@@UAEPAXI@Z 10007a00 f i  CIL library: CIL module
 0001:00006a00       ??_Glogic_error@std@@UAEPAXI@Z 10007a00 f i DXVAHDVideoProcessor.obj
 0001:00006a00       ??_Glength_error@std@@UAEPAXI@Z 10007a00 f i DXVAHDVideoProcessor.obj
 0001:00006a30       ??1out_of_range@std@@UAE@XZ 10007a30 f i DXVAHDVideoProcessor.obj
 0001:00006a30       ??1length_error@std@@UAE@XZ 10007a30 f i DXVAHDVideoProcessor.obj
 0001:00006a30       ??1logic_error@std@@UAE@XZ 10007a30 f i DXVAHDVideoProcessor.obj
 0001:00006a50       ??0length_error@std@@QAE@ABV?$basic_string@DU?$char_traits@D@std@@V?$allocator@D@2@@1@@Z 10007a50 f i DXVAHDVideoProcessor.obj
 0001:00006a50       ??0out_of_range@std@@QAE@ABV?$basic_string@DU?$char_traits@D@std@@V?$allocator@D@2@@1@@Z 10007a50 f i DXVAHDVideoProcessor.obj
 0001:00006a60       ??0D3DXMATRIX@@QAE@MMMMMMMMMMMMMMMM@Z 10007a60 f i DXVAHDVideoProcessor.obj
 0001:00006b10       ??$clamp@H@DispSvr@@YAHHHH@Z 10007b10 f i DXVAHDVideoProcessor.obj
 0001:00006b70       _fabsf                     10007b70 f i DXVAHDVideoProcessor.obj
 0001:00006b70       ?abs@@YAMM@Z               10007b70 f i DXVAHDVideoProcessor.obj
 0001:00006b90       ??0CDynLibManager@DispSvr@@QAE@XZ 10007b90 f   DynLibManager.obj
 0001:00006e70       ??1CDynLibManager@DispSvr@@QAE@XZ 10007e70 f   DynLibManager.obj
 0001:00006f40       ?LoadVideoEffect@CDynLibManager@DispSvr@@QAEXXZ 10007f40 f   DynLibManager.obj
 0001:00007020       ??0?$Singleton@VCDynLibManager@DispSvr@@@DispSvr@@QAE@XZ 10008020 f i DynLibManager.obj
 0001:00007030       ??1?$Singleton@VCDynLibManager@DispSvr@@@DispSvr@@QAE@XZ 10008030 f i DynLibManager.obj
 0001:00007040       ??0?$list@PAUHINSTANCE__@@V?$allocator@PAUHINSTANCE__@@@std@@@std@@QAE@XZ 10008040 f i DynLibManager.obj
 0001:00007060       ?push_back@?$list@PAUHINSTANCE__@@V?$allocator@PAUHINSTANCE__@@@std@@@std@@QAEXABQAUHINSTANCE__@@@Z 10008060 f i DynLibManager.obj
 0001:00007090       ?_Insert@?$list@PAUHINSTANCE__@@V?$allocator@PAUHINSTANCE__@@@std@@@std@@QAEXV?$_Iterator@$00@12@ABQAUHINSTANCE__@@@Z 10008090 f i DynLibManager.obj
 0001:000070c0       ?_Buynode@?$list@PAUHINSTANCE__@@V?$allocator@PAUHINSTANCE__@@@std@@@std@@IAEPAU_Node@?$_List_nod@PAUHINSTANCE__@@V?$allocator@PAUHINSTANCE__@@@std@@@2@XZ 100080c0 f i DynLibManager.obj
 0001:000070e0       ?_Buynode@?$list@PAUHINSTANCE__@@V?$allocator@PAUHINSTANCE__@@@std@@@std@@IAEPAU_Node@?$_List_nod@PAUHINSTANCE__@@V?$allocator@PAUHINSTANCE__@@@std@@@2@PAU342@0ABQAUHINSTANCE__@@@Z 100080e0 f i DynLibManager.obj
 0001:00007120       ?_Incsize@?$list@PAUHINSTANCE__@@V?$allocator@PAUHINSTANCE__@@@std@@@std@@IAEXI@Z 10008120 f i DynLibManager.obj
 0001:000071b0       ?allocate@?$allocator@U_Node@?$_List_nod@PAUHINSTANCE__@@V?$allocator@PAUHINSTANCE__@@@std@@@std@@@std@@QAEPAU_Node@?$_List_nod@PAUHINSTANCE__@@V?$allocator@PAUHINSTANCE__@@@std@@@2@I@Z 100081b0 f i DynLibManager.obj
 0001:000071c0       ?max_size@?$_Tree@V?$_Tset_traits@W4_D3DFORMAT@@U?$less@W4_D3DFORMAT@@@std@@V?$allocator@W4_D3DFORMAT@@@3@$0A@@std@@@std@@QBEIXZ 100081c0 f i DXVAHDVideoProcessor.obj
 0001:000071c0       ?max_size@?$allocator@PAVCVideoFrame@@@std@@QBEIXZ 100081c0 f i MixerControl.obj
 0001:000071c0       ?max_size@?$deque@PAUIMFSample@@V?$allocator@PAUIMFSample@@@std@@@std@@QBEIXZ 100081c0 f i VideoSourceEvr.obj
 0001:000071c0       ?max_size@?$vector@PAUIDisplayVideoSource@@V?$allocator@PAUIDisplayVideoSource@@@std@@@std@@QBEIXZ 100081c0 f i VideoSourceMgr.obj
 0001:000071c0       ?max_size@?$vector@PAVCVideoFrame@@V?$allocator@PAVCVideoFrame@@@std@@@std@@QBEIXZ 100081c0 f i MixerControl.obj
 0001:000071c0       ?max_size@?$allocator@W4_D3DFORMAT@@@std@@QBEIXZ 100081c0 f i DXVAHDVideoProcessor.obj
 0001:000071c0       ?max_size@?$allocator@PAUHINSTANCE__@@@std@@QBEIXZ 100081c0 f i DynLibManager.obj
 0001:000071c0       ?max_size@?$vector@PAUIDispSvrRenderEngineNotify@@V?$allocator@PAUIDispSvrRenderEngineNotify@@@std@@@std@@QBEIXZ 100081c0 f i RenderEngine.obj
 0001:000071c0       ?max_size@?$allocator@PAUIDisplayVideoSource@@@std@@QBEIXZ 100081c0 f i VideoSourceMgr.obj
 0001:000071c0       ?max_size@?$allocator@PAUIDispSvrRenderEngineNotify@@@std@@QBEIXZ 100081c0 f i RenderEngine.obj
 0001:000071c0       ?max_size@?$list@PAUHINSTANCE__@@V?$allocator@PAUHINSTANCE__@@@std@@@std@@QBEIXZ 100081c0 f i DynLibManager.obj
 0001:000071c0       ?max_size@?$allocator@PAUIMFSample@@@std@@QBEIXZ 100081c0 f i VideoSourceEvr.obj
 0001:000071d0       ??$_Allocate@U_Node@?$_List_nod@PAUHINSTANCE__@@V?$allocator@PAUHINSTANCE__@@@std@@@std@@@std@@YAPAU_Node@?$_List_nod@PAUHINSTANCE__@@V?$allocator@PAUHINSTANCE__@@@std@@@0@IPAU120@@Z 100081d0 f i DynLibManager.obj
 0001:000071d0       ??$_Allocate@U_Registry@CRegistryService@DispSvr@@@std@@YAPAU_Registry@CRegistryService@DispSvr@@IPAU123@@Z 100081d0 f i RegistryService.obj
 0001:00007220       ?GetHelper@CHDMIStereoModeHelper@@SAJPAPAV1@@Z 10008220 f   HDMIStereoModeHelper.obj
 0001:00007270       ?AddRef@CHDMIStereoModeHelper@@QAEKXZ 10008270 f   HDMIStereoModeHelper.obj
 0001:00007280       ?Release@CHDMIStereoModeHelper@@QAEKXZ 10008280 f   HDMIStereoModeHelper.obj
 0001:000072b0       ??0CHDMIStereoModeHelper@@QAE@XZ 100082b0 f   HDMIStereoModeHelper.obj
 0001:000072f0       ??_ECHDMIStereoModeHelper@@UAEPAXI@Z 100082f0 f i  CIL library: CIL module
 0001:000072f0       ??_GCHDMIStereoModeHelper@@UAEPAXI@Z 100082f0 f i HDMIStereoModeHelper.obj
 0001:00007310       ??1CHDMIStereoModeHelper@@UAE@XZ 10008310 f   HDMIStereoModeHelper.obj
 0001:00007320       ?UpdateVideoWindow@CHDMIStereoModeHelper@@QAEJPAUHWND__@@@Z 10008320 f   HDMIStereoModeHelper.obj
 0001:00007330       ?IsHDMIStereoModeSupported@CHDMIStereoModeHelper@@QAEHPAUDriverExtHDMIStereoModeCap@DispSvr@@@Z 10008330 f   HDMIStereoModeHelper.obj
 0001:00007380       ?IsHDMIStereoModeEnabled@CHDMIStereoModeHelper@@QAEHXZ 10008380 f   HDMIStereoModeHelper.obj
 0001:00007390       ?GetSelectedHDMIDisplayMode@CHDMIStereoModeHelper@@QAEJPAUDriverExtHDMIStereoModeCap@DispSvr@@@Z 10008390 f   HDMIStereoModeHelper.obj
 0001:000073c0       ?GetAppropriateHDMIDisplayMode@CHDMIStereoModeHelper@@QAEJPAUDriverExtHDMIStereoModeCap@DispSvr@@@Z 100083c0 f   HDMIStereoModeHelper.obj
 0001:00007520       ?EnableHDMIStereoMode@CHDMIStereoModeHelper@@QAEJHPAUDriverExtHDMIStereoModeCap@DispSvr@@PAH@Z 10008520 f   HDMIStereoModeHelper.obj
 0001:00007740       ?ReleaseHDMIStereoCaps@CHDMIStereoModeHelper@@IAEJXZ 10008740 f   HDMIStereoModeHelper.obj
 0001:00007760       ?QueryHDMIStereoMode@CHDMIStereoModeHelper@@IAEJXZ 10008760 f   HDMIStereoModeHelper.obj
 0001:00007810       ?SetDefaultDisplayMode@CHDMIStereoModeHelper@@QAEJPAUDriverExtHDMIStereoModeCap@DispSvr@@@Z 10008810 f   HDMIStereoModeHelper.obj
 0001:00007840       ?GetDefaultDisplayMode@CHDMIStereoModeHelper@@QAEJPAUDriverExtHDMIStereoModeCap@DispSvr@@@Z 10008840 f   HDMIStereoModeHelper.obj
 0001:00007870       ?UpdateContentFormat@CHDMIStereoModeHelper@@QAEJIII@Z 10008870 f   HDMIStereoModeHelper.obj
 0001:00007890       ?GetContentFormat@CHDMIStereoModeHelper@@QAEJPAI00@Z 10008890 f   HDMIStereoModeHelper.obj
 0001:000079c0       ?GetHelper@CIntelCUIHelper@DispSvr@@SAPAV12@XZ 100089c0 f   IntelCUISDKHelper.obj
 0001:000079f0       ??0CIntelCUIHelper@DispSvr@@AAE@XZ 100089f0 f   IntelCUISDKHelper.obj
 0001:00007a00       ?IsXVYCCMonitor@CIntelCUIHelper@DispSvr@@QAEJPAUHMONITOR__@@PAH@Z 10008a00 f   IntelCUISDKHelper.obj
 0001:00007b20       ?SetGamutMetadata@CIntelCUIHelper@DispSvr@@QAEJPAXK@Z 10008b20 f   IntelCUISDKHelper.obj
 0001:00007cf0       ??1IDriverExtensionAdapter@DispSvr@@UAE@XZ 10008cf0 f i IntelDxva2Device.obj
 0001:00007d00       ?ClearFrame@IParentDisplayObjectImpl@@UAGJXZ 10008d00 f i CompositeDO.obj
 0001:00007d00       ?QueryContentProtectionCaps@IDriverExtensionAdapter@DispSvr@@UAEJPAUDriverExtContentProtectionCaps@2@@Z 10008d00 f i IntelDxva2Device.obj
 0001:00007d00       ?TryLock@CVideoMixer@@UAGJXZ 10008d00 f i MixerControl.obj
 0001:00007d00       ?TryLock@CVideoSourceDO@@UAGJXZ 10008d00 f i VideoSourceDO.obj
 0001:00007d00       ?Render@CRenderEngine@@UAGJXZ 10008d00 f i RenderEngine.obj
 0001:00007d00       ?Clear@CD3D9VideoPresenterBase@DispSvr@@UAGJXZ 10008d00 f i D3D9VideoPresenterBase.obj
 0001:00007d00       ?SetDevice@IDriverExtensionAdapter@DispSvr@@UAEJPAUIDirect3DDevice9@@@Z 10008d00 f i IntelDxva2Device.obj
 0001:00007d00       ?BeginDeviceLoss@CWizard@@UAGJXZ 10008d00 f i Wizard.obj
 0001:00007d00       ?DisplayModeChanged@CVideoSourceEx@@UAGJXZ 10008d00 f i VideoSourceEx.obj
 0001:00007d10       ??_EIDriverExtensionAdapter@DispSvr@@UAEPAXI@Z 10008d10 f i  CIL library: CIL module
 0001:00007d10       ??_GIDriverExtensionAdapter@DispSvr@@UAEPAXI@Z 10008d10 f i IntelDxva2Device.obj
 0001:00007d30       ??0CIntelAuxiliaryDevice@DispSvr@@IAE@XZ 10008d30 f   IntelDxva2Device.obj
 0001:00007d60       ??_GCIntelAuxiliaryDevice@DispSvr@@UAEPAXI@Z 10008d60 f i IntelDxva2Device.obj
 0001:00007d60       ??_ECIntelAuxiliaryDevice@DispSvr@@UAEPAXI@Z 10008d60 f i  CIL library: CIL module
 0001:00007d80       ??0CIntelAuxiliaryDevice@DispSvr@@IAE@PAUIDirect3DDevice9@@@Z 10008d80 f   IntelDxva2Device.obj
 0001:00007de0       ??1CIntelAuxiliaryDevice@DispSvr@@UAE@XZ 10008de0 f   IntelDxva2Device.obj
 0001:00007e30       ?CreateAuxiliaryDevice@CIntelAuxiliaryDevice@DispSvr@@IAEJXZ 10008e30 f   IntelDxva2Device.obj
 0001:000080a0       ?CreateRegistrationDevice@CIntelAuxiliaryDevice@DispSvr@@QAEJPAPAVCIntelRegistrationDevice@2@@Z 100090a0 f   IntelDxva2Device.obj
 0001:000081b0       ??_GCIntelRegistrationDevice@DispSvr@@QAEPAXI@Z 100091b0 f i IntelDxva2Device.obj
 0001:000081d0       ?HasAccelGuids@CIntelAuxiliaryDevice@DispSvr@@QAEJABU_GUID@@PAH@Z 100091d0 f   IntelDxva2Device.obj
 0001:000082c0       ?QueryAccelGuids@CIntelAuxiliaryDevice@DispSvr@@QAEJPAPAU_GUID@@PAI@Z 100092c0 f   IntelDxva2Device.obj
 0001:00008370       ?QueryAccelRTFormats@CIntelAuxiliaryDevice@DispSvr@@QAEJPBU_GUID@@PAPAW4_D3DFORMAT@@PAI@Z 10009370 f   IntelDxva2Device.obj
 0001:00008420       ?QueryAccelFormats@CIntelAuxiliaryDevice@DispSvr@@QAEJPBU_GUID@@PAPAW4_D3DFORMAT@@PAI@Z 10009420 f   IntelDxva2Device.obj
 0001:000084d0       ?QueryAccelCaps@CIntelAuxiliaryDevice@DispSvr@@QAEJPBU_GUID@@PAXPAI@Z 100094d0 f   IntelDxva2Device.obj
 0001:000084f0       ?Execute@CIntelAuxiliaryDevice@DispSvr@@QAEJIPAXI0I@Z 100094f0 f   IntelDxva2Device.obj
 0001:00008540       ??0CIntelFastCompositingService@DispSvr@@IAE@PAUIDirect3DDevice9@@@Z 10009540 f   IntelDxva2Device.obj
 0001:00008580       ??_GCIntelFastCompositingService@DispSvr@@UAEPAXI@Z 10009580 f i IntelDxva2Device.obj
 0001:00008580       ??_ECIntelFastCompositingService@DispSvr@@UAEPAXI@Z 10009580 f i  CIL library: CIL module
 0001:000085a0       ??1CIntelFastCompositingService@DispSvr@@UAE@XZ 100095a0 f   IntelDxva2Device.obj
 0001:00008620       ?Create@CIntelFastCompositingService@DispSvr@@SAJPAUIDirect3DDevice9@@PAPAV12@@Z 10009620 f   IntelDxva2Device.obj
 0001:000086d0       ?Init@CIntelFastCompositingService@DispSvr@@IAEJXZ 100096d0 f   IntelDxva2Device.obj
 0001:00008840       ?FastCompositingBlt@CIntelFastCompositingService@DispSvr@@QAEJABUtagFASTCOMP_BLT_PARAMS@@@Z 10009840 f   IntelDxva2Device.obj
 0001:00008860       ?ApplyTargetRectRestriction@CIntelFastCompositingService@DispSvr@@QAEXAAUtagRECT@@@Z 10009860 f   IntelDxva2Device.obj
 0001:000088a0       ?QueryFormats@CIntelFastCompositingService@DispSvr@@IAEJPAPAUtagFASTCOMP_SAMPLE_FORMATS@@@Z 100098a0 f   IntelDxva2Device.obj
 0001:00008a30       ?QueryFrameRate@CIntelFastCompositingService@DispSvr@@IAEJHHHHHAAK@Z 10009a30 f   IntelDxva2Device.obj
 0001:00008aa0       ??0CIntelSCDService@DispSvr@@IAE@PAUIDirect3DDevice9@@@Z 10009aa0 f   IntelDxva2Device.obj
 0001:00008ad0       ??_ECIntelSCDService@DispSvr@@UAEPAXI@Z 10009ad0 f i  CIL library: CIL module
 0001:00008ad0       ??_GCIntelSCDService@DispSvr@@UAEPAXI@Z 10009ad0 f i IntelDxva2Device.obj
 0001:00008af0       ??1CIntelSCDService@DispSvr@@UAE@XZ 10009af0 f   IntelDxva2Device.obj
 0001:00008b90       ?Create@CIntelSCDService@DispSvr@@SAJPAUIDirect3DDevice9@@PAPAV12@@Z 10009b90 f   IntelDxva2Device.obj
 0001:00008c30       ?Init@CIntelSCDService@DispSvr@@IAEJXZ 10009c30 f   IntelDxva2Device.obj
 0001:00008d90       ?SetWindowPosition@CIntelSCDService@DispSvr@@QAEJABUtagRECT@@0PAUHDC__@@@Z 10009d90 f   IntelDxva2Device.obj
 0001:00008e10       ?UnscrambleSurface@CIntelSCDService@DispSvr@@QAEJPAXKK@Z 10009e10 f   IntelDxva2Device.obj
 0001:00008e50       ??0CIntelRegistrationDevice@DispSvr@@IAE@XZ 10009e50 f   IntelDxva2Device.obj
 0001:000090a0       ?RegisterSurfaces@CIntelRegistrationDevice@DispSvr@@QAEJPBUtagDXVA2_SURFACE_REGISTRATION@@@Z 1000a0a0 f   IntelDxva2Device.obj
 0001:00009140       ??0CIntelDxva2DriverExtAdapter@DispSvr@@AAE@XZ 1000a140 f   IntelDxva2Device.obj
 0001:00009160       ??_ECIntelDxva2DriverExtAdapter@DispSvr@@UAEPAXI@Z 1000a160 f i  CIL library: CIL module
 0001:00009160       ??_GCIntelDxva2DriverExtAdapter@DispSvr@@UAEPAXI@Z 1000a160 f i IntelDxva2Device.obj
 0001:00009180       ??0IDriverExtensionAdapter@DispSvr@@QAE@XZ 1000a180 f i IntelDxva2Device.obj
 0001:00009190       ??0CIntelDxva2DriverExtAdapter@DispSvr@@AAE@PAUIDirect3DDevice9@@@Z 1000a190 f   IntelDxva2Device.obj
 0001:00009200       ??1CIntelDxva2DriverExtAdapter@DispSvr@@UAE@XZ 1000a200 f   IntelDxva2Device.obj
 0001:00009260       ?GetAdapter@CIntelDxva2DriverExtAdapter@DispSvr@@SAJPAPAUIDriverExtensionAdapter@2@@Z 1000a260 f   IntelDxva2Device.obj
 0001:000092c0       ?AssignCapsToStream@@YAXKAAU_STREAM_PARAMETERS@@@Z 1000a2c0 f   IntelDxva2Device.obj
 0001:00009400       ?SetDevice@CIntelDxva2DriverExtAdapter@DispSvr@@UAEJPAUIDirect3DDevice9@@@Z 1000a400 f   IntelDxva2Device.obj
 0001:00009490       ?QueryPresenterCaps@CIntelDxva2DriverExtAdapter@DispSvr@@UAEJKPAUPresenterCaps@2@@Z 1000a490 f   IntelDxva2Device.obj
 0001:000095d0       ?QueryContentProtectionCaps@CIntelDxva2DriverExtAdapter@DispSvr@@UAEJPAUDriverExtContentProtectionCaps@2@@Z 1000a5d0 f   IntelDxva2Device.obj
 0001:00009630       ?QueryHDMIStereoModeCaps@CIntelDxva2DriverExtAdapter@DispSvr@@UAEJPAUHWND__@@PAPAUDriverExtHDMIStereoModeCap@2@PAI@Z 1000a630 f   IntelDxva2Device.obj
 0001:00009910       ?EnableHDMIStereoMode@CIntelDxva2DriverExtAdapter@DispSvr@@UAEJHPAUDriverExtHDMIStereoModeCap@2@PAH@Z 1000a910 f   IntelDxva2Device.obj
 0001:00009bf0       ?QueryAdapterInfo@CIntelDxva2DriverExtAdapter@DispSvr@@UAEJPAUHWND__@@PAUHMONITOR__@@PAUDrvExtAdapterInfo@2@@Z 1000abf0 f   IntelDxva2Device.obj
 0001:00009c30       ?GetPrimaryMonitorUID@CIntelDxva2DriverExtAdapter@DispSvr@@MAEJPAUICUIExternal8@@PAK@Z 1000ac30 f   IntelDxva2Device.obj
 0001:00009cb0       ??0CIntelAuxiliaryDeviceService@DispSvr@@IAE@PAUIDirect3DDevice9@@@Z 1000acb0 f   IntelDxva2Device.obj
 0001:00009cd0       ??_ECIntelAuxiliaryDeviceService@DispSvr@@UAEPAXI@Z 1000acd0 f i  CIL library: CIL module
 0001:00009cd0       ??_GCIntelAuxiliaryDeviceService@DispSvr@@UAEPAXI@Z 1000acd0 f i IntelDxva2Device.obj
 0001:00009cf0       ??1CIntelAuxiliaryDeviceService@DispSvr@@UAE@XZ 1000acf0 f   IntelDxva2Device.obj
 0001:00009d00       ?Create@CIntelAuxiliaryDeviceService@DispSvr@@SAJPAUIDirect3DDevice9@@PAPAV12@@Z 1000ad00 f   IntelDxva2Device.obj
 0001:00009da0       ??0?$map@PBUIDirect3DSurface9@@PAUNVDX_ObjectHandle__@@U?$less@PBUIDirect3DSurface9@@@std@@V?$allocator@U?$pair@QBUIDirect3DSurface9@@PAUNVDX_ObjectHandle__@@@std@@@4@@std@@QAE@XZ 1000ada0 f i NvAPIPresenter.obj
 0001:00009da0       ??0?$_Tree@V?$_Tmap_traits@$$CBKW4_PCOM_STEREOSCOPIC_FORMAT@@U?$less@$$CBK@std@@V?$allocator@U?$pair@$$CBKW4_PCOM_STEREOSCOPIC_FORMAT@@@std@@@3@$0A@@std@@@std@@QAE@ABU?$less@$$CBK@1@ABV?$allocator@U?$pair@$$CBKW4_PCOM_STEREOSCOPIC_FORMAT@@@std@@@1@@Z 1000ada0 f i AMDPCOMMixerPresenter.obj
 0001:00009da0       ??0?$map@$$CBKW4_PCOM_STEREOSCOPIC_FORMAT@@U?$less@$$CBK@std@@V?$allocator@U?$pair@$$CBKW4_PCOM_STEREOSCOPIC_FORMAT@@@std@@@3@@std@@QAE@XZ 1000ada0 f i AMDPCOMMixerPresenter.obj
 0001:00009da0       ??0?$map@$$CBKKU?$less@$$CBK@std@@V?$allocator@U?$pair@$$CBKK@std@@@2@@std@@QAE@XZ 1000ada0 f i AMDPCOMMixerPresenter.obj
 0001:00009da0       ??0?$_Tree@V?$_Tmap_traits@$$CBKKU?$less@$$CBK@std@@V?$allocator@U?$pair@$$CBKK@std@@@2@$0A@@std@@@std@@QAE@ABU?$less@$$CBK@1@ABV?$allocator@U?$pair@$$CBKK@std@@@1@@Z 1000ada0 f i AMDPCOMMixerPresenter.obj
 0001:00009da0       ??0?$_Tree@V?$_Tmap_traits@PBUIDirect3DSurface9@@PAUNVDX_ObjectHandle__@@U?$less@PBUIDirect3DSurface9@@@std@@V?$allocator@U?$pair@QBUIDirect3DSurface9@@PAUNVDX_ObjectHandle__@@@std@@@4@$0A@@std@@@std@@QAE@ABU?$less@PBUIDirect3DSurface9@@@1@ABV?$allocator@U?$pair@QBUIDirect3DSurface9@@PAUNVDX_ObjectHandle__@@@std@@@1@@Z 1000ada0 f i NvAPIPresenter.obj
 0001:00009da0       ??0?$map@KKU?$less@K@std@@V?$allocator@U?$pair@$$CBKK@std@@@2@@std@@QAE@XZ 1000ada0 f i IntelDxva2Device.obj
 0001:00009da0       ??0?$_Tree@V?$_Tmap_traits@KKU?$less@K@std@@V?$allocator@U?$pair@$$CBKK@std@@@2@$0A@@std@@@std@@QAE@ABU?$less@K@1@ABV?$allocator@U?$pair@$$CBKK@std@@@1@@Z 1000ada0 f i IntelDxva2Device.obj
 0001:00009dd0       ??1?$_Tree@V?$_Tmap_traits@$$CBKKU?$less@$$CBK@std@@V?$allocator@U?$pair@$$CBKK@std@@@2@$0A@@std@@@std@@QAE@XZ 1000add0 f i AMDPCOMMixerPresenter.obj
 0001:00009dd0       ?_Tidy@?$_Tree@V?$_Tmap_traits@$$CBKKU?$less@$$CBK@std@@V?$allocator@U?$pair@$$CBKK@std@@@2@$0A@@std@@@std@@IAEXXZ 1000add0 f i AMDPCOMMixerPresenter.obj
 0001:00009dd0       ??1?$_Tree@V?$_Tmap_traits@$$CBKW4_PCOM_STEREOSCOPIC_FORMAT@@U?$less@$$CBK@std@@V?$allocator@U?$pair@$$CBKW4_PCOM_STEREOSCOPIC_FORMAT@@@std@@@3@$0A@@std@@@std@@QAE@XZ 1000add0 f i AMDPCOMMixerPresenter.obj
 0001:00009dd0       ??1?$map@KKU?$less@K@std@@V?$allocator@U?$pair@$$CBKK@std@@@2@@std@@QAE@XZ 1000add0 f i IntelDxva2Device.obj
 0001:00009dd0       ?_Tidy@?$_Tree@V?$_Tmap_traits@PBUIDirect3DSurface9@@PAUNVDX_ObjectHandle__@@U?$less@PBUIDirect3DSurface9@@@std@@V?$allocator@U?$pair@QBUIDirect3DSurface9@@PAUNVDX_ObjectHandle__@@@std@@@4@$0A@@std@@@std@@IAEXXZ 1000add0 f i NvAPIPresenter.obj
 0001:00009dd0       ??1?$map@$$CBKKU?$less@$$CBK@std@@V?$allocator@U?$pair@$$CBKK@std@@@2@@std@@QAE@XZ 1000add0 f i AMDPCOMMixerPresenter.obj
 0001:00009dd0       ??1?$_Tree@V?$_Tmap_traits@KKU?$less@K@std@@V?$allocator@U?$pair@$$CBKK@std@@@2@$0A@@std@@@std@@QAE@XZ 1000add0 f i IntelDxva2Device.obj
 0001:00009dd0       ?_Tidy@?$_Tree@V?$_Tmap_traits@KKU?$less@K@std@@V?$allocator@U?$pair@$$CBKK@std@@@2@$0A@@std@@@std@@IAEXXZ 1000add0 f i IntelDxva2Device.obj
 0001:00009dd0       ??1?$map@$$CBKW4_PCOM_STEREOSCOPIC_FORMAT@@U?$less@$$CBK@std@@V?$allocator@U?$pair@$$CBKW4_PCOM_STEREOSCOPIC_FORMAT@@@std@@@3@@std@@QAE@XZ 1000add0 f i AMDPCOMMixerPresenter.obj
 0001:00009dd0       ?_Tidy@?$_Tree@V?$_Tmap_traits@$$CBKW4_PCOM_STEREOSCOPIC_FORMAT@@U?$less@$$CBK@std@@V?$allocator@U?$pair@$$CBKW4_PCOM_STEREOSCOPIC_FORMAT@@@std@@@3@$0A@@std@@@std@@IAEXXZ 1000add0 f i AMDPCOMMixerPresenter.obj
 0001:00009e10       ??0?$pair@$$CBKK@std@@QAE@ABK0@Z 1000ae10 f i IntelDxva2Device.obj
 0001:00009e10       ??0?$pair@QBUIDirect3DSurface9@@PAUNVDX_ObjectHandle__@@@std@@QAE@ABQBUIDirect3DSurface9@@ABQAUNVDX_ObjectHandle__@@@Z 1000ae10 f i NvAPIPresenter.obj
 0001:00009e10       ??0?$pair@$$CBKW4_PCOM_STEREOSCOPIC_FORMAT@@@std@@QAE@ABKABW4_PCOM_STEREOSCOPIC_FORMAT@@@Z 1000ae10 f i AMDPCOMMixerPresenter.obj
 0001:00009e10       ??0?$pair@PAUDisplayObjectInfo@IParentDisplayObjectImpl@@H@std@@QAE@ABQAUDisplayObjectInfo@IParentDisplayObjectImpl@@ABH@Z 1000ae10 f i CompositeDO.obj
 0001:00009e20       ?_Key@?$_Tree@V?$_Tset_traits@W4_D3DFORMAT@@U?$less@W4_D3DFORMAT@@@std@@V?$allocator@W4_D3DFORMAT@@@3@$0A@@std@@@std@@KAABW4_D3DFORMAT@@PAU_Node@?$_Tree_nod@V?$_Tset_traits@W4_D3DFORMAT@@U?$less@W4_D3DFORMAT@@@std@@V?$allocator@W4_D3DFORMAT@@@3@$0A@@std@@@2@@Z 1000ae20 f i DXVAHDVideoProcessor.obj
 0001:00009e20       ?_Myval@?$_Tree@V?$_Tmap_traits@W4PLANE_FORMAT@DispSvr@@UTextureCap@2@U?$less@W4PLANE_FORMAT@DispSvr@@@std@@V?$allocator@U?$pair@$$CBW4PLANE_FORMAT@DispSvr@@UTextureCap@2@@std@@@5@$0A@@std@@@std@@KAAAU?$pair@$$CBW4PLANE_FORMAT@DispSvr@@UTextureCap@2@@2@PAU_Node@?$_Tree_nod@V?$_Tmap_traits@W4PLANE_FORMAT@DispSvr@@UTextureCap@2@U?$less@W4PLANE_FORMAT@DispSvr@@@std@@V?$allocator@U?$pair@$$CBW4PLANE_FORMAT@DispSvr@@UTextureCap@2@@std@@@5@$0A@@std@@@2@@Z 1000ae20 f i D3D9TexturePool.obj
 0001:00009e20       ?_Key@?$_Tree@V?$_Tmap_traits@U_GUID@@UResourceGroup@CResourceManager@DispSvr@@U?$less@U_GUID@@@std@@V?$allocator@U?$pair@$$CBU_GUID@@UResourceGroup@CResourceManager@DispSvr@@@std@@@6@$0A@@std@@@std@@KAABU_GUID@@PAU_Node@?$_Tree_nod@V?$_Tmap_traits@U_GUID@@UResourceGroup@CResourceManager@DispSvr@@U?$less@U_GUID@@@std@@V?$allocator@U?$pair@$$CBU_GUID@@UResourceGroup@CResourceManager@DispSvr@@@std@@@6@$0A@@std@@@2@@Z 1000ae20 f i ResourceManager.obj
 0001:00009e20       ?_Myval@?$_Tree@V?$_Tset_traits@W4_D3DFORMAT@@U?$less@W4_D3DFORMAT@@@std@@V?$allocator@W4_D3DFORMAT@@@3@$0A@@std@@@std@@KAAAW4_D3DFORMAT@@PAU_Node@?$_Tree_nod@V?$_Tset_traits@W4_D3DFORMAT@@U?$less@W4_D3DFORMAT@@@std@@V?$allocator@W4_D3DFORMAT@@@3@$0A@@std@@@2@@Z 1000ae20 f i DXVAHDVideoProcessor.obj
 0001:00009e20       ?_Myval@?$_Tree@V?$_Tmap_traits@PAXUD3D9Texture@CD3D9TexturePool@DispSvr@@U?$less@PAX@std@@V?$allocator@U?$pair@QAXUD3D9Texture@CD3D9TexturePool@DispSvr@@@std@@@5@$0A@@std@@@std@@KAAAU?$pair@QAXUD3D9Texture@CD3D9TexturePool@DispSvr@@@2@PAU_Node@?$_Tree_nod@V?$_Tmap_traits@PAXUD3D9Texture@CD3D9TexturePool@DispSvr@@U?$less@PAX@std@@V?$allocator@U?$pair@QAXUD3D9Texture@CD3D9TexturePool@DispSvr@@@std@@@5@$0A@@std@@@2@@Z 1000ae20 f i D3D9TexturePool.obj
 0001:00009e20       ?_Myval@?$_Tree@V?$_Tmap_traits@PBUIDirect3DSurface9@@PAUNVDX_ObjectHandle__@@U?$less@PBUIDirect3DSurface9@@@std@@V?$allocator@U?$pair@QBUIDirect3DSurface9@@PAUNVDX_ObjectHandle__@@@std@@@4@$0A@@std@@@std@@KAAAU?$pair@QBUIDirect3DSurface9@@PAUNVDX_ObjectHandle__@@@2@PAU_Node@?$_Tree_nod@V?$_Tmap_traits@PBUIDirect3DSurface9@@PAUNVDX_ObjectHandle__@@U?$less@PBUIDirect3DSurface9@@@std@@V?$allocator@U?$pair@QBUIDirect3DSurface9@@PAUNVDX_ObjectHandle__@@@std@@@4@$0A@@std@@@2@@Z 1000ae20 f i NvAPIPresenter.obj
 0001:00009e20       ?_Key@?$_Tree@V?$_Tmap_traits@KKU?$less@K@std@@V?$allocator@U?$pair@$$CBKK@std@@@2@$0A@@std@@@std@@KAABKPAU_Node@?$_Tree_nod@V?$_Tmap_traits@KKU?$less@K@std@@V?$allocator@U?$pair@$$CBKK@std@@@2@$0A@@std@@@2@@Z 1000ae20 f i IntelDxva2Device.obj
 0001:00009e20       ?_Key@?$_Tree@V?$_Tmap_traits@PBUIDirect3DSurface9@@PAUNVDX_ObjectHandle__@@U?$less@PBUIDirect3DSurface9@@@std@@V?$allocator@U?$pair@QBUIDirect3DSurface9@@PAUNVDX_ObjectHandle__@@@std@@@4@$0A@@std@@@std@@KAABQBUIDirect3DSurface9@@PAU_Node@?$_Tree_nod@V?$_Tmap_traits@PBUIDirect3DSurface9@@PAUNVDX_ObjectHandle__@@U?$less@PBUIDirect3DSurface9@@@std@@V?$allocator@U?$pair@QBUIDirect3DSurface9@@PAUNVDX_ObjectHandle__@@@std@@@4@$0A@@std@@@2@@Z 1000ae20 f i NvAPIPresenter.obj
 0001:00009e20       ?_Myval@?$_Tree@V?$_Tmap_traits@U_GUID@@UResourceGroup@CResourceManager@DispSvr@@U?$less@U_GUID@@@std@@V?$allocator@U?$pair@$$CBU_GUID@@UResourceGroup@CResourceManager@DispSvr@@@std@@@6@$0A@@std@@@std@@KAAAU?$pair@$$CBU_GUID@@UResourceGroup@CResourceManager@DispSvr@@@2@PAU_Node@?$_Tree_nod@V?$_Tmap_traits@U_GUID@@UResourceGroup@CResourceManager@DispSvr@@U?$less@U_GUID@@@std@@V?$allocator@U?$pair@$$CBU_GUID@@UResourceGroup@CResourceManager@DispSvr@@@std@@@6@$0A@@std@@@2@@Z 1000ae20 f i ResourceManager.obj
 0001:00009e20       ?_Myval@?$_Tree@V?$_Tmap_traits@KKU?$less@K@std@@V?$allocator@U?$pair@$$CBKK@std@@@2@$0A@@std@@@std@@KAAAU?$pair@$$CBKK@2@PAU_Node@?$_Tree_nod@V?$_Tmap_traits@KKU?$less@K@std@@V?$allocator@U?$pair@$$CBKK@std@@@2@$0A@@std@@@2@@Z 1000ae20 f i IntelDxva2Device.obj
 0001:00009e20       ?_Key@?$_Tree@V?$_Tmap_traits@PAXUD3D9Texture@CD3D9TexturePool@DispSvr@@U?$less@PAX@std@@V?$allocator@U?$pair@QAXUD3D9Texture@CD3D9TexturePool@DispSvr@@@std@@@5@$0A@@std@@@std@@KAABQAXPAU_Node@?$_Tree_nod@V?$_Tmap_traits@PAXUD3D9Texture@CD3D9TexturePool@DispSvr@@U?$less@PAX@std@@V?$allocator@U?$pair@QAXUD3D9Texture@CD3D9TexturePool@DispSvr@@@std@@@5@$0A@@std@@@2@@Z 1000ae20 f i D3D9TexturePool.obj
 0001:00009e20       ?_Key@?$_Tree@V?$_Tmap_traits@$$CBKW4_PCOM_STEREOSCOPIC_FORMAT@@U?$less@$$CBK@std@@V?$allocator@U?$pair@$$CBKW4_PCOM_STEREOSCOPIC_FORMAT@@@std@@@3@$0A@@std@@@std@@KAABKPAU_Node@?$_Tree_nod@V?$_Tmap_traits@$$CBKW4_PCOM_STEREOSCOPIC_FORMAT@@U?$less@$$CBK@std@@V?$allocator@U?$pair@$$CBKW4_PCOM_STEREOSCOPIC_FORMAT@@@std@@@3@$0A@@std@@@2@@Z 1000ae20 f i AMDPCOMMixerPresenter.obj
 0001:00009e20       ?_Myval@?$_Tree@V?$_Tmap_traits@$$CBKKU?$less@$$CBK@std@@V?$allocator@U?$pair@$$CBKK@std@@@2@$0A@@std@@@std@@KAAAU?$pair@$$CBKK@2@PAU_Node@?$_Tree_nod@V?$_Tmap_traits@$$CBKKU?$less@$$CBK@std@@V?$allocator@U?$pair@$$CBKK@std@@@2@$0A@@std@@@2@@Z 1000ae20 f i AMDPCOMMixerPresenter.obj
 0001:00009e20       ?_Myval@?$_Tree@V?$_Tmap_traits@$$CBKW4_PCOM_STEREOSCOPIC_FORMAT@@U?$less@$$CBK@std@@V?$allocator@U?$pair@$$CBKW4_PCOM_STEREOSCOPIC_FORMAT@@@std@@@3@$0A@@std@@@std@@KAAAU?$pair@$$CBKW4_PCOM_STEREOSCOPIC_FORMAT@@@2@PAU_Node@?$_Tree_nod@V?$_Tmap_traits@$$CBKW4_PCOM_STEREOSCOPIC_FORMAT@@U?$less@$$CBK@std@@V?$allocator@U?$pair@$$CBKW4_PCOM_STEREOSCOPIC_FORMAT@@@std@@@3@$0A@@std@@@2@@Z 1000ae20 f i AMDPCOMMixerPresenter.obj
 0001:00009e20       ?_Key@?$_Tree@V?$_Tmap_traits@$$CBKKU?$less@$$CBK@std@@V?$allocator@U?$pair@$$CBKK@std@@@2@$0A@@std@@@std@@KAABKPAU_Node@?$_Tree_nod@V?$_Tmap_traits@$$CBKKU?$less@$$CBK@std@@V?$allocator@U?$pair@$$CBKK@std@@@2@$0A@@std@@@2@@Z 1000ae20 f i AMDPCOMMixerPresenter.obj
 0001:00009e20       ?_Key@?$_Tree@V?$_Tmap_traits@W4PLANE_FORMAT@DispSvr@@UTextureCap@2@U?$less@W4PLANE_FORMAT@DispSvr@@@std@@V?$allocator@U?$pair@$$CBW4PLANE_FORMAT@DispSvr@@UTextureCap@2@@std@@@5@$0A@@std@@@std@@KAABW4PLANE_FORMAT@DispSvr@@PAU_Node@?$_Tree_nod@V?$_Tmap_traits@W4PLANE_FORMAT@DispSvr@@UTextureCap@2@U?$less@W4PLANE_FORMAT@DispSvr@@@std@@V?$allocator@U?$pair@$$CBW4PLANE_FORMAT@DispSvr@@UTextureCap@2@@std@@@5@$0A@@std@@@2@@Z 1000ae20 f i D3D9TexturePool.obj
 0001:00009e30       ?begin@?$list@PAUHINSTANCE__@@V?$allocator@PAUHINSTANCE__@@@std@@@std@@QAE?AV?$_Iterator@$00@12@XZ 1000ae30 f i DynLibManager.obj
 0001:00009e30       ?begin@?$_Tree@V?$_Tset_traits@W4_D3DFORMAT@@U?$less@W4_D3DFORMAT@@@std@@V?$allocator@W4_D3DFORMAT@@@3@$0A@@std@@@std@@QAE?AViterator@12@XZ 1000ae30 f i DXVAHDVideoProcessor.obj
 0001:00009e30       ?begin@?$list@UClearRect@DispSvr@@V?$allocator@UClearRect@DispSvr@@@std@@@std@@QBE?AV?$_Const_iterator@$00@12@XZ 1000ae30 f i AMDPCOMMixerPresenter.obj
 0001:00009e30       ?begin@?$_Tree@V?$_Tmap_traits@$$CBKKU?$less@$$CBK@std@@V?$allocator@U?$pair@$$CBKK@std@@@2@$0A@@std@@@std@@QAE?AViterator@12@XZ 1000ae30 f i AMDPCOMMixerPresenter.obj
 0001:00009e30       ?begin@?$_Tree@V?$_Tmap_traits@$$CBKW4_PCOM_STEREOSCOPIC_FORMAT@@U?$less@$$CBK@std@@V?$allocator@U?$pair@$$CBKW4_PCOM_STEREOSCOPIC_FORMAT@@@std@@@3@$0A@@std@@@std@@QAE?AViterator@12@XZ 1000ae30 f i AMDPCOMMixerPresenter.obj
 0001:00009e30       ?begin@?$_Tree@V?$_Tmap_traits@PAXUD3D9Texture@CD3D9TexturePool@DispSvr@@U?$less@PAX@std@@V?$allocator@U?$pair@QAXUD3D9Texture@CD3D9TexturePool@DispSvr@@@std@@@5@$0A@@std@@@std@@QAE?AViterator@12@XZ 1000ae30 f i D3D9TexturePool.obj
 0001:00009e30       ?begin@?$_Tree@V?$_Tmap_traits@U_GUID@@UResourceGroup@CResourceManager@DispSvr@@U?$less@U_GUID@@@std@@V?$allocator@U?$pair@$$CBU_GUID@@UResourceGroup@CResourceManager@DispSvr@@@std@@@6@$0A@@std@@@std@@QAE?AViterator@12@XZ 1000ae30 f i ResourceManager.obj
 0001:00009e30       ?begin@?$_Tree@V?$_Tmap_traits@PBUIDirect3DSurface9@@PAUNVDX_ObjectHandle__@@U?$less@PBUIDirect3DSurface9@@@std@@V?$allocator@U?$pair@QBUIDirect3DSurface9@@PAUNVDX_ObjectHandle__@@@std@@@4@$0A@@std@@@std@@QAE?AViterator@12@XZ 1000ae30 f i NvAPIPresenter.obj
 0001:00009e30       ?begin@?$_Tree@V?$_Tmap_traits@W4PLANE_FORMAT@DispSvr@@UTextureCap@2@U?$less@W4PLANE_FORMAT@DispSvr@@@std@@V?$allocator@U?$pair@$$CBW4PLANE_FORMAT@DispSvr@@UTextureCap@2@@std@@@5@$0A@@std@@@std@@QAE?AViterator@12@XZ 1000ae30 f i D3D9TexturePool.obj
 0001:00009e30       ?begin@?$list@UPlugin@CResourceManager@DispSvr@@V?$allocator@UPlugin@CResourceManager@DispSvr@@@std@@@std@@QAE?AV?$_Iterator@$00@12@XZ 1000ae30 f i ResourceManager.obj
 0001:00009e30       ?begin@?$list@UVideoProcessorStub@DispSvr@@V?$allocator@UVideoProcessorStub@DispSvr@@@std@@@std@@QAE?AV?$_Iterator@$00@12@XZ 1000ae30 f i AMDPCOMMixerPresenter.obj
 0001:00009e30       ?begin@?$list@UD3D9Texture@CD3D9TexturePool@DispSvr@@V?$allocator@UD3D9Texture@CD3D9TexturePool@DispSvr@@@std@@@std@@QAE?AV?$_Iterator@$00@12@XZ 1000ae30 f i D3D9TexturePool.obj
 0001:00009e30       ?begin@?$_Tree@V?$_Tmap_traits@KUVideoSourceRate@CServerStateEventSink@DispSvr@@U?$less@K@std@@V?$allocator@U?$pair@$$CBKUVideoSourceRate@CServerStateEventSink@DispSvr@@@std@@@5@$0A@@std@@@std@@QAE?AViterator@12@XZ 1000ae30 f i ServerStateEventSink.obj
 0001:00009e30       ?begin@?$_Tree@V?$_Tmap_traits@KKU?$less@K@std@@V?$allocator@U?$pair@$$CBKK@std@@@2@$0A@@std@@@std@@QAE?AViterator@12@XZ 1000ae30 f i IntelDxva2Device.obj
 0001:00009e30       ?begin@?$list@T?$PlaneVB@UD3D9ClearRectVertex@DispSvr@@@DispSvr@@V?$allocator@T?$PlaneVB@UD3D9ClearRectVertex@DispSvr@@@DispSvr@@@std@@@std@@QAE?AV?$_Iterator@$00@12@XZ 1000ae30 f i D3D9VideoMixer.obj
 0001:00009e40       ?erase@?$_Tree@V?$_Tmap_traits@$$CBKKU?$less@$$CBK@std@@V?$allocator@U?$pair@$$CBKK@std@@@2@$0A@@std@@@std@@QAE?AViterator@12@V312@0@Z 1000ae40 f i AMDPCOMMixerPresenter.obj
 0001:00009e40       ?erase@?$_Tree@V?$_Tmap_traits@$$CBKW4_PCOM_STEREOSCOPIC_FORMAT@@U?$less@$$CBK@std@@V?$allocator@U?$pair@$$CBKW4_PCOM_STEREOSCOPIC_FORMAT@@@std@@@3@$0A@@std@@@std@@QAE?AViterator@12@V312@0@Z 1000ae40 f i AMDPCOMMixerPresenter.obj
 0001:00009e40       ?erase@?$_Tree@V?$_Tmap_traits@KKU?$less@K@std@@V?$allocator@U?$pair@$$CBKK@std@@@2@$0A@@std@@@std@@QAE?AViterator@12@V312@0@Z 1000ae40 f i IntelDxva2Device.obj
 0001:00009e40       ?erase@?$_Tree@V?$_Tmap_traits@PBUIDirect3DSurface9@@PAUNVDX_ObjectHandle__@@U?$less@PBUIDirect3DSurface9@@@std@@V?$allocator@U?$pair@QBUIDirect3DSurface9@@PAUNVDX_ObjectHandle__@@@std@@@4@$0A@@std@@@std@@QAE?AViterator@12@V312@0@Z 1000ae40 f i NvAPIPresenter.obj
 0001:00009f10       ?erase@?$_Tree@V?$_Tmap_traits@KKU?$less@K@std@@V?$allocator@U?$pair@$$CBKK@std@@@2@$0A@@std@@@std@@QAE?AViterator@12@V312@@Z 1000af10 f i IntelDxva2Device.obj
 0001:00009f10       ?erase@?$_Tree@V?$_Tmap_traits@PBUIDirect3DSurface9@@PAUNVDX_ObjectHandle__@@U?$less@PBUIDirect3DSurface9@@@std@@V?$allocator@U?$pair@QBUIDirect3DSurface9@@PAUNVDX_ObjectHandle__@@@std@@@4@$0A@@std@@@std@@QAE?AViterator@12@V312@@Z 1000af10 f i NvAPIPresenter.obj
 0001:00009f10       ?erase@?$_Tree@V?$_Tmap_traits@$$CBKKU?$less@$$CBK@std@@V?$allocator@U?$pair@$$CBKK@std@@@2@$0A@@std@@@std@@QAE?AViterator@12@V312@@Z 1000af10 f i AMDPCOMMixerPresenter.obj
 0001:00009f10       ?erase@?$_Tree@V?$_Tmap_traits@$$CBKW4_PCOM_STEREOSCOPIC_FORMAT@@U?$less@$$CBK@std@@V?$allocator@U?$pair@$$CBKW4_PCOM_STEREOSCOPIC_FORMAT@@@std@@@3@$0A@@std@@@std@@QAE?AViterator@12@V312@@Z 1000af10 f i AMDPCOMMixerPresenter.obj
 0001:0000a1d0       ?_Buynode@?$_Tree@V?$_Tmap_traits@KKU?$less@K@std@@V?$allocator@U?$pair@$$CBKK@std@@@2@$0A@@std@@@std@@IAEPAU_Node@?$_Tree_nod@V?$_Tmap_traits@KKU?$less@K@std@@V?$allocator@U?$pair@$$CBKK@std@@@2@$0A@@std@@@2@PAU342@00ABU?$pair@$$CBKK@2@D@Z 1000b1d0 f i IntelDxva2Device.obj
 0001:0000a1d0       ?_Buynode@?$_Tree@V?$_Tmap_traits@$$CBKKU?$less@$$CBK@std@@V?$allocator@U?$pair@$$CBKK@std@@@2@$0A@@std@@@std@@IAEPAU_Node@?$_Tree_nod@V?$_Tmap_traits@$$CBKKU?$less@$$CBK@std@@V?$allocator@U?$pair@$$CBKK@std@@@2@$0A@@std@@@2@PAU342@00ABU?$pair@$$CBKK@2@D@Z 1000b1d0 f i AMDPCOMMixerPresenter.obj
 0001:0000a1d0       ?_Buynode@?$_Tree@V?$_Tmap_traits@$$CBKW4_PCOM_STEREOSCOPIC_FORMAT@@U?$less@$$CBK@std@@V?$allocator@U?$pair@$$CBKW4_PCOM_STEREOSCOPIC_FORMAT@@@std@@@3@$0A@@std@@@std@@IAEPAU_Node@?$_Tree_nod@V?$_Tmap_traits@$$CBKW4_PCOM_STEREOSCOPIC_FORMAT@@U?$less@$$CBK@std@@V?$allocator@U?$pair@$$CBKW4_PCOM_STEREOSCOPIC_FORMAT@@@std@@@3@$0A@@std@@@2@PAU342@00ABU?$pair@$$CBKW4_PCOM_STEREOSCOPIC_FORMAT@@@2@D@Z 1000b1d0 f i AMDPCOMMixerPresenter.obj
 0001:0000a1d0       ?_Buynode@?$_Tree@V?$_Tmap_traits@PBUIDirect3DSurface9@@PAUNVDX_ObjectHandle__@@U?$less@PBUIDirect3DSurface9@@@std@@V?$allocator@U?$pair@QBUIDirect3DSurface9@@PAUNVDX_ObjectHandle__@@@std@@@4@$0A@@std@@@std@@IAEPAU_Node@?$_Tree_nod@V?$_Tmap_traits@PBUIDirect3DSurface9@@PAUNVDX_ObjectHandle__@@U?$less@PBUIDirect3DSurface9@@@std@@V?$allocator@U?$pair@QBUIDirect3DSurface9@@PAUNVDX_ObjectHandle__@@@std@@@4@$0A@@std@@@2@PAU342@00ABU?$pair@QBUIDirect3DSurface9@@PAUNVDX_ObjectHandle__@@@2@D@Z 1000b1d0 f i NvAPIPresenter.obj
 0001:0000a210       ?_Max@?$_Tree@V?$_Tmap_traits@$$CBKW4_PCOM_STEREOSCOPIC_FORMAT@@U?$less@$$CBK@std@@V?$allocator@U?$pair@$$CBKW4_PCOM_STEREOSCOPIC_FORMAT@@@std@@@3@$0A@@std@@@std@@KAPAU_Node@?$_Tree_nod@V?$_Tmap_traits@$$CBKW4_PCOM_STEREOSCOPIC_FORMAT@@U?$less@$$CBK@std@@V?$allocator@U?$pair@$$CBKW4_PCOM_STEREOSCOPIC_FORMAT@@@std@@@3@$0A@@std@@@2@PAU342@@Z 1000b210 f i AMDPCOMMixerPresenter.obj
 0001:0000a210       ?_Max@?$_Tree@V?$_Tmap_traits@KKU?$less@K@std@@V?$allocator@U?$pair@$$CBKK@std@@@2@$0A@@std@@@std@@KAPAU_Node@?$_Tree_nod@V?$_Tmap_traits@KKU?$less@K@std@@V?$allocator@U?$pair@$$CBKK@std@@@2@$0A@@std@@@2@PAU342@@Z 1000b210 f i IntelDxva2Device.obj
 0001:0000a210       ?_Max@?$_Tree@V?$_Tmap_traits@PBUIDirect3DSurface9@@PAUNVDX_ObjectHandle__@@U?$less@PBUIDirect3DSurface9@@@std@@V?$allocator@U?$pair@QBUIDirect3DSurface9@@PAUNVDX_ObjectHandle__@@@std@@@4@$0A@@std@@@std@@KAPAU_Node@?$_Tree_nod@V?$_Tmap_traits@PBUIDirect3DSurface9@@PAUNVDX_ObjectHandle__@@U?$less@PBUIDirect3DSurface9@@@std@@V?$allocator@U?$pair@QBUIDirect3DSurface9@@PAUNVDX_ObjectHandle__@@@std@@@4@$0A@@std@@@2@PAU342@@Z 1000b210 f i NvAPIPresenter.obj
 0001:0000a210       ?_Max@?$_Tree@V?$_Tmap_traits@$$CBKKU?$less@$$CBK@std@@V?$allocator@U?$pair@$$CBKK@std@@@2@$0A@@std@@@std@@KAPAU_Node@?$_Tree_nod@V?$_Tmap_traits@$$CBKKU?$less@$$CBK@std@@V?$allocator@U?$pair@$$CBKK@std@@@2@$0A@@std@@@2@PAU342@@Z 1000b210 f i AMDPCOMMixerPresenter.obj
 0001:0000a230       ??_ECIntelDxva2DriverExtAdapter@DispSvr@@W3AEPAXI@Z 1000b230 f i IntelDxva2Device.obj
 0001:0000a240       ??0__CUnknown@@QAE@XZ      1000b240 f i NvDxvaHDWrapper.obj
 0001:0000a250       ?QueryInterface@__CUnknown@@UAGJABU_GUID@@PAPAX@Z 1000b250 f i NvDxvaHDWrapper.obj
 0001:0000a290       ?Release@CDXVAHD_Device@@UAGKXZ 1000b290 f i NvDxvaHDWrapper.obj
 0001:0000a290       ?Release@__CUnknown@@UAGKXZ 1000b290 f i NvDxvaHDWrapper.obj
 0001:0000a290       ?Release@CDXVAHD_VideoProcessor@@UAGKXZ 1000b290 f i NvDxvaHDWrapper.obj
 0001:0000a2c0       ??0CDXVAHD_VideoProcessor@@QAE@PAVIDXVAHD_VideoProcessor@@@Z 1000b2c0 f i NvDxvaHDWrapper.obj
 0001:0000a2e0       ??1CDXVAHD_VideoProcessor@@UAE@XZ 1000b2e0 f i NvDxvaHDWrapper.obj
 0001:0000a360       ?QueryInterface@CDXVAHD_VideoProcessor@@UAGJABU_GUID@@PAPAX@Z 1000b360 f i NvDxvaHDWrapper.obj
 0001:0000a3e0       ?SetVideoProcessBltState@CDXVAHD_VideoProcessor@@UAGJW4_DXVAHD_BLT_STATE@@IPBX@Z 1000b3e0 f i NvDxvaHDWrapper.obj
 0001:0000a410       ?GetVideoProcessBltState@CDXVAHD_VideoProcessor@@UAGJW4_DXVAHD_BLT_STATE@@IPAX@Z 1000b410 f i NvDxvaHDWrapper.obj
 0001:0000a440       ?SetVideoProcessStreamState@CDXVAHD_VideoProcessor@@UAGJIW4_DXVAHD_STREAM_STATE@@IPBX@Z 1000b440 f i NvDxvaHDWrapper.obj
 0001:0000a470       ?GetVideoProcessStreamState@CDXVAHD_VideoProcessor@@UAGJIW4_DXVAHD_STREAM_STATE@@IPAX@Z 1000b470 f i NvDxvaHDWrapper.obj
 0001:0000a4a0       ?VideoProcessBltHD@CDXVAHD_VideoProcessor@@UAGJPAUIDirect3DSurface9@@IIPBU_DXVAHD_STREAM_DATA@@@Z 1000b4a0 f i NvDxvaHDWrapper.obj
 0001:0000a4d0       ?GetDevice@CDXVAHD_Device@@IBEPAVIDXVAHD_Device@@XZ 1000b4d0 f i NvDxvaHDWrapper.obj
 0001:0000a4d0       ?GetDevice@CD3D9Helper@@QAEPAUIUnknown@@XZ 1000b4d0 f i RenderEngine.obj
 0001:0000a4d0       ?GetVP@CDXVAHD_VideoProcessor@@IBEPAVIDXVAHD_VideoProcessor@@XZ 1000b4d0 f i NvDxvaHDWrapper.obj
 0001:0000a4e0       ??_GCDXVAHD_VideoProcessor@@UAEPAXI@Z 1000b4e0 f i NvDxvaHDWrapper.obj
 0001:0000a4e0       ??_ECDXVAHD_VideoProcessor@@UAEPAXI@Z 1000b4e0 f i  CIL library: CIL module
 0001:0000a500       ?CreateDevice@CDXVAHD_Device@@SAJPAUIDirect3DDevice9Ex@@PBU_DXVAHD_CONTENT_DESC@@W4_DXVAHD_DEVICE_USAGE@@PAPAX@Z 1000b500 f i NvDxvaHDWrapper.obj
 0001:0000a570       ??0CDXVAHD_Device@@QAE@PAVIDXVAHD_Device@@@Z 1000b570 f i NvDxvaHDWrapper.obj
 0001:0000a590       ??1CDXVAHD_Device@@UAE@XZ  1000b590 f i NvDxvaHDWrapper.obj
 0001:0000a5d0       ?QueryInterface@CDXVAHD_Device@@UAGJABU_GUID@@PAPAX@Z 1000b5d0 f i NvDxvaHDWrapper.obj
 0001:0000a650       ?CreateVideoSurface@CDXVAHD_Device@@UAGJIIW4_D3DFORMAT@@W4_D3DPOOL@@KW4_DXVAHD_SURFACE_TYPE@@IPAPAUIDirect3DSurface9@@PAPAX@Z 1000b650 f i NvDxvaHDWrapper.obj
 0001:0000a6a0       ?GetVideoProcessorDeviceCaps@CDXVAHD_Device@@UAGJPAU_DXVAHD_VPDEVCAPS@@@Z 1000b6a0 f i NvDxvaHDWrapper.obj
 0001:0000a6c0       ?GetVideoProcessorOutputFormats@CDXVAHD_Device@@UAGJIPAW4_D3DFORMAT@@@Z 1000b6c0 f i NvDxvaHDWrapper.obj
 0001:0000a700       ?GetVideoProcessorInputFormats@CDXVAHD_Device@@UAGJIPAW4_D3DFORMAT@@@Z 1000b700 f i NvDxvaHDWrapper.obj
 0001:0000a740       ?GetVideoProcessorCaps@CDXVAHD_Device@@UAGJIPAU_DXVAHD_VPCAPS@@@Z 1000b740 f i NvDxvaHDWrapper.obj
 0001:0000a770       ?GetVideoProcessorCustomRates@CDXVAHD_Device@@UAGJPBU_GUID@@IPAU_DXVAHD_CUSTOM_RATE_DATA@@@Z 1000b770 f i NvDxvaHDWrapper.obj
 0001:0000a790       ?GetVideoProcessorFilterRange@CDXVAHD_Device@@UAGJW4_DXVAHD_FILTER@@PAU_DXVAHD_FILTER_RANGE_DATA@@@Z 1000b790 f i NvDxvaHDWrapper.obj
 0001:0000a7d0       ?CreateVideoProcessor@CDXVAHD_Device@@UAGJPBU_GUID@@PAPAVIDXVAHD_VideoProcessor@@@Z 1000b7d0 f i NvDxvaHDWrapper.obj
 0001:0000a860       ??_ECDXVAHD_Device@@UAEPAXI@Z 1000b860 f i  CIL library: CIL module
 0001:0000a860       ??_GCDXVAHD_Device@@UAEPAXI@Z 1000b860 f i NvDxvaHDWrapper.obj
 0001:0000a8c0       _NV_DXVAHD_CreateDevice@16 1000b8c0 f   NvDxvaHDWrapper.obj
 0001:0000a8d0       ?Release@CDXVAHD_Device@@W7AGKXZ 1000b8d0 f i NvDxvaHDWrapper.obj
 0001:0000a8d0       ?Release@CDXVAHD_VideoProcessor@@W7AGKXZ 1000b8d0 f i NvDxvaHDWrapper.obj
 0001:0000a8e0       ?QueryInterface@CDXVAHD_VideoProcessor@@W7AGJABU_GUID@@PAPAX@Z 1000b8e0 f i NvDxvaHDWrapper.obj
 0001:0000a8f0       ?QueryInterface@CDXVAHD_Device@@W7AGJABU_GUID@@PAPAX@Z 1000b8f0 f i NvDxvaHDWrapper.obj
 0001:0000a900       ?AddRef@CDXVAHD_VideoProcessor@@W7AGKXZ 1000b900 f i NvDxvaHDWrapper.obj
 0001:0000a900       ?AddRef@CDXVAHD_Device@@W7AGKXZ 1000b900 f i NvDxvaHDWrapper.obj
 0001:0000ac40       ?EnableScreenCaptureDefense@@YAJPAUIDirect3DDevice9@@H@Z 1000bc40 f   ScreenCaptureDefense.obj
 0001:0000acc0       ??1CCritSec@@QAE@XZ        1000bcc0 f i DispSvr.obj
 0001:0000acd0       ??0Thank_you@Define_the_symbol__ATL_MIXED@@QAE@XZ 1000bcd0 f i DispSvr.obj
 0001:0000ace0       ??0CRenderClock@DispSvr@@QAE@XZ 1000bce0 f i DispSvr.obj
 0001:0000ad20       ??1CRegistryService@DispSvr@@QAE@XZ 1000bd20 f i DispSvr.obj
 0001:0000ad50       ??1CRenderClock@DispSvr@@QAE@XZ 1000bd50 f i DispSvr.obj
 0001:0000ad70       ??0?$TSingletonClassFactoryImpl@VCWizard@@@@QAE@XZ 1000bd70 f i DispSvr.obj
 0001:0000ada0       ??1?$TSingletonClassFactoryImpl@VCWizard@@@@UAE@XZ 1000bda0 f i DispSvr.obj
 0001:0000b230       ?DbgMsgInfo@@YAXPADZZ      1000c230 f   DispSvr.obj
 0001:0000b2e0       _DllMain@12                1000c2e0 f   DispSvr.obj
 0001:0000b310       _DllRegisterServer@0       1000c310 f   DispSvr.obj
 0001:0000b350       _DllUnregisterServer@0     1000c350 f   DispSvr.obj
 0001:0000b380       _DllGetClassObject@12      1000c380 f   DispSvr.obj
 0001:0000b3e0       _DllCanUnloadNow@0         1000c3e0 f   DispSvr.obj
 0001:0000b420       ??1?$Singleton@VCRegistryService@DispSvr@@@DispSvr@@QAE@XZ 1000c420 f i DispSvr.obj
 0001:0000b430       ?_Tidy@?$vector@U_Registry@CRegistryService@DispSvr@@V?$allocator@U_Registry@CRegistryService@DispSvr@@@std@@@std@@IAEXXZ 1000c430 f i DispSvr.obj
 0001:0000b430       ??1?$vector@U_Registry@CRegistryService@DispSvr@@V?$allocator@U_Registry@CRegistryService@DispSvr@@@std@@@std@@QAE@XZ 1000c430 f i DispSvr.obj
 0001:0000b470       ?GetObjectCount@?$CObjectCounter@VCWizard@@@DispSvr@@SAJXZ 1000c470 f i DispSvr.obj
 0001:0000b480       ?GetObjectCount@?$CObjectCounter@VCVideoMixer@@@DispSvr@@SAJXZ 1000c480 f i DispSvr.obj
 0001:0000b490       ?GetObjectCount@?$CObjectCounter@VCCompositeDisplayObject@@@DispSvr@@SAJXZ 1000c490 f i DispSvr.obj
 0001:0000b4a0       ?GetObjectCount@?$CObjectCounter@VCVideoRootDO@@@DispSvr@@SAJXZ 1000c4a0 f i DispSvr.obj
 0001:0000b4b0       ?GetObjectCount@?$CObjectCounter@VCServerStateDO@@@DispSvr@@SAJXZ 1000c4b0 f i DispSvr.obj
 0001:0000b4c0       ?GetObjectCount@?$CObjectCounter@VCShineDO@@@DispSvr@@SAJXZ 1000c4c0 f i DispSvr.obj
 0001:0000b4d0       ??0?$Singleton@VCRenderClock@DispSvr@@@DispSvr@@QAE@XZ 1000c4d0 f i DispSvr.obj
 0001:0000b4e0       ??1?$Singleton@VCRenderClock@DispSvr@@@DispSvr@@QAE@XZ 1000c4e0 f i DispSvr.obj
 0001:0000b4f0       ?GetObjectCount@?$CObjectCounter@VCVideoSourceDO@@@DispSvr@@SAJXZ 1000c4f0 f i DispSvr.obj
 0001:0000b500       ?GetObjectCount@?$CObjectCounter@VCRenderEngine@@@DispSvr@@SAJXZ 1000c500 f i DispSvr.obj
 0001:0000b510       ?CreateInstance@?$TSingletonClassFactoryImpl@VCWizard@@@@UAGJPAUIUnknown@@ABU_GUID@@PAPAX@Z 1000c510 f i DispSvr.obj
 0001:0000b550       ??0?$TClassFactoryImpl@VCWizard@@@@QAE@XZ 1000c550 f i DispSvr.obj
 0001:0000b580       ??1?$TClassFactoryImpl@VCWizard@@@@UAE@XZ 1000c580 f i DispSvr.obj
 0001:0000b590       ?QueryInterface@?$TClassFactoryImpl@VCVideoRootDO@@@@UAGJABU_GUID@@PAPAX@Z 1000c590 f i DispSvr.obj
 0001:0000b590       ?QueryInterface@?$TClassFactoryImpl@VCVideoMixer@@@@UAGJABU_GUID@@PAPAX@Z 1000c590 f i DispSvr.obj
 0001:0000b590       ?QueryInterface@?$TClassFactoryImpl@VCRenderEngine@@@@UAGJABU_GUID@@PAPAX@Z 1000c590 f i DispSvr.obj
 0001:0000b590       ?QueryInterface@?$TClassFactoryImpl@VCServerStateDO@@@@UAGJABU_GUID@@PAPAX@Z 1000c590 f i DispSvr.obj
 0001:0000b590       ?QueryInterface@?$TClassFactoryImpl@VCVideoSourceDO@@@@UAGJABU_GUID@@PAPAX@Z 1000c590 f i DispSvr.obj
 0001:0000b590       ?QueryInterface@?$TClassFactoryImpl@VCWizard@@@@UAGJABU_GUID@@PAPAX@Z 1000c590 f i DispSvr.obj
 0001:0000b590       ?QueryInterface@?$TClassFactoryImpl@VCCompositeDisplayObject@@@@UAGJABU_GUID@@PAPAX@Z 1000c590 f i DispSvr.obj
 0001:0000b590       ?QueryInterface@?$TClassFactoryImpl@VCShineDO@@@@UAGJABU_GUID@@PAPAX@Z 1000c590 f i DispSvr.obj
 0001:0000b600       ?CreateInstance@?$TClassFactoryImpl@VCWizard@@@@UAGJPAUIUnknown@@ABU_GUID@@PAPAX@Z 1000c600 f i DispSvr.obj
 0001:0000b680       ??0?$TClassFactoryImpl@VCRenderEngine@@@@QAE@XZ 1000c680 f i DispSvr.obj
 0001:0000b6b0       ??1?$TClassFactoryImpl@VCRenderEngine@@@@UAE@XZ 1000c6b0 f i DispSvr.obj
 0001:0000b6c0       ?CreateInstance@?$TClassFactoryImpl@VCRenderEngine@@@@UAGJPAUIUnknown@@ABU_GUID@@PAPAX@Z 1000c6c0 f i DispSvr.obj
 0001:0000b740       ?LockServer@?$TClassFactoryImpl@VCRenderEngine@@@@UAGJH@Z 1000c740 f i DispSvr.obj
 0001:0000b740       ?LockServer@?$TClassFactoryImpl@VCVideoRootDO@@@@UAGJH@Z 1000c740 f i DispSvr.obj
 0001:0000b740       ?LockServer@?$TClassFactoryImpl@VCVideoMixer@@@@UAGJH@Z 1000c740 f i DispSvr.obj
 0001:0000b740       ?LockServer@?$TClassFactoryImpl@VCShineDO@@@@UAGJH@Z 1000c740 f i DispSvr.obj
 0001:0000b740       ?LockServer@?$TClassFactoryImpl@VCWizard@@@@UAGJH@Z 1000c740 f i DispSvr.obj
 0001:0000b740       ?LockServer@?$TClassFactoryImpl@VCServerStateDO@@@@UAGJH@Z 1000c740 f i DispSvr.obj
 0001:0000b740       ?LockServer@?$TClassFactoryImpl@VCVideoSourceDO@@@@UAGJH@Z 1000c740 f i DispSvr.obj
 0001:0000b740       ?LockServer@?$TClassFactoryImpl@VCCompositeDisplayObject@@@@UAGJH@Z 1000c740 f i DispSvr.obj
 0001:0000b770       ??0?$TClassFactoryImpl@VCCompositeDisplayObject@@@@QAE@XZ 1000c770 f i DispSvr.obj
 0001:0000b7a0       ??1?$TClassFactoryImpl@VCCompositeDisplayObject@@@@UAE@XZ 1000c7a0 f i DispSvr.obj
 0001:0000b7b0       ?CreateInstance@?$TClassFactoryImpl@VCCompositeDisplayObject@@@@UAGJPAUIUnknown@@ABU_GUID@@PAPAX@Z 1000c7b0 f i DispSvr.obj
 0001:0000b840       ??0?$TClassFactoryImpl@VCServerStateDO@@@@QAE@XZ 1000c840 f i DispSvr.obj
 0001:0000b870       ??1?$TClassFactoryImpl@VCServerStateDO@@@@UAE@XZ 1000c870 f i DispSvr.obj
 0001:0000b880       ?CreateInstance@?$TClassFactoryImpl@VCServerStateDO@@@@UAGJPAUIUnknown@@ABU_GUID@@PAPAX@Z 1000c880 f i DispSvr.obj
 0001:0000b900       ??0?$TClassFactoryImpl@VCShineDO@@@@QAE@XZ 1000c900 f i DispSvr.obj
 0001:0000b930       ??1?$TClassFactoryImpl@VCShineDO@@@@UAE@XZ 1000c930 f i DispSvr.obj
 0001:0000b940       ?CreateInstance@?$TClassFactoryImpl@VCShineDO@@@@UAGJPAUIUnknown@@ABU_GUID@@PAPAX@Z 1000c940 f i DispSvr.obj
 0001:0000b9c0       ??0?$TClassFactoryImpl@VCVideoMixer@@@@QAE@XZ 1000c9c0 f i DispSvr.obj
 0001:0000b9f0       ??1?$TClassFactoryImpl@VCVideoMixer@@@@UAE@XZ 1000c9f0 f i DispSvr.obj
 0001:0000ba00       ?CreateInstance@?$TClassFactoryImpl@VCVideoMixer@@@@UAGJPAUIUnknown@@ABU_GUID@@PAPAX@Z 1000ca00 f i DispSvr.obj
 0001:0000ba80       ??0?$TClassFactoryImpl@VCVideoRootDO@@@@QAE@XZ 1000ca80 f i DispSvr.obj
 0001:0000bab0       ??1?$TClassFactoryImpl@VCVideoRootDO@@@@UAE@XZ 1000cab0 f i DispSvr.obj
 0001:0000bac0       ?CreateInstance@?$TClassFactoryImpl@VCVideoRootDO@@@@UAGJPAUIUnknown@@ABU_GUID@@PAPAX@Z 1000cac0 f i DispSvr.obj
 0001:0000bb50       ?GetLockCount@?$TClassFactoryImpl@VCServerStateDO@@@@UBGJXZ 1000cb50 f i DispSvr.obj
 0001:0000bb50       ?GetLockCount@?$TClassFactoryImpl@VCVideoMixer@@@@UBGJXZ 1000cb50 f i DispSvr.obj
 0001:0000bb50       ?GetLockCount@?$TClassFactoryImpl@VCVideoRootDO@@@@UBGJXZ 1000cb50 f i DispSvr.obj
 0001:0000bb50       ?GetLockCount@?$TClassFactoryImpl@VCRenderEngine@@@@UBGJXZ 1000cb50 f i DispSvr.obj
 0001:0000bb50       ?GetLockCount@?$TClassFactoryImpl@VCShineDO@@@@UBGJXZ 1000cb50 f i DispSvr.obj
 0001:0000bb50       ?GetLockCount@?$TClassFactoryImpl@VCWizard@@@@UBGJXZ 1000cb50 f i DispSvr.obj
 0001:0000bb50       ?GetLockCount@?$TClassFactoryImpl@VCCompositeDisplayObject@@@@UBGJXZ 1000cb50 f i DispSvr.obj
 0001:0000bb50       ?GetLockCount@?$TClassFactoryImpl@VCVideoSourceDO@@@@UBGJXZ 1000cb50 f i DispSvr.obj
 0001:0000bb60       ??0?$TClassFactoryImpl@VCVideoSourceDO@@@@QAE@XZ 1000cb60 f i DispSvr.obj
 0001:0000bb90       ??1?$TClassFactoryImpl@VCVideoSourceDO@@@@UAE@XZ 1000cb90 f i DispSvr.obj
 0001:0000bba0       ?AddRef@?$TClassFactoryImpl@VCVideoMixer@@@@UAGKXZ 1000cba0 f i DispSvr.obj
 0001:0000bba0       ?AddRef@?$TClassFactoryImpl@VCVideoRootDO@@@@UAGKXZ 1000cba0 f i DispSvr.obj
 0001:0000bba0       ?AddRef@?$TClassFactoryImpl@VCVideoSourceDO@@@@UAGKXZ 1000cba0 f i DispSvr.obj
 0001:0000bba0       ?AddRef@?$TClassFactoryImpl@VCShineDO@@@@UAGKXZ 1000cba0 f i DispSvr.obj
 0001:0000bba0       ?AddRef@CDXVAHD_VideoProcessor@@UAGKXZ 1000cba0 f i NvDxvaHDWrapper.obj
 0001:0000bba0       ?AddRef@__CUnknown@@UAGKXZ 1000cba0 f i NvDxvaHDWrapper.obj
 0001:0000bba0       ?AddRef@CDownsamplingEffect@@UAGKXZ 1000cba0 f i Downsampling.obj
 0001:0000bba0       ?AddRef@CDXVAHD_Device@@UAGKXZ 1000cba0 f i NvDxvaHDWrapper.obj
 0001:0000bba0       ?AddRef@?$TClassFactoryImpl@VCServerStateDO@@@@UAGKXZ 1000cba0 f i DispSvr.obj
 0001:0000bba0       ?AddRef@?$TClassFactoryImpl@VCCompositeDisplayObject@@@@UAGKXZ 1000cba0 f i DispSvr.obj
 0001:0000bba0       ?AddRef@?$TClassFactoryImpl@VCWizard@@@@UAGKXZ 1000cba0 f i DispSvr.obj
 0001:0000bba0       ?AddRef@?$TClassFactoryImpl@VCRenderEngine@@@@UAGKXZ 1000cba0 f i DispSvr.obj
 0001:0000bbc0       ?Release@?$TClassFactoryImpl@VCCompositeDisplayObject@@@@UAGKXZ 1000cbc0 f i DispSvr.obj
 0001:0000bbc0       ?Release@?$TClassFactoryImpl@VCVideoSourceDO@@@@UAGKXZ 1000cbc0 f i DispSvr.obj
 0001:0000bbc0       ?Release@?$TClassFactoryImpl@VCVideoMixer@@@@UAGKXZ 1000cbc0 f i DispSvr.obj
 0001:0000bbc0       ?Release@?$TClassFactoryImpl@VCRenderEngine@@@@UAGKXZ 1000cbc0 f i DispSvr.obj
 0001:0000bbc0       ?Release@?$TClassFactoryImpl@VCVideoRootDO@@@@UAGKXZ 1000cbc0 f i DispSvr.obj
 0001:0000bbc0       ?Release@?$TClassFactoryImpl@VCShineDO@@@@UAGKXZ 1000cbc0 f i DispSvr.obj
 0001:0000bbc0       ?Release@?$TClassFactoryImpl@VCServerStateDO@@@@UAGKXZ 1000cbc0 f i DispSvr.obj
 0001:0000bbc0       ?Release@?$TClassFactoryImpl@VCWizard@@@@UAGKXZ 1000cbc0 f i DispSvr.obj
 0001:0000bbf0       ?CreateInstance@?$TClassFactoryImpl@VCVideoSourceDO@@@@UAGJPAUIUnknown@@ABU_GUID@@PAPAX@Z 1000cbf0 f i DispSvr.obj
 0001:0000bc70       ??_E?$TClassFactoryImpl@VCWizard@@@@UAEPAXI@Z 1000cc70 f i  CIL library: CIL module
 0001:0000bc70       ??_E?$TSingletonClassFactoryImpl@VCWizard@@@@UAEPAXI@Z 1000cc70 f i  CIL library: CIL module
 0001:0000bc70       ??_G?$TClassFactoryImpl@VCWizard@@@@UAEPAXI@Z 1000cc70 f i DispSvr.obj
 0001:0000bc70       ??_G?$TSingletonClassFactoryImpl@VCWizard@@@@UAEPAXI@Z 1000cc70 f i DispSvr.obj
 0001:0000bc90       ??0IDispSvrClassFactory@@QAE@XZ 1000cc90 f i DispSvr.obj
 0001:0000bca0       ??_G?$TClassFactoryImpl@VCRenderEngine@@@@UAEPAXI@Z 1000cca0 f i DispSvr.obj
 0001:0000bca0       ??_E?$TClassFactoryImpl@VCRenderEngine@@@@UAEPAXI@Z 1000cca0 f i  CIL library: CIL module
 0001:0000bcc0       ??_G?$TClassFactoryImpl@VCCompositeDisplayObject@@@@UAEPAXI@Z 1000ccc0 f i DispSvr.obj
 0001:0000bcc0       ??_E?$TClassFactoryImpl@VCCompositeDisplayObject@@@@UAEPAXI@Z 1000ccc0 f i  CIL library: CIL module
 0001:0000bce0       ??_E?$TClassFactoryImpl@VCServerStateDO@@@@UAEPAXI@Z 1000cce0 f i  CIL library: CIL module
 0001:0000bce0       ??_G?$TClassFactoryImpl@VCServerStateDO@@@@UAEPAXI@Z 1000cce0 f i DispSvr.obj
 0001:0000bd00       ??_E?$TClassFactoryImpl@VCShineDO@@@@UAEPAXI@Z 1000cd00 f i  CIL library: CIL module
 0001:0000bd00       ??_G?$TClassFactoryImpl@VCShineDO@@@@UAEPAXI@Z 1000cd00 f i DispSvr.obj
 0001:0000bd20       ??_G?$TClassFactoryImpl@VCVideoMixer@@@@UAEPAXI@Z 1000cd20 f i DispSvr.obj
 0001:0000bd20       ??_E?$TClassFactoryImpl@VCVideoMixer@@@@UAEPAXI@Z 1000cd20 f i  CIL library: CIL module
 0001:0000bd40       ??_E?$TClassFactoryImpl@VCVideoRootDO@@@@UAEPAXI@Z 1000cd40 f i  CIL library: CIL module
 0001:0000bd40       ??_G?$TClassFactoryImpl@VCVideoRootDO@@@@UAEPAXI@Z 1000cd40 f i DispSvr.obj
 0001:0000bd60       ??_E?$TClassFactoryImpl@VCVideoSourceDO@@@@UAEPAXI@Z 1000cd60 f i  CIL library: CIL module
 0001:0000bd60       ??_G?$TClassFactoryImpl@VCVideoSourceDO@@@@UAEPAXI@Z 1000cd60 f i DispSvr.obj
 0001:0000bd80       ?GetInstance@?$Singleton@VCWizard@@@DispSvr@@SAPAVCWizard@@XZ 1000cd80 f i DispSvr.obj
 0001:0000bf00       ??0CVideoMixer@@QAE@PAUIUnknown@@PAJ@Z 1000cf00 f   MixerControl.obj
 0001:0000bff0       ??_ECVideoMixer@@UAEPAXI@Z 1000cff0 f i  CIL library: CIL module
 0001:0000bff0       ??_GCVideoMixer@@UAEPAXI@Z 1000cff0 f i MixerControl.obj
 0001:0000c010       ??1CVideoMixer@@UAE@XZ     1000d010 f   MixerControl.obj
 0001:0000c0f0       ?NonDelegatingQueryInterface@CVideoMixer@@UAGJABU_GUID@@PAPAX@Z 1000d0f0 f   MixerControl.obj
 0001:0000c210       ?GetRenderEngineOwner@CVideoMixer@@UAGJPAPAUIDisplayRenderEngine@@@Z 1000d210 f   MixerControl.obj
 0001:0000c250       ?Initialize@CVideoMixer@@UAGJPAUIDisplayRenderEngine@@@Z 1000d250 f   MixerControl.obj
 0001:0000c400       ?Terminate@CVideoMixer@@UAGJXZ 1000d400 f   MixerControl.obj
 0001:0000c600       ??_GCVideoFrame@@QAEPAXI@Z 1000d600 f i MixerControl.obj
 0001:0000c620       ?BeginDeviceLoss@CVideoMixer@@UAGJXZ 1000d620 f   MixerControl.obj
 0001:0000c650       ?EndDeviceLoss@CVideoMixer@@UAGJPAUIUnknown@@@Z 1000d650 f   MixerControl.obj
 0001:0000c670       ?ProcessMessage@CVideoMixer@@UAGJPAUHWND__@@IIJ@Z 1000d670 f   MixerControl.obj
 0001:0000c690       ?Render@CVideoMixer@@UAGJPAUIUnknown@@PBU_NORMALIZEDRECT@@@Z 1000d690 f   MixerControl.obj
 0001:0000cba0       ?MultiTextureRender@CVideoMixer@@UAGJPAUIUnknown@@JJPBU_NORMALIZEDRECT@@@Z 1000dba0 f   MixerControl.obj
 0001:0000d090       ?AddVideoSource@CVideoMixer@@UAGJPAUIBaseFilter@@PAPAUIDisplayVideoSource@@@Z 1000e090 f   MixerControl.obj
 0001:0000d0c0       ?RemoveVideoSource@CVideoMixer@@UAGJPAUIDisplayVideoSource@@@Z 1000e0c0 f   MixerControl.obj
 0001:0000d0f0       ?GetVideoSourceCount@CVideoMixer@@UAGJPAJ@Z 1000e0f0 f   MixerControl.obj
 0001:0000d120       ?GetVideoSourceByIndex@CVideoMixer@@UAGJJPAPAUIDisplayVideoSource@@@Z 1000e120 f   MixerControl.obj
 0001:0000d150       ?OnVideoSourceAdded@CVideoMixer@@UAGJPAUIDisplayVideoSource@@M@Z 1000e150 f   MixerControl.obj
 0001:0000d3a0       ??0CVideoFrame@@QAE@ABV0@@Z 1000e3a0 f i MixerControl.obj
 0001:0000d470       ?OnVideoSourceRemoved@CVideoMixer@@UAGJPAUIDisplayVideoSource@@@Z 1000e470 f   MixerControl.obj
 0001:0000d630       ?GetOutputRect@CVideoMixer@@UAGJPAUIDisplayVideoSource@@PAU_NORMALIZEDRECT@@@Z 1000e630 f   MixerControl.obj
 0001:0000d690       ?SetOutputRect@CVideoMixer@@UAGJPAUIDisplayVideoSource@@PAU_NORMALIZEDRECT@@@Z 1000e690 f   MixerControl.obj
 0001:0000d700       ?GetIdealOutputRect@CVideoMixer@@UAGJPAUIDisplayVideoSource@@KKPAU_NORMALIZEDRECT@@@Z 1000e700 f   MixerControl.obj
 0001:0000d750       ?GetZOrder@CVideoMixer@@UAGJPAUIDisplayVideoSource@@PAK@Z 1000e750 f   MixerControl.obj
 0001:0000d7a0       ?SetZOrder@CVideoMixer@@UAGJPAUIDisplayVideoSource@@K@Z 1000e7a0 f   MixerControl.obj
 0001:0000da40       ?GetAlpha@CVideoMixer@@UAGJPAUIDisplayVideoSource@@PAM@Z 1000ea40 f   MixerControl.obj
 0001:0000daa0       ?SetAlpha@CVideoMixer@@UAGJPAUIDisplayVideoSource@@M@Z 1000eaa0 f   MixerControl.obj
 0001:0000db90       ?GetCLSID@CVideoMixer@@UAGJPAU_GUID@@@Z 1000eb90 f   MixerControl.obj
 0001:0000dbd0       ?NotifyEvent@CVideoMixer@@UAGJKKKPAX@Z 1000ebd0 f   MixerControl.obj
 0001:0000dc40       ?GetTextureCount@CVideoMixer@@UAGJPAJ@Z 1000ec40 f   MixerControl.obj
 0001:0000dc80       ?GetTextureCoord@CVideoMixer@@UAGJJPAU_NORMALIZEDRECT@@@Z 1000ec80 f   MixerControl.obj
 0001:0000dd90       ?KeepAspectRatio@CVideoMixer@@UAGJPAUIDisplayVideoSource@@H@Z 1000ed90 f   MixerControl.obj
 0001:0000de00       ?Lock@CVideoMixer@@UAGJXZ  1000ee00 f   MixerControl.obj
 0001:0000de20       ?Unlock@CVideoMixer@@UAGJXZ 1000ee20 f   MixerControl.obj
 0001:0000de40       ?GetOutputRect@CVideoMixer@@UAGJPAU_NORMALIZEDRECT@@@Z 1000ee40 f   MixerControl.obj
 0001:0000deb0       ?SetOutputRect@CVideoMixer@@UAGJPAU_NORMALIZEDRECT@@@Z 1000eeb0 f   MixerControl.obj
 0001:0000df40       ?GetCropRect@CVideoMixer@@UAGJPAU_NORMALIZEDRECT@@@Z 1000ef40 f   MixerControl.obj
 0001:0000dfb0       ?SetCropRect@CVideoMixer@@UAGJPAU_NORMALIZEDRECT@@@Z 1000efb0 f   MixerControl.obj
 0001:0000e070       ?GetZoom@CVideoMixer@@UAGJPAU_NORMALIZEDRECT@@@Z 1000f070 f   MixerControl.obj
 0001:0000e0d0       ?SetZoom@CVideoMixer@@UAGJPAU_NORMALIZEDRECT@@@Z 1000f0d0 f   MixerControl.obj
 0001:0000e170       ?SetShow@CVideoMixer@@UAGJH@Z 1000f170 f   MixerControl.obj
 0001:0000e180       ?GetShow@CVideoMixer@@UAGJPAH@Z 1000f180 f   MixerControl.obj
 0001:0000e1a0       ?ClearFrame@CVideoMixer@@UAGJXZ 1000f1a0 f   MixerControl.obj
 0001:0000e340       ??0CVideoFrame@@QAE@XZ     1000f340 f   MixerControl.obj
 0001:0000e360       ??1CVideoFrame@@QAE@XZ     1000f360 f   MixerControl.obj
 0001:0000e390       ?Initialize@CVideoFrame@@QAEJPAUIDisplayVideoSource@@M@Z 1000f390 f   MixerControl.obj
 0001:0000e470       ?Reload@CVideoFrame@@QAEJPAUIDisplayVideoSource@@M@Z 1000f470 f   MixerControl.obj
 0001:0000e4d0       ?UpdateOutputRect@CVideoFrame@@QAEJPAUIDisplayRenderEngine@@AAU_NORMALIZEDRECT@@@Z 1000f4d0 f   MixerControl.obj
 0001:0000e4f0       ?UpdateVideoRect@CVideoFrame@@QAEJPAUIDisplayRenderEngine@@@Z 1000f4f0 f   MixerControl.obj
 0001:0000e7d0       ?AdjustVertexTexuture@CVideoFrame@@QAEXPAU_NORMALIZEDRECT@@0@Z 1000f7d0 f   MixerControl.obj
 0001:0000e950       ?ReleaseResource@CVideoFrame@@QAEXXZ 1000f950 f   MixerControl.obj
 0001:0000e970       ?Get3DDevice@CVideoMixer@@UAGJPAPAUIUnknown@@@Z 1000f970 f   MixerControl.obj
 0001:0000e990       ?GetVideoFrame@CVideoMixer@@AAEPAVCVideoFrame@@PAUIDisplayVideoSource@@@Z 1000f990 f   MixerControl.obj
 0001:0000ea10       ?BackupFrameState@CVideoMixer@@AAEXXZ 1000fa10 f   MixerControl.obj
 0001:0000ec10       ??0?$CObjectCounter@VCVideoMixer@@@DispSvr@@QAE@XZ 1000fc10 f i MixerControl.obj
 0001:0000ec30       ??1?$CObjectCounter@VCVideoMixer@@@DispSvr@@QAE@XZ 1000fc30 f i MixerControl.obj
 0001:0000ec40       ?begin@?$vector@PAVCVideoFrame@@V?$allocator@PAVCVideoFrame@@@std@@@std@@QAE?AV?$_Vector_iterator@PAVCVideoFrame@@V?$allocator@PAVCVideoFrame@@@std@@@2@XZ 1000fc40 f i MixerControl.obj
 0001:0000ec40       ?begin@?$vector@UDisplayObjectInfo@IParentDisplayObjectImpl@@V?$allocator@UDisplayObjectInfo@IParentDisplayObjectImpl@@@std@@@std@@QAE?AV?$_Vector_iterator@UDisplayObjectInfo@IParentDisplayObjectImpl@@V?$allocator@UDisplayObjectInfo@IParentDisplayObjectImpl@@@std@@@2@XZ 1000fc40 f i CompositeDO.obj
 0001:0000ec40       ?begin@?$vector@UEventHandler@CRenderEngine@@V?$allocator@UEventHandler@CRenderEngine@@@std@@@std@@QAE?AV?$_Vector_iterator@UEventHandler@CRenderEngine@@V?$allocator@UEventHandler@CRenderEngine@@@std@@@2@XZ 1000fc40 f i RenderEngine.obj
 0001:0000ec40       ?begin@?$vector@UCEvrVideoSample@CVideoSamplePool@@V?$allocator@UCEvrVideoSample@CVideoSamplePool@@@std@@@std@@QAE?AV?$_Vector_iterator@UCEvrVideoSample@CVideoSamplePool@@V?$allocator@UCEvrVideoSample@CVideoSamplePool@@@std@@@2@XZ 1000fc40 f i VideoSourceEvr.obj
 0001:0000ec40       ?begin@?$vector@PAUIDispSvrRenderEngineNotify@@V?$allocator@PAUIDispSvrRenderEngineNotify@@@std@@@std@@QAE?AV?$_Vector_iterator@PAUIDispSvrRenderEngineNotify@@V?$allocator@PAUIDispSvrRenderEngineNotify@@@std@@@2@XZ 1000fc40 f i RenderEngine.obj
 0001:0000ec40       ?begin@?$vector@UEffect@CD3D9VideoEffect3DManager@DispSvr@@V?$allocator@UEffect@CD3D9VideoEffect3DManager@DispSvr@@@std@@@std@@QAE?AV?$_Vector_iterator@UEffect@CD3D9VideoEffect3DManager@DispSvr@@V?$allocator@UEffect@CD3D9VideoEffect3DManager@DispSvr@@@std@@@2@XZ 1000fc40 f i D3D9VideoEffect3DManager.obj
 0001:0000ec40       ?begin@?$vector@PAUIDisplayVideoSource@@V?$allocator@PAUIDisplayVideoSource@@@std@@@std@@QAE?AV?$_Vector_iterator@PAUIDisplayVideoSource@@V?$allocator@PAUIDisplayVideoSource@@@std@@@2@XZ 1000fc40 f i VideoSourceMgr.obj
 0001:0000ec60       ??A?$vector@PAUIDisplayVideoSource@@V?$allocator@PAUIDisplayVideoSource@@@std@@@std@@QAEAAPAUIDisplayVideoSource@@I@Z 1000fc60 f i VideoSourceMgr.obj
 0001:0000ec60       ??A?$vector@PAVCVideoFrame@@V?$allocator@PAVCVideoFrame@@@std@@@std@@QAEAAPAVCVideoFrame@@I@Z 1000fc60 f i MixerControl.obj
 0001:0000ec80       ?front@?$vector@PAVCVideoFrame@@V?$allocator@PAVCVideoFrame@@@std@@@std@@QAEAAPAVCVideoFrame@@XZ 1000fc80 f i MixerControl.obj
 0001:0000eca0       ?clear@?$vector@PAVCVideoFrame@@V?$allocator@PAVCVideoFrame@@@std@@@std@@QAEXXZ 1000fca0 f i MixerControl.obj
 0001:0000ece0       ??0?$CComPtr@UIDisplayVideoSource@@@ATL@@QAE@ABV01@@Z 1000fce0 f i MixerControl.obj
 0001:0000ece0       ??0?$CComPtr@UIDisplayRenderEngine@@@ATL@@QAE@ABV01@@Z 1000fce0 f i MixerControl.obj
 0001:0000ece0       ??0?$CComPtr@UIDirect3DVertexBuffer9@@@ATL@@QAE@ABV01@@Z 1000fce0 f i MixerControl.obj
 0001:0000ed00       ??0?$CComQIPtr@UIDirect3DDevice9@@$1?_GUID_d0223b96_bf7a_43fd_92bd_a43b0d82b9eb@@3U__s_GUID@@B@ATL@@QAE@PAUIUnknown@@@Z 1000fd00 f i MixerControl.obj
 0001:0000ed20       ??E?$_Vector_iterator@PAVCVideoFrame@@V?$allocator@PAVCVideoFrame@@@std@@@std@@QAE?AV01@H@Z 1000fd20 f i MixerControl.obj
 0001:0000ed50       ??H?$_Vector_iterator@PAVCVideoFrame@@V?$allocator@PAVCVideoFrame@@@std@@@std@@QBE?AV01@H@Z 1000fd50 f i MixerControl.obj
 0001:0000ed50       ??H?$_Vector_iterator@PAUIDispSvrRenderEngineNotify@@V?$allocator@PAUIDispSvrRenderEngineNotify@@@std@@@std@@QBE?AV01@H@Z 1000fd50 f i RenderEngine.obj
 0001:0000ed50       ??H?$_Vector_iterator@PAUIDisplayVideoSource@@V?$allocator@PAUIDisplayVideoSource@@@std@@@std@@QBE?AV01@H@Z 1000fd50 f i VideoSourceMgr.obj
 0001:0000ed90       ??0?$CComQIPtr@UIDirect3DTexture9@@$1?_GUID_85c31227_3de5_4f00_9b3a_f11ac38c18b5@@3U__s_GUID@@B@ATL@@QAE@PAUIUnknown@@@Z 1000fd90 f i MixerControl.obj
 0001:0000edb0       ?capacity@?$vector@PAVCVideoFrame@@V?$allocator@PAVCVideoFrame@@@std@@@std@@QBEIXZ 1000fdb0 f i MixerControl.obj
 0001:0000edb0       ?capacity@?$vector@PAUIDisplayVideoSource@@V?$allocator@PAUIDisplayVideoSource@@@std@@@std@@QBEIXZ 1000fdb0 f i VideoSourceMgr.obj
 0001:0000edb0       ?capacity@?$vector@PAUIDispSvrRenderEngineNotify@@V?$allocator@PAUIDispSvrRenderEngineNotify@@@std@@@std@@QBEIXZ 1000fdb0 f i RenderEngine.obj
 0001:0000edd0       ?erase@?$vector@PAVCVideoFrame@@V?$allocator@PAVCVideoFrame@@@std@@@std@@QAE?AV?$_Vector_iterator@PAVCVideoFrame@@V?$allocator@PAVCVideoFrame@@@std@@@2@V32@0@Z 1000fdd0 f i MixerControl.obj
 0001:0000ee30       ?_Buy@?$vector@PAUIDispSvrRenderEngineNotify@@V?$allocator@PAUIDispSvrRenderEngineNotify@@@std@@@std@@IAE_NI@Z 1000fe30 f i RenderEngine.obj
 0001:0000ee30       ?_Buy@?$vector@PAUIDisplayVideoSource@@V?$allocator@PAUIDisplayVideoSource@@@std@@@std@@IAE_NI@Z 1000fe30 f i VideoSourceMgr.obj
 0001:0000ee30       ?_Buy@?$vector@PAVCVideoFrame@@V?$allocator@PAVCVideoFrame@@@std@@@std@@IAE_NI@Z 1000fe30 f i MixerControl.obj
 0001:0000ee60       ??$_Destroy@PAU_Node@?$_Tree_nod@V?$_Tmap_traits@PBUIDirect3DSurface9@@PAUNVDX_ObjectHandle__@@U?$less@PBUIDirect3DSurface9@@@std@@V?$allocator@U?$pair@QBUIDirect3DSurface9@@PAUNVDX_ObjectHandle__@@@std@@@4@$0A@@std@@@std@@@std@@YAXPAPAU_Node@?$_Tree_nod@V?$_Tmap_traits@PBUIDirect3DSurface9@@PAUNVDX_ObjectHandle__@@U?$less@PBUIDirect3DSurface9@@@std@@V?$allocator@U?$pair@QBUIDirect3DSurface9@@PAUNVDX_ObjectHandle__@@@std@@@4@$0A@@std@@@0@@Z 1000fe60 f i NvAPIPresenter.obj
 0001:0000ee60       ??$?0UVideoProcessorStub@DispSvr@@@?$allocator@PAU_Node@?$_List_nod@UVideoProcessorStub@DispSvr@@V?$allocator@UVideoProcessorStub@DispSvr@@@std@@@std@@@std@@QAE@ABV?$allocator@UVideoProcessorStub@DispSvr@@@1@@Z 1000fe60 f i D3D9VideoMixerBase.obj
 0001:0000ee60       ??$?0U?$pair@$$CBKK@std@@@?$allocator@U_Node@?$_Tree_nod@V?$_Tmap_traits@$$CBKKU?$less@$$CBK@std@@V?$allocator@U?$pair@$$CBKK@std@@@2@$0A@@std@@@std@@@std@@QAE@ABV?$allocator@U?$pair@$$CBKK@std@@@1@@Z 1000fe60 f i AMDPCOMMixerPresenter.obj
 0001:0000ee60       ??1CD3D9PluginBase@DispSvr@@MAE@XZ 1000fe60 f i D3D9PluginBase.obj
 0001:0000ee60       ??0?$allocator@U?$pair@QAXUD3D9Texture@CD3D9TexturePool@DispSvr@@@std@@@std@@QAE@ABV01@@Z 1000fe60 f i D3D9TexturePool.obj
 0001:0000ee60       ??0IDisplayRenderEngineProperty@@QAE@XZ 1000fe60 f i RenderEngine.obj
 0001:0000ee60       ??$_Destroy@UVideoReferenceSample@DispSvr@@@std@@YAXPAUVideoReferenceSample@DispSvr@@@Z 1000fe60 f i D3D9VideoPlane.obj
 0001:0000ee60       ??0IDisplayVideoSourceManager@@QAE@XZ 1000fe60 f i MixerControl.obj
 0001:0000ee60       ??0IDispSvrVideoEffect3DManager@@QAE@XZ 1000fe60 f i D3D9VideoEffect3DManager.obj
 0001:0000ee60       ??0__IDXVAHD_Device@@QAE@XZ 1000fe60 f i NvDxvaHDWrapper.obj
 0001:0000ee60       ??I?$CComPtrBase@UIDirect3DDeviceManager9@@@ATL@@QAEPAPAUIDirect3DDeviceManager9@@XZ 1000fe60 f i VideoSourceEvr.obj
 0001:0000ee60       ??$?0U?$pair@$$CBW4PLANE_FORMAT@DispSvr@@UTextureCap@2@@std@@@?$allocator@U_Node@?$_Tree_nod@V?$_Tmap_traits@W4PLANE_FORMAT@DispSvr@@UTextureCap@2@U?$less@W4PLANE_FORMAT@DispSvr@@@std@@V?$allocator@U?$pair@$$CBW4PLANE_FORMAT@DispSvr@@UTextureCap@2@@std@@@5@$0A@@std@@@std@@@std@@QAE@ABV?$allocator@U?$pair@$$CBW4PLANE_FORMAT@DispSvr@@UTextureCap@2@@std@@@1@@Z 1000fe60 f i D3D9TexturePool.obj
 0001:0000ee60       ??0IDispSvrVideoMixerVideoPlane@@QAE@XZ 1000fe60 f i D3D9VideoPlane.obj
 0001:0000ee60       ??1CVideoSourceDisplayHelper@@QAE@XZ 1000fe60 f i VideoSourcePropertyExtension.obj
 0001:0000ee60       ??0?$allocator@U?$pair@QBUIDirect3DSurface9@@PAUNVDX_ObjectHandle__@@@std@@@std@@QAE@ABV01@@Z 1000fe60 f i NvAPIPresenter.obj
 0001:0000ee60       ??I?$CComPtrBase@UIUnknown@@@ATL@@QAEPAPAUIUnknown@@XZ 1000fe60 f i MixerControl.obj
 0001:0000ee60       ??0IDisplayVideoSource@@QAE@XZ 1000fe60 f i VideoSource.obj
 0001:0000ee60       ??I?$CComPtrBase@UIDisplayVideoSourcePropertyExtension@@@ATL@@QAEPAPAUIDisplayVideoSourcePropertyExtension@@XZ 1000fe60 f i VideoSourceDO.obj
 0001:0000ee60       ??I?$CComPtrBase@UIDirect3DVertexBuffer9@@@ATL@@QAEPAPAUIDirect3DVertexBuffer9@@XZ 1000fe60 f i MixerControl.obj
 0001:0000ee60       ?_Left@?$_Tree@V?$_Tmap_traits@KUVideoSourceRate@CServerStateEventSink@DispSvr@@U?$less@K@std@@V?$allocator@U?$pair@$$CBKUVideoSourceRate@CServerStateEventSink@DispSvr@@@std@@@5@$0A@@std@@@std@@KAAAPAU_Node@?$_Tree_nod@V?$_Tmap_traits@KUVideoSourceRate@CServerStateEventSink@DispSvr@@U?$less@K@std@@V?$allocator@U?$pair@$$CBKUVideoSourceRate@CServerStateEventSink@DispSvr@@@std@@@5@$0A@@std@@@2@PAU342@@Z 1000fe60 f i ServerStateEventSink.obj
 0001:0000ee60       ??I?$CComPtrBase@UIMFMediaBuffer@@@ATL@@QAEPAPAUIMFMediaBuffer@@XZ 1000fe60 f i VideoSourceEvr.obj
 0001:0000ee60       ??$?0UPlugin@CResourceManager@DispSvr@@@?$allocator@PAU_Node@?$_List_nod@UPlugin@CResourceManager@DispSvr@@V?$allocator@UPlugin@CResourceManager@DispSvr@@@std@@@std@@@std@@QAE@ABV?$allocator@UPlugin@CResourceManager@DispSvr@@@1@@Z 1000fe60 f i ResourceManager.obj
 0001:0000ee60       ??0?$allocator@U?$pair@$$CBKW4_PCOM_STEREOSCOPIC_FORMAT@@@std@@@std@@QAE@ABV01@@Z 1000fe60 f i AMDPCOMMixerPresenter.obj
 0001:0000ee60       ??$_Iter_random@PAUEffect@CD3D9VideoEffect3DManager@DispSvr@@PAU123@@std@@YA?AUrandom_access_iterator_tag@0@ABQAUEffect@CD3D9VideoEffect3DManager@DispSvr@@0@Z 1000fe60 f i D3D9VideoEffect3DManager.obj
 0001:0000ee60       ??$_Destroy@PAU_Node@?$_Tree_nod@V?$_Tmap_traits@KUVideoSourceRate@CServerStateEventSink@DispSvr@@U?$less@K@std@@V?$allocator@U?$pair@$$CBKUVideoSourceRate@CServerStateEventSink@DispSvr@@@std@@@5@$0A@@std@@@std@@@std@@YAXPAPAU_Node@?$_Tree_nod@V?$_Tmap_traits@KUVideoSourceRate@CServerStateEventSink@DispSvr@@U?$less@K@std@@V?$allocator@U?$pair@$$CBKUVideoSourceRate@CServerStateEventSink@DispSvr@@@std@@@5@$0A@@std@@@0@@Z 1000fe60 f i ServerStateEventSink.obj
 0001:0000ee60       ?one@Thank_you@Define_the_symbol__ATL_MIXED@@UAEXXZ 1000fe60 f i DispSvr.obj
 0001:0000ee60       ??I?$CComPtrBase@UIVMRFilterConfig9@@@ATL@@QAEPAPAUIVMRFilterConfig9@@XZ 1000fe60 f i VideoSource.obj
 0001:0000ee60       ??0?$allocator@UDisplayObjectInfo@IParentDisplayObjectImpl@@@std@@QAE@XZ 1000fe60 f i CompositeDO.obj
 0001:0000ee60       ?destroy@?$allocator@PAU_Node@?$_Tree_nod@V?$_Tmap_traits@W4PLANE_FORMAT@DispSvr@@UTextureCap@2@U?$less@W4PLANE_FORMAT@DispSvr@@@std@@V?$allocator@U?$pair@$$CBW4PLANE_FORMAT@DispSvr@@UTextureCap@2@@std@@@5@$0A@@std@@@std@@@std@@QAEXPAPAU_Node@?$_Tree_nod@V?$_Tmap_traits@W4PLANE_FORMAT@DispSvr@@UTextureCap@2@U?$less@W4PLANE_FORMAT@DispSvr@@@std@@V?$allocator@U?$pair@$$CBW4PLANE_FORMAT@DispSvr@@UTextureCap@2@@std@@@5@$0A@@std@@@2@@Z 1000fe60 f i D3D9TexturePool.obj
 0001:0000ee60       ??$?0U?$pair@$$CBKK@std@@@?$allocator@PAU_Node@?$_Tree_nod@V?$_Tmap_traits@$$CBKKU?$less@$$CBK@std@@V?$allocator@U?$pair@$$CBKK@std@@@2@$0A@@std@@@std@@@std@@QAE@ABV?$allocator@U?$pair@$$CBKK@std@@@1@@Z 1000fe60 f i AMDPCOMMixerPresenter.obj
 0001:0000ee60       ??I?$CComPtrBase@UIDirect3DVertexShader9@@@ATL@@QAEPAPAUIDirect3DVertexShader9@@XZ 1000fe60 f i StereoVideoMixer.obj
 0001:0000ee60       ??$_Iter_cat@PAUDisplayObjectInfo@IParentDisplayObjectImpl@@@std@@YA?AUrandom_access_iterator_tag@0@ABQAUDisplayObjectInfo@IParentDisplayObjectImpl@@@Z 1000fe60 f i CompositeDO.obj
 0001:0000ee60       ?_Kfn@?$_Tmap_traits@PAXUD3D9Texture@CD3D9TexturePool@DispSvr@@U?$less@PAX@std@@V?$allocator@U?$pair@QAXUD3D9Texture@CD3D9TexturePool@DispSvr@@@std@@@5@$0A@@std@@SAABQAXABU?$pair@QAXUD3D9Texture@CD3D9TexturePool@DispSvr@@@2@@Z 1000fe60 f i D3D9TexturePool.obj
 0001:0000ee60       ?_Kfn@?$_Tmap_traits@$$CBKKU?$less@$$CBK@std@@V?$allocator@U?$pair@$$CBKK@std@@@2@$0A@@std@@SAABKABU?$pair@$$CBKK@2@@Z 1000fe60 f i AMDPCOMMixerPresenter.obj
 0001:0000ee60       ??0IDispSvrVideoMixerEventListener@@QAE@XZ 1000fe60 f i VideoSourceDO.obj
 0001:0000ee60       ??0?$allocator@UClearRect@DispSvr@@@std@@QAE@ABV01@@Z 1000fe60 f i D3D9VideoMixerModel.obj
 0001:0000ee60       ??$_Destroy_range@PAUIDisplayVideoSource@@V?$allocator@PAUIDisplayVideoSource@@@std@@@std@@YAXPAPAUIDisplayVideoSource@@0AAV?$allocator@PAUIDisplayVideoSource@@@0@U_Scalar_ptr_iterator_tag@0@@Z 1000fe60 f i VideoSourceMgr.obj
 0001:0000ee60       ??$_Destroy@PAU_Node@?$_List_nod@UVideoProcessorStub@DispSvr@@V?$allocator@UVideoProcessorStub@DispSvr@@@std@@@std@@@std@@YAXPAPAU_Node@?$_List_nod@UVideoProcessorStub@DispSvr@@V?$allocator@UVideoProcessorStub@DispSvr@@@std@@@0@@Z 1000fe60 f i AMDPCOMMixerPresenter.obj
 0001:0000ee60       ??$_Destroy_range@PAVCVideoFrame@@V?$allocator@PAVCVideoFrame@@@std@@@std@@YAXPAPAVCVideoFrame@@0AAV?$allocator@PAVCVideoFrame@@@0@U_Scalar_ptr_iterator_tag@0@@Z 1000fe60 f i MixerControl.obj
 0001:0000ee60       ??0IEvrSchedulerCallback@@QAE@XZ 1000fe60 f i VideoSourceMSEvr.obj
 0001:0000ee60       ??$_Destroy@U_Node@?$_List_nod@PAUHINSTANCE__@@V?$allocator@PAUHINSTANCE__@@@std@@@std@@@std@@YAXPAU_Node@?$_List_nod@PAUHINSTANCE__@@V?$allocator@PAUHINSTANCE__@@@std@@@0@@Z 1000fe60 f i DynLibManager.obj
 0001:0000ee60       ??$_Destroy@U_Registry@CRegistryService@DispSvr@@@std@@YAXPAU_Registry@CRegistryService@DispSvr@@@Z 1000fe60 f i DispSvr.obj
 0001:0000ee60       ??$_Iter_cat@PAPAUVideoReferenceSample@DispSvr@@@std@@YA?AUrandom_access_iterator_tag@0@ABQAPAUVideoReferenceSample@DispSvr@@@Z 1000fe60 f i D3D9VideoPlane.obj
 0001:0000ee60       ??$?0U?$pair@$$CBKK@std@@@?$allocator@U_Node@?$_Tree_nod@V?$_Tmap_traits@KKU?$less@K@std@@V?$allocator@U?$pair@$$CBKK@std@@@2@$0A@@std@@@std@@@std@@QAE@ABV?$allocator@U?$pair@$$CBKK@std@@@1@@Z 1000fe60 f i IntelDxva2Device.obj
 0001:0000ee60       ?_Destroy@?$vector@U_Registry@CRegistryService@DispSvr@@V?$allocator@U_Registry@CRegistryService@DispSvr@@@std@@@std@@IAEXPAU_Registry@CRegistryService@DispSvr@@0@Z 1000fe60 f i DispSvr.obj
 0001:0000ee60       ??0?$allocator@UCEvrVideoSample@CVideoSamplePool@@@std@@QAE@ABV01@@Z 1000fe60 f i VideoSourceEvr.obj
 0001:0000ee60       ?GetID@CVideoSource@@QAEKXZ 1000fe60 f i VideoSource.obj
 0001:0000ee60       ??0?$allocator@U?$pair@$$CBU_GUID@@UResourceGroup@CResourceManager@DispSvr@@@std@@@std@@QAE@ABV01@@Z 1000fe60 f i ResourceManager.obj
 0001:0000ee60       ?destroy@?$allocator@U_Node@?$_List_nod@PAUHINSTANCE__@@V?$allocator@PAUHINSTANCE__@@@std@@@std@@@std@@QAEXPAU_Node@?$_List_nod@PAUHINSTANCE__@@V?$allocator@PAUHINSTANCE__@@@std@@@2@@Z 1000fe60 f i DynLibManager.obj
 0001:0000ee60       ??0?$allocator@U_Registry@CRegistryService@DispSvr@@@std@@QAE@XZ 1000fe60 f i RegistryService.obj
 0001:0000ee60       ??0?$allocator@UClearRect@DispSvr@@@std@@QAE@XZ 1000fe60 f i D3D9VideoMixerModel.obj
 0001:0000ee60       ??0IDisplayLock@@QAE@XZ    1000fe60 f i MixerControl.obj
 0001:0000ee60       ??I?$CComPtrBase@UIDispSvrVideoPresenter@@@ATL@@QAEPAPAUIDispSvrVideoPresenter@@XZ 1000fe60 f i RenderEngine.obj
 0001:0000ee60       ??0IVMRSurfaceAllocator9@@QAE@XZ 1000fe60 f i VideoSource.obj
 0001:0000ee60       ??0?$allocator@UCEvrVideoSample@CVideoSamplePool@@@std@@QAE@XZ 1000fe60 f i VideoSourceEvr.obj
 0001:0000ee60       ??I?$CComPtrBase@UIDisplayRenderEngine@@@ATL@@QAEPAPAUIDisplayRenderEngine@@XZ 1000fe60 f i VideoSource.obj
 0001:0000ee60       ??I?$CComPtrBase@UIMediaEventSink@@@ATL@@QAEPAPAUIMediaEventSink@@XZ 1000fe60 f i EvrCustomMixer.obj
 0001:0000ee60       ??0IDisplayEventHost@@QAE@XZ 1000fe60 f i RenderEngine.obj
 0001:0000ee60       ??$_Iter_random@PAPAVCVideoFrame@@PAPAV1@@std@@YA?AUrandom_access_iterator_tag@0@ABQAPAVCVideoFrame@@0@Z 1000fe60 f i MixerControl.obj
 0001:0000ee60       ??0?$allocator@T?$PlaneVB@UD3D9ClearRectVertex@DispSvr@@@DispSvr@@@std@@QAE@ABV01@@Z 1000fe60 f i D3D9VideoMixer.obj
 0001:0000ee60       ??0?$allocator@T?$PlaneVB@UD3D9ClearRectVertex@DispSvr@@@DispSvr@@@std@@QAE@XZ 1000fe60 f i D3D9VideoMixer.obj
 0001:0000ee60       ?_Nextnode@?$list@PAUHINSTANCE__@@V?$allocator@PAUHINSTANCE__@@@std@@@std@@KAAAPAU_Node@?$_List_nod@PAUHINSTANCE__@@V?$allocator@PAUHINSTANCE__@@@std@@@2@PAU342@@Z 1000fe60 f i DynLibManager.obj
 0001:0000ee60       ?GetRegInt@DispSvr@@YAHPBDH@Z 1000fe60 f i DispSvr.obj
 0001:0000ee60       ??$?0U?$pair@QBUIDirect3DSurface9@@PAUNVDX_ObjectHandle__@@@std@@@?$allocator@PAU_Node@?$_Tree_nod@V?$_Tmap_traits@PBUIDirect3DSurface9@@PAUNVDX_ObjectHandle__@@U?$less@PBUIDirect3DSurface9@@@std@@V?$allocator@U?$pair@QBUIDirect3DSurface9@@PAUNVDX_ObjectHandle__@@@std@@@4@$0A@@std@@@std@@@std@@QAE@ABV?$allocator@U?$pair@QBUIDirect3DSurface9@@PAUNVDX_ObjectHandle__@@@std@@@1@@Z 1000fe60 f i NvAPIPresenter.obj
 0001:0000ee60       ??0IMFTopologyServiceLookupClient@@QAE@XZ 1000fe60 f i EvrCustomMixer.obj
 0001:0000ee60       ?_Left@?$_Tree@V?$_Tmap_traits@KKU?$less@K@std@@V?$allocator@U?$pair@$$CBKK@std@@@2@$0A@@std@@@std@@KAAAPAU_Node@?$_Tree_nod@V?$_Tmap_traits@KKU?$less@K@std@@V?$allocator@U?$pair@$$CBKK@std@@@2@$0A@@std@@@2@PAU342@@Z 1000fe60 f i IntelDxva2Device.obj
 0001:0000ee60       ?destroy@?$allocator@PAU_Node@?$_Tree_nod@V?$_Tmap_traits@$$CBKKU?$less@$$CBK@std@@V?$allocator@U?$pair@$$CBKK@std@@@2@$0A@@std@@@std@@@std@@QAEXPAPAU_Node@?$_Tree_nod@V?$_Tmap_traits@$$CBKKU?$less@$$CBK@std@@V?$allocator@U?$pair@$$CBKK@std@@@2@$0A@@std@@@2@@Z 1000fe60 f i AMDPCOMMixerPresenter.obj
 0001:0000ee60       ?_Kfn@?$_Tmap_traits@KUVideoSourceRate@CServerStateEventSink@DispSvr@@U?$less@K@std@@V?$allocator@U?$pair@$$CBKUVideoSourceRate@CServerStateEventSink@DispSvr@@@std@@@5@$0A@@std@@SAABKABU?$pair@$$CBKUVideoSourceRate@CServerStateEventSink@DispSvr@@@2@@Z 1000fe60 f i ServerStateEventSink.obj
 0001:0000ee60       ??I?$CComPtrBase@UIXVideoEffectManager@@@ATL@@QAEPAPAUIXVideoEffectManager@@XZ 1000fe60 f i D3D9VideoMixerBase.obj
 0001:0000ee60       ??1CIntelCUIHelper@DispSvr@@QAE@XZ 1000fe60 f i IntelCUISDKHelper.obj
 0001:0000ee60       ?_Left@?$_Tree@V?$_Tmap_traits@$$CBKKU?$less@$$CBK@std@@V?$allocator@U?$pair@$$CBKK@std@@@2@$0A@@std@@@std@@KAAAPAU_Node@?$_Tree_nod@V?$_Tmap_traits@$$CBKKU?$less@$$CBK@std@@V?$allocator@U?$pair@$$CBKK@std@@@2@$0A@@std@@@2@PAU342@@Z 1000fe60 f i AMDPCOMMixerPresenter.obj
 0001:0000ee60       ??I?$CComPtrBase@UIMFVideoRenderer@@@ATL@@QAEPAPAUIMFVideoRenderer@@XZ 1000fe60 f i VideoSourceEvr.obj
 0001:0000ee60       ??0IDisplayRenderEngine@@QAE@XZ 1000fe60 f i RenderEngine.obj
 0001:0000ee60       ??I?$CComPtrBase@UIDirectXVideoDecoderService@@@ATL@@QAEPAPAUIDirectXVideoDecoderService@@XZ 1000fe60 f i IntelDxva2Device.obj
 0001:0000ee60       ??$_Destroy_range@UEffect@CD3D9VideoEffect3DManager@DispSvr@@V?$allocator@UEffect@CD3D9VideoEffect3DManager@DispSvr@@@std@@@std@@YAXPAUEffect@CD3D9VideoEffect3DManager@DispSvr@@0AAV?$allocator@UEffect@CD3D9VideoEffect3DManager@DispSvr@@@0@U_Nonscalar_ptr_iterator_tag@0@@Z 1000fe60 f i D3D9VideoEffect3DManager.obj
 0001:0000ee60       ?destroy@?$allocator@PAUIMFSample@@@std@@QAEXPAPAUIMFSample@@@Z 1000fe60 f i VideoSourceEvr.obj
 0001:0000ee60       ??$_Iter_random@PAUDisplayObjectInfo@IParentDisplayObjectImpl@@PAU12@V?$_Temp_iterator@UDisplayObjectInfo@IParentDisplayObjectImpl@@@std@@@std@@YA?AUforward_iterator_tag@0@ABQAUDisplayObjectInfo@IParentDisplayObjectImpl@@0ABV?$_Temp_iterator@UDisplayObjectInfo@IParentDisplayObjectImpl@@@0@@Z 1000fe60 f i CompositeDO.obj
 0001:0000ee60       ??0IDispSvrVideoPresenter@@QAE@XZ 1000fe60 f i AMDPCOMMixerPresenter.obj
 0001:0000ee60       ??I?$CComPtrBase@UIDisplayOptimizedRender@@@ATL@@QAEPAPAUIDisplayOptimizedRender@@XZ 1000fe60 f i CompositeDO.obj
 0001:0000ee60       ??0IDisplayVideoSourcePropertyExtension@@QAE@XZ 1000fe60 f i VideoSourceEvr.obj
 0001:0000ee60       ??0?$allocator@W4_D3DFORMAT@@@std@@QAE@XZ 1000fe60 f i DXVAHDVideoProcessor.obj
 0001:0000ee60       ??0IDisplayObject@@QAE@XZ  1000fe60 f i MixerControl.obj
 0001:0000ee60       ??$_Iter_random@PAPAUIDisplayVideoSource@@PAPAU1@@std@@YA?AUrandom_access_iterator_tag@0@ABQAPAUIDisplayVideoSource@@0@Z 1000fe60 f i VideoSourceMgr.obj
 0001:0000ee60       ??I?$CComPtrBase@UIDirectXVideoAccelerationService@@@ATL@@QAEPAPAUIDirectXVideoAccelerationService@@XZ 1000fe60 f i NvDxva2HDMixerRender.obj
 0001:0000ee60       ?destroy@?$allocator@U_Node@?$_Tree_nod@V?$_Tmap_traits@PBUIDirect3DSurface9@@PAUNVDX_ObjectHandle__@@U?$less@PBUIDirect3DSurface9@@@std@@V?$allocator@U?$pair@QBUIDirect3DSurface9@@PAUNVDX_ObjectHandle__@@@std@@@4@$0A@@std@@@std@@@std@@QAEXPAU_Node@?$_Tree_nod@V?$_Tmap_traits@PBUIDirect3DSurface9@@PAUNVDX_ObjectHandle__@@U?$less@PBUIDirect3DSurface9@@@std@@V?$allocator@U?$pair@QBUIDirect3DSurface9@@PAUNVDX_ObjectHandle__@@@std@@@4@$0A@@std@@@2@@Z 1000fe60 f i NvAPIPresenter.obj
 0001:0000ee60       ??$_Destroy@UEffect@CD3D9VideoEffect3DManager@DispSvr@@@std@@YAXPAUEffect@CD3D9VideoEffect3DManager@DispSvr@@@Z 1000fe60 f i D3D9VideoEffect3DManager.obj
 0001:0000ee60       ??0?$allocator@UD3D9Texture@CD3D9TexturePool@DispSvr@@@std@@QAE@XZ 1000fe60 f i D3D9TexturePool.obj
 0001:0000ee60       ??R?$NoOp@PAUIMFSample@@@@QAEXAAPAUIMFSample@@@Z 1000fe60 f i EvrPresentScheduler.obj
 0001:0000ee60       ?_Destroy@?$vector@UDisplayObjectInfo@IParentDisplayObjectImpl@@V?$allocator@UDisplayObjectInfo@IParentDisplayObjectImpl@@@std@@@std@@IAEXPAUDisplayObjectInfo@IParentDisplayObjectImpl@@0@Z 1000fe60 f i CompositeDO.obj
 0001:0000ee60       ??0D3DXMATRIX@@QAE@XZ      1000fe60 f i D3D9Helper.obj
 0001:0000ee60       ??0IDispSvrVideoEffectManager@@QAE@XZ 1000fe60 f i PersistentInterfaceProxy.obj
 0001:0000ee60       ??$_Destroy@U_Node@?$_Tree_nod@V?$_Tmap_traits@PBUIDirect3DSurface9@@PAUNVDX_ObjectHandle__@@U?$less@PBUIDirect3DSurface9@@@std@@V?$allocator@U?$pair@QBUIDirect3DSurface9@@PAUNVDX_ObjectHandle__@@@std@@@4@$0A@@std@@@std@@@std@@YAXPAU_Node@?$_Tree_nod@V?$_Tmap_traits@PBUIDirect3DSurface9@@PAUNVDX_ObjectHandle__@@U?$less@PBUIDirect3DSurface9@@@std@@V?$allocator@U?$pair@QBUIDirect3DSurface9@@PAUNVDX_ObjectHandle__@@@std@@@4@$0A@@std@@@0@@Z 1000fe60 f i NvAPIPresenter.obj
 0001:0000ee60       ??0IDispSvrVideoEffect3DPlugin@@QAE@XZ 1000fe60 f i Downsampling.obj
 0001:0000ee60       ??0?$allocator@U?$pair@$$CBKK@std@@@std@@QAE@XZ 1000fe60 f i IntelDxva2Device.obj
 0001:0000ee60       ??I?$CComPtrBase@UIDisplayVideoSource@@@ATL@@QAEPAPAUIDisplayVideoSource@@XZ 1000fe60 f i MixerControl.obj
 0001:0000ee60       ??$?0U?$pair@$$CBU_GUID@@UResourceGroup@CResourceManager@DispSvr@@@std@@@?$allocator@PAU_Node@?$_Tree_nod@V?$_Tmap_traits@U_GUID@@UResourceGroup@CResourceManager@DispSvr@@U?$less@U_GUID@@@std@@V?$allocator@U?$pair@$$CBU_GUID@@UResourceGroup@CResourceManager@DispSvr@@@std@@@6@$0A@@std@@@std@@@std@@QAE@ABV?$allocator@U?$pair@$$CBU_GUID@@UResourceGroup@CResourceManager@DispSvr@@@std@@@1@@Z 1000fe60 f i ResourceManager.obj
 0001:0000ee60       ?destroy@?$allocator@PAU_Node@?$_Tree_nod@V?$_Tmap_traits@U_GUID@@UResourceGroup@CResourceManager@DispSvr@@U?$less@U_GUID@@@std@@V?$allocator@U?$pair@$$CBU_GUID@@UResourceGroup@CResourceManager@DispSvr@@@std@@@6@$0A@@std@@@std@@@std@@QAEXPAPAU_Node@?$_Tree_nod@V?$_Tmap_traits@U_GUID@@UResourceGroup@CResourceManager@DispSvr@@U?$less@U_GUID@@@std@@V?$allocator@U?$pair@$$CBU_GUID@@UResourceGroup@CResourceManager@DispSvr@@@std@@@6@$0A@@std@@@2@@Z 1000fe60 f i ResourceManager.obj
 0001:0000ee60       ?_Nextnode@?$list@UClearRect@DispSvr@@V?$allocator@UClearRect@DispSvr@@@std@@@std@@KAAAPAU_Node@?$_List_nod@UClearRect@DispSvr@@V?$allocator@UClearRect@DispSvr@@@std@@@2@PAU342@@Z 1000fe60 f i AMDPCOMMixerPresenter.obj
 0001:0000ee60       ??0?$allocator@U?$pair@$$CBKW4_PCOM_STEREOSCOPIC_FORMAT@@@std@@@std@@QAE@XZ 1000fe60 f i AMDPCOMMixerPresenter.obj
 0001:0000ee60       ??0IUnknown@@QAE@XZ        1000fe60 f i D3D9PluginBase.obj
 0001:0000ee60       ??$?0UD3D9Texture@CD3D9TexturePool@DispSvr@@@?$allocator@PAU_Node@?$_List_nod@UD3D9Texture@CD3D9TexturePool@DispSvr@@V?$allocator@UD3D9Texture@CD3D9TexturePool@DispSvr@@@std@@@std@@@std@@QAE@ABV?$allocator@UD3D9Texture@CD3D9TexturePool@DispSvr@@@1@@Z 1000fe60 f i D3D9TexturePool.obj
 0001:0000ee60       ??0IDisplayVideoSink@@QAE@XZ 1000fe60 f i MixerControl.obj
 0001:0000ee60       ??I?$CComPtrBase@UICUIExternal8@@@ATL@@QAEPAPAUICUIExternal8@@XZ 1000fe60 f i IntelCUISDKHelper.obj
 0001:0000ee60       ??$_Destroy_range@UEffect@CD3D9VideoEffect3DManager@DispSvr@@V?$allocator@UEffect@CD3D9VideoEffect3DManager@DispSvr@@@std@@@std@@YAXPAUEffect@CD3D9VideoEffect3DManager@DispSvr@@0AAV?$allocator@UEffect@CD3D9VideoEffect3DManager@DispSvr@@@0@@Z 1000fe60 f i D3D9VideoEffect3DManager.obj
 0001:0000ee60       ??0IDispSvrXVEManagerWrapper@@QAE@XZ 1000fe60 f i XVEManagerWrapper.obj
 0001:0000ee60       ??$_Destroy@U_Node@?$_List_nod@T?$PlaneVB@UD3D9ClearRectVertex@DispSvr@@@DispSvr@@V?$allocator@T?$PlaneVB@UD3D9ClearRectVertex@DispSvr@@@DispSvr@@@std@@@std@@@std@@YAXPAU_Node@?$_List_nod@T?$PlaneVB@UD3D9ClearRectVertex@DispSvr@@@DispSvr@@V?$allocator@T?$PlaneVB@UD3D9ClearRectVertex@DispSvr@@@DispSvr@@@std@@@0@@Z 1000fe60 f i D3D9VideoMixer.obj
 0001:0000ee60       ??0IMFVideoDisplayControl@@QAE@XZ 1000fe60 f i VideoSourceEvr.obj
 0001:0000ee60       ??0?$allocator@PAVCVideoFrame@@@std@@QAE@XZ 1000fe60 f i MixerControl.obj
 0001:0000ee60       ??0D3DXVECTOR3@@QAE@XZ     1000fe60 f i libd3d:d3dfont.obj
 0001:0000ee60       ??$_Destroy@U_Node@?$_Tree_nod@V?$_Tmap_traits@KKU?$less@K@std@@V?$allocator@U?$pair@$$CBKK@std@@@2@$0A@@std@@@std@@@std@@YAXPAU_Node@?$_Tree_nod@V?$_Tmap_traits@KKU?$less@K@std@@V?$allocator@U?$pair@$$CBKK@std@@@2@$0A@@std@@@0@@Z 1000fe60 f i IntelDxva2Device.obj
 0001:0000ee60       ??I?$CComPtrBase@UIDispSvrVideoMixerVideoPlane@@@ATL@@QAEPAPAUIDispSvrVideoMixerVideoPlane@@XZ 1000fe60 f i VideoSourceDO.obj
 0001:0000ee60       ??0?$allocator@PAUIDisplayVideoSource@@@std@@QAE@ABV01@@Z 1000fe60 f i VideoSourceMgr.obj
 0001:0000ee60       ?_Nextnode@?$list@UPlugin@CResourceManager@DispSvr@@V?$allocator@UPlugin@CResourceManager@DispSvr@@@std@@@std@@KAAAPAU_Node@?$_List_nod@UPlugin@CResourceManager@DispSvr@@V?$allocator@UPlugin@CResourceManager@DispSvr@@@std@@@2@PAU342@@Z 1000fe60 f i ResourceManager.obj
 0001:0000ee60       ??0?$allocator@U?$pair@QAXUD3D9Texture@CD3D9TexturePool@DispSvr@@@std@@@std@@QAE@XZ 1000fe60 f i D3D9TexturePool.obj
 0001:0000ee60       ??I?$CComPtrBase@UIDirect3DSwapChain9@@@ATL@@QAEPAPAUIDirect3DSwapChain9@@XZ 1000fe60 f i AMDPCOMMixerPresenter.obj
 0001:0000ee60       ??0IDisplayVideoMixer@@QAE@XZ 1000fe60 f i MixerControl.obj
 0001:0000ee60       ??I?$CComPtrBase@UIDisplayServerStateEventSink@@@ATL@@QAEPAPAUIDisplayServerStateEventSink@@XZ 1000fe60 f i ServerStateDO.obj
 0001:0000ee60       ??I?$CComPtrBase@UIMFSample@@@ATL@@QAEPAPAUIMFSample@@XZ 1000fe60 f i EvrPresentScheduler.obj
 0001:0000ee60       ??1CReaderWriterLock@@QAE@XZ 1000fe60 f i D3D9VideoMixerModel.obj
 0001:0000ee60       ??0?$allocator@PAVCVideoFrame@@@std@@QAE@ABV01@@Z 1000fe60 f i MixerControl.obj
 0001:0000ee60       ??0?$allocator@PAUHINSTANCE__@@@std@@QAE@ABV01@@Z 1000fe60 f i DynLibManager.obj
 0001:0000ee60       ?destroy@?$allocator@U_Node@?$_Tree_nod@V?$_Tset_traits@W4_D3DFORMAT@@U?$less@W4_D3DFORMAT@@@std@@V?$allocator@W4_D3DFORMAT@@@3@$0A@@std@@@std@@@std@@QAEXPAU_Node@?$_Tree_nod@V?$_Tset_traits@W4_D3DFORMAT@@U?$less@W4_D3DFORMAT@@@std@@V?$allocator@W4_D3DFORMAT@@@3@$0A@@std@@@2@@Z 1000fe60 f i DXVAHDVideoProcessor.obj
 0001:0000ee60       ??$_Destroy@PAUIMFSample@@@std@@YAXPAPAUIMFSample@@@Z 1000fe60 f i VideoSourceEvr.obj
 0001:0000ee60       ?_Destroy@?$vector@UEventHandler@CRenderEngine@@V?$allocator@UEventHandler@CRenderEngine@@@std@@@std@@IAEXPAUEventHandler@CRenderEngine@@0@Z 1000fe60 f i RenderEngine.obj
 0001:0000ee60       ??I?$CComPtrBase@UIDirect3DQuery9@@@ATL@@QAEPAPAUIDirect3DQuery9@@XZ 1000fe60 f i D3D9VideoPresenter.obj
 0001:0000ee60       ?destroy@?$allocator@U_Node@?$_List_nod@UClearRect@DispSvr@@V?$allocator@UClearRect@DispSvr@@@std@@@std@@@std@@QAEXPAU_Node@?$_List_nod@UClearRect@DispSvr@@V?$allocator@UClearRect@DispSvr@@@std@@@2@@Z 1000fe60 f i D3D9VideoMixerModel.obj
 0001:0000ee60       ??0IMFClockStateSink@@QAE@XZ 1000fe60 f i VideoSourceEvr.obj
 0001:0000ee60       ??D?$_Temp_iterator@UDisplayObjectInfo@IParentDisplayObjectImpl@@@std@@QAEAAV01@XZ 1000fe60 f i CompositeDO.obj
 0001:0000ee60       ??I?$CComPtrBase@UIDisplayObject@@@ATL@@QAEPAPAUIDisplayObject@@XZ 1000fe60 f i VideoSourceEvr.obj
 0001:0000ee60       ?destroy@?$allocator@PAU_Node@?$_List_nod@UPlugin@CResourceManager@DispSvr@@V?$allocator@UPlugin@CResourceManager@DispSvr@@@std@@@std@@@std@@QAEXPAPAU_Node@?$_List_nod@UPlugin@CResourceManager@DispSvr@@V?$allocator@UPlugin@CResourceManager@DispSvr@@@std@@@2@@Z 1000fe60 f i ResourceManager.obj
 0001:0000ee60       ??0?$allocator@PAUIMFSample@@@std@@QAE@XZ 1000fe60 f i VideoSourceEvr.obj
 0001:0000ee60       ??$_Destroy_range@PAVCVideoFrame@@V?$allocator@PAVCVideoFrame@@@std@@@std@@YAXPAPAVCVideoFrame@@0AAV?$allocator@PAVCVideoFrame@@@0@@Z 1000fe60 f i MixerControl.obj
 0001:0000ee60       ??$?0T?$PlaneVB@UD3D9ClearRectVertex@DispSvr@@@DispSvr@@@?$allocator@U_Node@?$_List_nod@T?$PlaneVB@UD3D9ClearRectVertex@DispSvr@@@DispSvr@@V?$allocator@T?$PlaneVB@UD3D9ClearRectVertex@DispSvr@@@DispSvr@@@std@@@std@@@std@@QAE@ABV?$allocator@T?$PlaneVB@UD3D9ClearRectVertex@DispSvr@@@DispSvr@@@1@@Z 1000fe60 f i D3D9VideoMixer.obj
 0001:0000ee60       ?destroy@?$allocator@PAU_Node@?$_List_nod@PAUHINSTANCE__@@V?$allocator@PAUHINSTANCE__@@@std@@@std@@@std@@QAEXPAPAU_Node@?$_List_nod@PAUHINSTANCE__@@V?$allocator@PAUHINSTANCE__@@@std@@@2@@Z 1000fe60 f i DynLibManager.obj
 0001:0000ee60       ?_Left@?$_Tree@V?$_Tmap_traits@$$CBKW4_PCOM_STEREOSCOPIC_FORMAT@@U?$less@$$CBK@std@@V?$allocator@U?$pair@$$CBKW4_PCOM_STEREOSCOPIC_FORMAT@@@std@@@3@$0A@@std@@@std@@KAAAPAU_Node@?$_Tree_nod@V?$_Tmap_traits@$$CBKW4_PCOM_STEREOSCOPIC_FORMAT@@U?$less@$$CBK@std@@V?$allocator@U?$pair@$$CBKW4_PCOM_STEREOSCOPIC_FORMAT@@@std@@@3@$0A@@std@@@2@PAU342@@Z 1000fe60 f i AMDPCOMMixerPresenter.obj
 0001:0000ee60       ??0?$allocator@UEffect@CD3D9VideoEffect3DManager@DispSvr@@@std@@QAE@XZ 1000fe60 f i D3D9VideoEffect3DManager.obj
 0001:0000ee60       ??$_Destroy@PAU_Node@?$_List_nod@UPlugin@CResourceManager@DispSvr@@V?$allocator@UPlugin@CResourceManager@DispSvr@@@std@@@std@@@std@@YAXPAPAU_Node@?$_List_nod@UPlugin@CResourceManager@DispSvr@@V?$allocator@UPlugin@CResourceManager@DispSvr@@@std@@@0@@Z 1000fe60 f i ResourceManager.obj
 0001:0000ee60       ?_Nextnode@?$list@T?$PlaneVB@UD3D9ClearRectVertex@DispSvr@@@DispSvr@@V?$allocator@T?$PlaneVB@UD3D9ClearRectVertex@DispSvr@@@DispSvr@@@std@@@std@@KAAAPAU_Node@?$_List_nod@T?$PlaneVB@UD3D9ClearRectVertex@DispSvr@@@DispSvr@@V?$allocator@T?$PlaneVB@UD3D9ClearRectVertex@DispSvr@@@DispSvr@@@std@@@2@PAU342@@Z 1000fe60 f i D3D9VideoMixer.obj
 0001:0000ee60       ??$?0U?$pair@QBUIDirect3DSurface9@@PAUNVDX_ObjectHandle__@@@std@@@?$allocator@U_Node@?$_Tree_nod@V?$_Tmap_traits@PBUIDirect3DSurface9@@PAUNVDX_ObjectHandle__@@U?$less@PBUIDirect3DSurface9@@@std@@V?$allocator@U?$pair@QBUIDirect3DSurface9@@PAUNVDX_ObjectHandle__@@@std@@@4@$0A@@std@@@std@@@std@@QAE@ABV?$allocator@U?$pair@QBUIDirect3DSurface9@@PAUNVDX_ObjectHandle__@@@std@@@1@@Z 1000fe60 f i NvAPIPresenter.obj
 0001:0000ee60       ??$_Destroy_range@UDisplayObjectInfo@IParentDisplayObjectImpl@@V?$allocator@UDisplayObjectInfo@IParentDisplayObjectImpl@@@std@@@std@@YAXPAUDisplayObjectInfo@IParentDisplayObjectImpl@@0AAV?$allocator@UDisplayObjectInfo@IParentDisplayObjectImpl@@@0@U_Nonscalar_ptr_iterator_tag@0@@Z 1000fe60 f i CompositeDO.obj
 0001:0000ee60       ?destroy@?$allocator@U_Node@?$_Tree_nod@V?$_Tmap_traits@KUVideoSourceRate@CServerStateEventSink@DispSvr@@U?$less@K@std@@V?$allocator@U?$pair@$$CBKUVideoSourceRate@CServerStateEventSink@DispSvr@@@std@@@5@$0A@@std@@@std@@@std@@QAEXPAU_Node@?$_Tree_nod@V?$_Tmap_traits@KUVideoSourceRate@CServerStateEventSink@DispSvr@@U?$less@K@std@@V?$allocator@U?$pair@$$CBKUVideoSourceRate@CServerStateEventSink@DispSvr@@@std@@@5@$0A@@std@@@2@@Z 1000fe60 f i ServerStateEventSink.obj
 0001:0000ee60       ?destroy@?$allocator@PAU_Node@?$_Tree_nod@V?$_Tmap_traits@PAXUD3D9Texture@CD3D9TexturePool@DispSvr@@U?$less@PAX@std@@V?$allocator@U?$pair@QAXUD3D9Texture@CD3D9TexturePool@DispSvr@@@std@@@5@$0A@@std@@@std@@@std@@QAEXPAPAU_Node@?$_Tree_nod@V?$_Tmap_traits@PAXUD3D9Texture@CD3D9TexturePool@DispSvr@@U?$less@PAX@std@@V?$allocator@U?$pair@QAXUD3D9Texture@CD3D9TexturePool@DispSvr@@@std@@@5@$0A@@std@@@2@@Z 1000fe60 f i D3D9TexturePool.obj
 0001:0000ee60       ??$_Destroy@PAU_Node@?$_Tree_nod@V?$_Tmap_traits@$$CBKW4_PCOM_STEREOSCOPIC_FORMAT@@U?$less@$$CBK@std@@V?$allocator@U?$pair@$$CBKW4_PCOM_STEREOSCOPIC_FORMAT@@@std@@@3@$0A@@std@@@std@@@std@@YAXPAPAU_Node@?$_Tree_nod@V?$_Tmap_traits@$$CBKW4_PCOM_STEREOSCOPIC_FORMAT@@U?$less@$$CBK@std@@V?$allocator@U?$pair@$$CBKW4_PCOM_STEREOSCOPIC_FORMAT@@@std@@@3@$0A@@std@@@0@@Z 1000fe60 f i AMDPCOMMixerPresenter.obj
 0001:0000ee60       ??0?$allocator@UVideoProcessorStub@DispSvr@@@std@@QAE@XZ 1000fe60 f i D3D9VideoMixerBase.obj
 0001:0000ee60       ??0?$allocator@UEffect@CD3D9VideoEffect3DManager@DispSvr@@@std@@QAE@ABV01@@Z 1000fe60 f i D3D9VideoEffect3DManager.obj
 0001:0000ee60       ?_Left@?$_Tree@V?$_Tmap_traits@PAXUD3D9Texture@CD3D9TexturePool@DispSvr@@U?$less@PAX@std@@V?$allocator@U?$pair@QAXUD3D9Texture@CD3D9TexturePool@DispSvr@@@std@@@5@$0A@@std@@@std@@KAAAPAU_Node@?$_Tree_nod@V?$_Tmap_traits@PAXUD3D9Texture@CD3D9TexturePool@DispSvr@@U?$less@PAX@std@@V?$allocator@U?$pair@QAXUD3D9Texture@CD3D9TexturePool@DispSvr@@@std@@@5@$0A@@std@@@2@PAU342@@Z 1000fe60 f i D3D9TexturePool.obj
 0001:0000ee60       ??0?$allocator@PAUIMFSample@@@std@@QAE@ABV01@@Z 1000fe60 f i VideoSourceEvr.obj
 0001:0000ee60       ?destroy@?$allocator@PAUVideoReferenceSample@DispSvr@@@std@@QAEXPAPAUVideoReferenceSample@DispSvr@@@Z 1000fe60 f i D3D9VideoMixerModel.obj
 0001:0000ee60       ?destroy@?$allocator@U_Node@?$_Tree_nod@V?$_Tmap_traits@KKU?$less@K@std@@V?$allocator@U?$pair@$$CBKK@std@@@2@$0A@@std@@@std@@@std@@QAEXPAU_Node@?$_Tree_nod@V?$_Tmap_traits@KKU?$less@K@std@@V?$allocator@U?$pair@$$CBKK@std@@@2@$0A@@std@@@2@@Z 1000fe60 f i IntelDxva2Device.obj
 0001:0000ee60       ??$_Iter_random@PAPAUIDispSvrRenderEngineNotify@@PAPAU1@@std@@YA?AUrandom_access_iterator_tag@0@ABQAPAUIDispSvrRenderEngineNotify@@0@Z 1000fe60 f i RenderEngine.obj
 0001:0000ee60       ??I?$CComPtrBase@UIDispSvrXVEManagerWrapper@@@ATL@@QAEPAPAUIDispSvrXVEManagerWrapper@@XZ 1000fe60 f i D3D9VideoMixerBase.obj
 0001:0000ee60       ??$_Destroy@PAU_Node@?$_Tree_nod@V?$_Tmap_traits@U_GUID@@UResourceGroup@CResourceManager@DispSvr@@U?$less@U_GUID@@@std@@V?$allocator@U?$pair@$$CBU_GUID@@UResourceGroup@CResourceManager@DispSvr@@@std@@@6@$0A@@std@@@std@@@std@@YAXPAPAU_Node@?$_Tree_nod@V?$_Tmap_traits@U_GUID@@UResourceGroup@CResourceManager@DispSvr@@U?$less@U_GUID@@@std@@V?$allocator@U?$pair@$$CBU_GUID@@UResourceGroup@CResourceManager@DispSvr@@@std@@@6@$0A@@std@@@0@@Z 1000fe60 f i ResourceManager.obj
 0001:0000ee60       ??$_Destroy@PAU_Node@?$_List_nod@UClearRect@DispSvr@@V?$allocator@UClearRect@DispSvr@@@std@@@std@@@std@@YAXPAPAU_Node@?$_List_nod@UClearRect@DispSvr@@V?$allocator@UClearRect@DispSvr@@@std@@@0@@Z 1000fe60 f i D3D9VideoMixerModel.obj
 0001:0000ee60       ??$?0UD3D9Texture@CD3D9TexturePool@DispSvr@@@?$allocator@U_Node@?$_List_nod@UD3D9Texture@CD3D9TexturePool@DispSvr@@V?$allocator@UD3D9Texture@CD3D9TexturePool@DispSvr@@@std@@@std@@@std@@QAE@ABV?$allocator@UD3D9Texture@CD3D9TexturePool@DispSvr@@@1@@Z 1000fe60 f i D3D9TexturePool.obj
 0001:0000ee60       ??0IDispSvrDbg@@QAE@XZ     1000fe60 f i DispSvrDebug.obj
 0001:0000ee60       ??0IDispSvrDriverExtension@@QAE@XZ 1000fe60 f i DriverExtensionPlugin.obj
 0001:0000ee60       ??0IDisplayOptimizedRender@@QAE@XZ 1000fe60 f i MixerControl.obj
 0001:0000ee60       ??$?0U?$pair@$$CBKUVideoSourceRate@CServerStateEventSink@DispSvr@@@std@@@?$allocator@U_Node@?$_Tree_nod@V?$_Tmap_traits@KUVideoSourceRate@CServerStateEventSink@DispSvr@@U?$less@K@std@@V?$allocator@U?$pair@$$CBKUVideoSourceRate@CServerStateEventSink@DispSvr@@@std@@@5@$0A@@std@@@std@@@std@@QAE@ABV?$allocator@U?$pair@$$CBKUVideoSourceRate@CServerStateEventSink@DispSvr@@@std@@@1@@Z 1000fe60 f i ServerStateEventSink.obj
 0001:0000ee60       ??0IDispSvrVideoMixer@@QAE@XZ 1000fe60 f i PersistentInterfaceProxy.obj
 0001:0000ee60       ??I?$CComPtrBase@UIDirect3DPixelShader9@@@ATL@@QAEPAPAUIDirect3DPixelShader9@@XZ 1000fe60 f i D3D9VideoMixer.obj
 0001:0000ee60       ?_Destroy@?$vector@PAVCVideoFrame@@V?$allocator@PAVCVideoFrame@@@std@@@std@@IAEXPAPAVCVideoFrame@@0@Z 1000fe60 f i MixerControl.obj
 0001:0000ee60       ??$?0UPlugin@CResourceManager@DispSvr@@@?$allocator@U_Node@?$_List_nod@UPlugin@CResourceManager@DispSvr@@V?$allocator@UPlugin@CResourceManager@DispSvr@@@std@@@std@@@std@@QAE@ABV?$allocator@UPlugin@CResourceManager@DispSvr@@@1@@Z 1000fe60 f i ResourceManager.obj
 0001:0000ee60       ?destroy@?$allocator@U_Node@?$_List_nod@UVideoProcessorStub@DispSvr@@V?$allocator@UVideoProcessorStub@DispSvr@@@std@@@std@@@std@@QAEXPAU_Node@?$_List_nod@UVideoProcessorStub@DispSvr@@V?$allocator@UVideoProcessorStub@DispSvr@@@std@@@2@@Z 1000fe60 f i D3D9VideoMixerBase.obj
 0001:0000ee60       ??$_Destroy_range@PAPAUIMFSample@@V?$allocator@PAPAUIMFSample@@@std@@@std@@YAXPAPAPAUIMFSample@@0AAV?$allocator@PAPAUIMFSample@@@0@@Z 1000fe60 f i VideoSourceEvr.obj
 0001:0000ee60       ?destroy@?$allocator@PAU_Node@?$_Tree_nod@V?$_Tmap_traits@KUVideoSourceRate@CServerStateEventSink@DispSvr@@U?$less@K@std@@V?$allocator@U?$pair@$$CBKUVideoSourceRate@CServerStateEventSink@DispSvr@@@std@@@5@$0A@@std@@@std@@@std@@QAEXPAPAU_Node@?$_Tree_nod@V?$_Tmap_traits@KUVideoSourceRate@CServerStateEventSink@DispSvr@@U?$less@K@std@@V?$allocator@U?$pair@$$CBKUVideoSourceRate@CServerStateEventSink@DispSvr@@@std@@@5@$0A@@std@@@2@@Z 1000fe60 f i ServerStateEventSink.obj
 0001:0000ee60       ??0IDisplayStereoControl@@QAE@XZ 1000fe60 f i VideoSourceDO.obj
 0001:0000ee60       ??$_Iter_random@PAUDisplayObjectInfo@IParentDisplayObjectImpl@@PAU12@@std@@YA?AUrandom_access_iterator_tag@0@ABQAUDisplayObjectInfo@IParentDisplayObjectImpl@@0@Z 1000fe60 f i CompositeDO.obj
 0001:0000ee60       ??I?$CComPtrBase@UIDirect3DDevice9@@@ATL@@QAEPAPAUIDirect3DDevice9@@XZ 1000fe60 f i D3D9Helper.obj
 0001:0000ee60       ??$_Destroy_range@PAUVideoReferenceSample@DispSvr@@V?$allocator@PAUVideoReferenceSample@DispSvr@@@std@@@std@@YAXPAPAUVideoReferenceSample@DispSvr@@0AAV?$allocator@PAUVideoReferenceSample@DispSvr@@@0@U_Scalar_ptr_iterator_tag@0@@Z 1000fe60 f i D3D9VideoPlane.obj
 0001:0000ee60       ??$?0U?$pair@$$CBKW4_PCOM_STEREOSCOPIC_FORMAT@@@std@@@?$allocator@PAU_Node@?$_Tree_nod@V?$_Tmap_traits@$$CBKW4_PCOM_STEREOSCOPIC_FORMAT@@U?$less@$$CBK@std@@V?$allocator@U?$pair@$$CBKW4_PCOM_STEREOSCOPIC_FORMAT@@@std@@@3@$0A@@std@@@std@@@std@@QAE@ABV?$allocator@U?$pair@$$CBKW4_PCOM_STEREOSCOPIC_FORMAT@@@std@@@1@@Z 1000fe60 f i AMDPCOMMixerPresenter.obj
 0001:0000ee60       ??0D3DXCOLOR@@QAE@XZ       1000fe60 f i MixerControl.obj
 0001:0000ee60       ?_Kfn@?$_Tmap_traits@PBUIDirect3DSurface9@@PAUNVDX_ObjectHandle__@@U?$less@PBUIDirect3DSurface9@@@std@@V?$allocator@U?$pair@QBUIDirect3DSurface9@@PAUNVDX_ObjectHandle__@@@std@@@4@$0A@@std@@SAABQBUIDirect3DSurface9@@ABU?$pair@QBUIDirect3DSurface9@@PAUNVDX_ObjectHandle__@@@2@@Z 1000fe60 f i NvAPIPresenter.obj
 0001:0000ee60       ?destroy@?$allocator@PAU_Node@?$_List_nod@T?$PlaneVB@UD3D9ClearRectVertex@DispSvr@@@DispSvr@@V?$allocator@T?$PlaneVB@UD3D9ClearRectVertex@DispSvr@@@DispSvr@@@std@@@std@@@std@@QAEXPAPAU_Node@?$_List_nod@T?$PlaneVB@UD3D9ClearRectVertex@DispSvr@@@DispSvr@@V?$allocator@T?$PlaneVB@UD3D9ClearRectVertex@DispSvr@@@DispSvr@@@std@@@2@@Z 1000fe60 f i D3D9VideoMixer.obj
 0001:0000ee60       ??$?0T?$PlaneVB@UD3D9ClearRectVertex@DispSvr@@@DispSvr@@@?$allocator@PAU_Node@?$_List_nod@T?$PlaneVB@UD3D9ClearRectVertex@DispSvr@@@DispSvr@@V?$allocator@T?$PlaneVB@UD3D9ClearRectVertex@DispSvr@@@DispSvr@@@std@@@std@@@std@@QAE@ABV?$allocator@T?$PlaneVB@UD3D9ClearRectVertex@DispSvr@@@DispSvr@@@1@@Z 1000fe60 f i D3D9VideoMixer.obj
 0001:0000ee60       ??I?$CComPtrBase@UIDispSvrVideoEffect3DManager@@@ATL@@QAEPAPAUIDispSvrVideoEffect3DManager@@XZ 1000fe60 f i DynLibManager.obj
 0001:0000ee60       ??$_Destroy@PAU_Node@?$_Tree_nod@V?$_Tmap_traits@W4PLANE_FORMAT@DispSvr@@UTextureCap@2@U?$less@W4PLANE_FORMAT@DispSvr@@@std@@V?$allocator@U?$pair@$$CBW4PLANE_FORMAT@DispSvr@@UTextureCap@2@@std@@@5@$0A@@std@@@std@@@std@@YAXPAPAU_Node@?$_Tree_nod@V?$_Tmap_traits@W4PLANE_FORMAT@DispSvr@@UTextureCap@2@U?$less@W4PLANE_FORMAT@DispSvr@@@std@@V?$allocator@U?$pair@$$CBW4PLANE_FORMAT@DispSvr@@UTextureCap@2@@std@@@5@$0A@@std@@@0@@Z 1000fe60 f i D3D9TexturePool.obj
 0001:0000ee60       ??0?$allocator@PAUIDispSvrRenderEngineNotify@@@std@@QAE@ABV01@@Z 1000fe60 f i RenderEngine.obj
 0001:0000ee60       ??0D3DXQUATERNION@@QAE@XZ  1000fe60 f i libd3d:d3dutil.obj
 0001:0000ee60       ?destroy@?$allocator@PAU_Node@?$_Tree_nod@V?$_Tmap_traits@KKU?$less@K@std@@V?$allocator@U?$pair@$$CBKK@std@@@2@$0A@@std@@@std@@@std@@QAEXPAPAU_Node@?$_Tree_nod@V?$_Tmap_traits@KKU?$less@K@std@@V?$allocator@U?$pair@$$CBKK@std@@@2@$0A@@std@@@2@@Z 1000fe60 f i IntelDxva2Device.obj
 0001:0000ee60       ??0?$allocator@UPlugin@CResourceManager@DispSvr@@@std@@QAE@XZ 1000fe60 f i ResourceManager.obj
 0001:0000ee60       ??2@YAPAXIPAX@Z            1000fe60 f i DXVAHDVideoProcessor.obj
 0001:0000ee60       ??0IDisplayServer@@QAE@XZ  1000fe60 f i Wizard.obj
 0001:0000ee60       ??0IMFVideoPresenter@@QAE@XZ 1000fe60 f i VideoSourceEvr.obj
 0001:0000ee60       ??0?$allocator@U?$pair@$$CBW4PLANE_FORMAT@DispSvr@@UTextureCap@2@@std@@@std@@QAE@XZ 1000fe60 f i D3D9TexturePool.obj
 0001:0000ee60       ??I?$CComPtrBase@UIPin@@@ATL@@QAEPAPAUIPin@@XZ 1000fe60 f i VideoSource.obj
 0001:0000ee60       ??0IDispSvrVideoMixerPlaneStereoControl@@QAE@XZ 1000fe60 f i D3D9VideoPlane.obj
 0001:0000ee60       ??$_Iter_cat@V?$_Iterator@$00@?$list@UVideoProcessorStub@DispSvr@@V?$allocator@UVideoProcessorStub@DispSvr@@@std@@@std@@@std@@YA?AUbidirectional_iterator_tag@0@ABV?$_Iterator@$00@?$list@UVideoProcessorStub@DispSvr@@V?$allocator@UVideoProcessorStub@DispSvr@@@std@@@0@@Z 1000fe60 f i D3D9VideoMixerBase.obj
 0001:0000ee60       ??I?$CComPtrBase@UIMFMediaType@@@ATL@@QAEPAPAUIMFMediaType@@XZ 1000fe60 f i VideoSourceEvr.obj
 0001:0000ee60       ??0IXVEManagerNotify@@QAE@XZ 1000fe60 f i AMDPCOMMixerPresenter.obj
 0001:0000ee60       ??0FONT2DVERTEX@@QAE@XZ    1000fe60 f i libd3d:d3dfont.obj
 0001:0000ee60       ??$?0PAUHINSTANCE__@@@?$allocator@PAU_Node@?$_List_nod@PAUHINSTANCE__@@V?$allocator@PAUHINSTANCE__@@@std@@@std@@@std@@QAE@ABV?$allocator@PAUHINSTANCE__@@@1@@Z 1000fe60 f i DynLibManager.obj
 0001:0000ee60       ??$_Destroy@U_Node@?$_Tree_nod@V?$_Tmap_traits@$$CBKKU?$less@$$CBK@std@@V?$allocator@U?$pair@$$CBKK@std@@@2@$0A@@std@@@std@@@std@@YAXPAU_Node@?$_Tree_nod@V?$_Tmap_traits@$$CBKKU?$less@$$CBK@std@@V?$allocator@U?$pair@$$CBKK@std@@@2@$0A@@std@@@0@@Z 1000fe60 f i AMDPCOMMixerPresenter.obj
 0001:0000ee60       ?destroy@?$allocator@U_Node@?$_List_nod@UD3D9Texture@CD3D9TexturePool@DispSvr@@V?$allocator@UD3D9Texture@CD3D9TexturePool@DispSvr@@@std@@@std@@@std@@QAEXPAU_Node@?$_List_nod@UD3D9Texture@CD3D9TexturePool@DispSvr@@V?$allocator@UD3D9Texture@CD3D9TexturePool@DispSvr@@@std@@@2@@Z 1000fe60 f i D3D9TexturePool.obj
 0001:0000ee60       ?destroy@?$allocator@PAU_Node@?$_Tree_nod@V?$_Tmap_traits@$$CBKW4_PCOM_STEREOSCOPIC_FORMAT@@U?$less@$$CBK@std@@V?$allocator@U?$pair@$$CBKW4_PCOM_STEREOSCOPIC_FORMAT@@@std@@@3@$0A@@std@@@std@@@std@@QAEXPAPAU_Node@?$_Tree_nod@V?$_Tmap_traits@$$CBKW4_PCOM_STEREOSCOPIC_FORMAT@@U?$less@$$CBK@std@@V?$allocator@U?$pair@$$CBKW4_PCOM_STEREOSCOPIC_FORMAT@@@std@@@3@$0A@@std@@@2@@Z 1000fe60 f i AMDPCOMMixerPresenter.obj
 0001:0000ee60       ??$_Iter_random@PAUDisplayObjectInfo@IParentDisplayObjectImpl@@PAU12@PAU12@@std@@YA?AUrandom_access_iterator_tag@0@ABQAUDisplayObjectInfo@IParentDisplayObjectImpl@@00@Z 1000fe60 f i CompositeDO.obj
 0001:0000ee60       ??$_Iter_cat@PAPAUIDispSvrRenderEngineNotify@@@std@@YA?AUrandom_access_iterator_tag@0@ABQAPAUIDispSvrRenderEngineNotify@@@Z 1000fe60 f i RenderEngine.obj
 0001:0000ee60       ??0?$allocator@UD3D9Texture@CD3D9TexturePool@DispSvr@@@std@@QAE@ABV01@@Z 1000fe60 f i D3D9TexturePool.obj
 0001:0000ee60       ??I?$CComPtrBase@UIMediaControl@@@ATL@@QAEPAPAUIMediaControl@@XZ 1000fe60 f i VideoSource.obj
 0001:0000ee60       ??$_Destroy_range@PAUIDispSvrRenderEngineNotify@@V?$allocator@PAUIDispSvrRenderEngineNotify@@@std@@@std@@YAXPAPAUIDispSvrRenderEngineNotify@@0AAV?$allocator@PAUIDispSvrRenderEngineNotify@@@0@@Z 1000fe60 f i RenderEngine.obj
 0001:0000ee60       ??$_Iter_random@PAUEventHandler@CRenderEngine@@PAU12@@std@@YA?AUrandom_access_iterator_tag@0@ABQAUEventHandler@CRenderEngine@@0@Z 1000fe60 f i RenderEngine.obj
 0001:0000ee60       ??I?$CComPtrBase@UIDispSvrVideoMixer@@@ATL@@QAEPAPAUIDispSvrVideoMixer@@XZ 1000fe60 f i RenderEngine.obj
 0001:0000ee60       ?_Destroy@?$vector@PAUIDisplayVideoSource@@V?$allocator@PAUIDisplayVideoSource@@@std@@@std@@IAEXPAPAUIDisplayVideoSource@@0@Z 1000fe60 f i VideoSourceMgr.obj
 0001:0000ee60       ?_Kfn@?$_Tmap_traits@U_GUID@@UResourceGroup@CResourceManager@DispSvr@@U?$less@U_GUID@@@std@@V?$allocator@U?$pair@$$CBU_GUID@@UResourceGroup@CResourceManager@DispSvr@@@std@@@6@$0A@@std@@SAABU_GUID@@ABU?$pair@$$CBU_GUID@@UResourceGroup@CResourceManager@DispSvr@@@2@@Z 1000fe60 f i ResourceManager.obj
 0001:0000ee60       ?destroy@?$allocator@PAU_Node@?$_List_nod@UD3D9Texture@CD3D9TexturePool@DispSvr@@V?$allocator@UD3D9Texture@CD3D9TexturePool@DispSvr@@@std@@@std@@@std@@QAEXPAPAU_Node@?$_List_nod@UD3D9Texture@CD3D9TexturePool@DispSvr@@V?$allocator@UD3D9Texture@CD3D9TexturePool@DispSvr@@@std@@@2@@Z 1000fe60 f i D3D9TexturePool.obj
 0001:0000ee60       ??0IMFTransform@@QAE@XZ    1000fe60 f i EvrCustomMixer.obj
 0001:0000ee60       ??0IMFGetService@@QAE@XZ   1000fe60 f i VideoSourceEvr.obj
 0001:0000ee60       ??0?$allocator@PAUIDisplayVideoSource@@@std@@QAE@XZ 1000fe60 f i VideoSourceMgr.obj
 0001:0000ee60       ?destroy@?$allocator@U_Node@?$_Tree_nod@V?$_Tmap_traits@$$CBKW4_PCOM_STEREOSCOPIC_FORMAT@@U?$less@$$CBK@std@@V?$allocator@U?$pair@$$CBKW4_PCOM_STEREOSCOPIC_FORMAT@@@std@@@3@$0A@@std@@@std@@@std@@QAEXPAU_Node@?$_Tree_nod@V?$_Tmap_traits@$$CBKW4_PCOM_STEREOSCOPIC_FORMAT@@U?$less@$$CBK@std@@V?$allocator@U?$pair@$$CBKW4_PCOM_STEREOSCOPIC_FORMAT@@@std@@@3@$0A@@std@@@2@@Z 1000fe60 f i AMDPCOMMixerPresenter.obj
 0001:0000ee60       ?_Nextnode@?$list@UVideoProcessorStub@DispSvr@@V?$allocator@UVideoProcessorStub@DispSvr@@@std@@@std@@KAAAPAU_Node@?$_List_nod@UVideoProcessorStub@DispSvr@@V?$allocator@UVideoProcessorStub@DispSvr@@@std@@@2@PAU342@@Z 1000fe60 f i AMDPCOMMixerPresenter.obj
 0001:0000ee60       ??$_Iter_cat@PAPAVCVideoFrame@@@std@@YA?AUrandom_access_iterator_tag@0@ABQAPAVCVideoFrame@@@Z 1000fe60 f i MixerControl.obj
 0001:0000ee60       ??$?0UClearRect@DispSvr@@@?$allocator@PAU_Node@?$_List_nod@UClearRect@DispSvr@@V?$allocator@UClearRect@DispSvr@@@std@@@std@@@std@@QAE@ABV?$allocator@UClearRect@DispSvr@@@1@@Z 1000fe60 f i D3D9VideoMixerModel.obj
 0001:0000ee60       ??$?0U?$pair@$$CBU_GUID@@UResourceGroup@CResourceManager@DispSvr@@@std@@@?$allocator@U_Node@?$_Tree_nod@V?$_Tmap_traits@U_GUID@@UResourceGroup@CResourceManager@DispSvr@@U?$less@U_GUID@@@std@@V?$allocator@U?$pair@$$CBU_GUID@@UResourceGroup@CResourceManager@DispSvr@@@std@@@6@$0A@@std@@@std@@@std@@QAE@ABV?$allocator@U?$pair@$$CBU_GUID@@UResourceGroup@CResourceManager@DispSvr@@@std@@@1@@Z 1000fe60 f i ResourceManager.obj
 0001:0000ee60       ??$_Destroy@PAU_Node@?$_List_nod@T?$PlaneVB@UD3D9ClearRectVertex@DispSvr@@@DispSvr@@V?$allocator@T?$PlaneVB@UD3D9ClearRectVertex@DispSvr@@@DispSvr@@@std@@@std@@@std@@YAXPAPAU_Node@?$_List_nod@T?$PlaneVB@UD3D9ClearRectVertex@DispSvr@@@DispSvr@@V?$allocator@T?$PlaneVB@UD3D9ClearRectVertex@DispSvr@@@DispSvr@@@std@@@0@@Z 1000fe60 f i D3D9VideoMixer.obj
 0001:0000ee60       ??I?$CComPtrBase@UIDirectXVideoProcessorService@@@ATL@@QAEPAPAUIDirectXVideoProcessorService@@XZ 1000fe60 f i DXVA2VideoProcessor.obj
 0001:0000ee60       ??I?$CComPtrBase@UIDirectXVideoDecoder@@@ATL@@QAEPAPAUIDirectXVideoDecoder@@XZ 1000fe60 f i ScreenCaptureDefense.obj
 0001:0000ee60       ??0?$allocator@U?$pair@QBUIDirect3DSurface9@@PAUNVDX_ObjectHandle__@@@std@@@std@@QAE@XZ 1000fe60 f i NvAPIPresenter.obj
 0001:0000ee60       ??$?0U?$pair@QAXUD3D9Texture@CD3D9TexturePool@DispSvr@@@std@@@?$allocator@U_Node@?$_Tree_nod@V?$_Tmap_traits@PAXUD3D9Texture@CD3D9TexturePool@DispSvr@@U?$less@PAX@std@@V?$allocator@U?$pair@QAXUD3D9Texture@CD3D9TexturePool@DispSvr@@@std@@@5@$0A@@std@@@std@@@std@@QAE@ABV?$allocator@U?$pair@QAXUD3D9Texture@CD3D9TexturePool@DispSvr@@@std@@@1@@Z 1000fe60 f i D3D9TexturePool.obj
 0001:0000ee60       ??0IMFVideoDeviceID@@QAE@XZ 1000fe60 f i EvrCustomMixer.obj
 0001:0000ee60       ??$_Destroy@U_Node@?$_List_nod@UClearRect@DispSvr@@V?$allocator@UClearRect@DispSvr@@@std@@@std@@@std@@YAXPAU_Node@?$_List_nod@UClearRect@DispSvr@@V?$allocator@UClearRect@DispSvr@@@std@@@0@@Z 1000fe60 f i D3D9VideoMixerModel.obj
 0001:0000ee60       ??$_Destroy@U_Node@?$_List_nod@UVideoProcessorStub@DispSvr@@V?$allocator@UVideoProcessorStub@DispSvr@@@std@@@std@@@std@@YAXPAU_Node@?$_List_nod@UVideoProcessorStub@DispSvr@@V?$allocator@UVideoProcessorStub@DispSvr@@@std@@@0@@Z 1000fe60 f i D3D9VideoMixerBase.obj
 0001:0000ee60       ?destroy@?$allocator@U_Node@?$_List_nod@T?$PlaneVB@UD3D9ClearRectVertex@DispSvr@@@DispSvr@@V?$allocator@T?$PlaneVB@UD3D9ClearRectVertex@DispSvr@@@DispSvr@@@std@@@std@@@std@@QAEXPAU_Node@?$_List_nod@T?$PlaneVB@UD3D9ClearRectVertex@DispSvr@@@DispSvr@@V?$allocator@T?$PlaneVB@UD3D9ClearRectVertex@DispSvr@@@DispSvr@@@std@@@2@@Z 1000fe60 f i D3D9VideoMixer.obj
 0001:0000ee60       ??0IDispSvrVideoProcessor@@QAE@XZ 1000fe60 f i PersistentInterfaceProxy.obj
 0001:0000ee60       ??0FONT3DVERTEX@@QAE@XZ    1000fe60 f i libd3d:d3dfont.obj
 0001:0000ee60       ?GetID@CVideoSourceEx@@QBEJXZ 1000fe60 f i VideoSourceEx.obj
 0001:0000ee60       ??$_Destroy_range@UEventHandler@CRenderEngine@@V?$allocator@UEventHandler@CRenderEngine@@@std@@@std@@YAXPAUEventHandler@CRenderEngine@@0AAV?$allocator@UEventHandler@CRenderEngine@@@0@@Z 1000fe60 f i RenderEngine.obj
 0001:0000ee60       ??0IDispSvrVideoPlaneCallback@@QAE@XZ 1000fe60 f i PersistentInterfaceProxy.obj
 0001:0000ee60       ?destroy@?$allocator@PAU_Node@?$_Tree_nod@V?$_Tset_traits@W4_D3DFORMAT@@U?$less@W4_D3DFORMAT@@@std@@V?$allocator@W4_D3DFORMAT@@@3@$0A@@std@@@std@@@std@@QAEXPAPAU_Node@?$_Tree_nod@V?$_Tset_traits@W4_D3DFORMAT@@U?$less@W4_D3DFORMAT@@@std@@V?$allocator@W4_D3DFORMAT@@@3@$0A@@std@@@2@@Z 1000fe60 f i DXVAHDVideoProcessor.obj
 0001:0000ee60       ??$_Destroy@PAU_Node@?$_Tree_nod@V?$_Tmap_traits@KKU?$less@K@std@@V?$allocator@U?$pair@$$CBKK@std@@@2@$0A@@std@@@std@@@std@@YAXPAPAU_Node@?$_Tree_nod@V?$_Tmap_traits@KKU?$less@K@std@@V?$allocator@U?$pair@$$CBKK@std@@@2@$0A@@std@@@0@@Z 1000fe60 f i IntelDxva2Device.obj
 0001:0000ee60       ?T2A@@YAPADPAD@Z           1000fe60 f i NvAPIPresenter.obj
 0001:0000ee60       ??$?0W4_D3DFORMAT@@@?$allocator@PAU_Node@?$_Tree_nod@V?$_Tset_traits@W4_D3DFORMAT@@U?$less@W4_D3DFORMAT@@@std@@V?$allocator@W4_D3DFORMAT@@@3@$0A@@std@@@std@@@std@@QAE@ABV?$allocator@W4_D3DFORMAT@@@1@@Z 1000fe60 f i DXVAHDVideoProcessor.obj
 0001:0000ee60       ?destroy@?$allocator@U_Node@?$_Tree_nod@V?$_Tmap_traits@$$CBKKU?$less@$$CBK@std@@V?$allocator@U?$pair@$$CBKK@std@@@2@$0A@@std@@@std@@@std@@QAEXPAU_Node@?$_Tree_nod@V?$_Tmap_traits@$$CBKKU?$less@$$CBK@std@@V?$allocator@U?$pair@$$CBKK@std@@@2@$0A@@std@@@2@@Z 1000fe60 f i AMDPCOMMixerPresenter.obj
 0001:0000ee60       ?destroy@?$allocator@PAU_Node@?$_Tree_nod@V?$_Tmap_traits@PBUIDirect3DSurface9@@PAUNVDX_ObjectHandle__@@U?$less@PBUIDirect3DSurface9@@@std@@V?$allocator@U?$pair@QBUIDirect3DSurface9@@PAUNVDX_ObjectHandle__@@@std@@@4@$0A@@std@@@std@@@std@@QAEXPAPAU_Node@?$_Tree_nod@V?$_Tmap_traits@PBUIDirect3DSurface9@@PAUNVDX_ObjectHandle__@@U?$less@PBUIDirect3DSurface9@@@std@@V?$allocator@U?$pair@QBUIDirect3DSurface9@@PAUNVDX_ObjectHandle__@@@std@@@4@$0A@@std@@@2@@Z 1000fe60 f i NvAPIPresenter.obj
 0001:0000ee60       ?_Destroy@?$vector@PAUIDispSvrRenderEngineNotify@@V?$allocator@PAUIDispSvrRenderEngineNotify@@@std@@@std@@IAEXPAPAUIDispSvrRenderEngineNotify@@0@Z 1000fe60 f i RenderEngine.obj
 0001:0000ee60       ??I?$CComPtrBase@UIDirect3DTexture9@@@ATL@@QAEPAPAUIDirect3DTexture9@@XZ 1000fe60 f i DXVAHDVideoProcessor.obj
 0001:0000ee60       ?_Kfn@?$_Tmap_traits@KKU?$less@K@std@@V?$allocator@U?$pair@$$CBKK@std@@@2@$0A@@std@@SAABKABU?$pair@$$CBKK@2@@Z 1000fe60 f i IntelDxva2Device.obj
 0001:0000ee60       ??$_Destroy@UEventHandler@CRenderEngine@@@std@@YAXPAUEventHandler@CRenderEngine@@@Z 1000fe60 f i RenderEngine.obj
 0001:0000ee60       ??0IVMRImagePresenter9@@QAE@XZ 1000fe60 f i VideoSource.obj
 0001:0000ee60       ??0?$allocator@W4_D3DFORMAT@@@std@@QAE@ABV01@@Z 1000fe60 f i DXVAHDVideoProcessor.obj
 0001:0000ee60       ??$?0UVideoProcessorStub@DispSvr@@@?$allocator@U_Node@?$_List_nod@UVideoProcessorStub@DispSvr@@V?$allocator@UVideoProcessorStub@DispSvr@@@std@@@std@@@std@@QAE@ABV?$allocator@UVideoProcessorStub@DispSvr@@@1@@Z 1000fe60 f i D3D9VideoMixerBase.obj
 0001:0000ee60       ??I?$CComPtrBase@UIXVEType@@@ATL@@QAEPAPAUIXVEType@@XZ 1000fe60 f i D3D9VideoMixerBase.obj
 0001:0000ee60       ??$?0U?$pair@$$CBKK@std@@@?$allocator@PAU_Node@?$_Tree_nod@V?$_Tmap_traits@KKU?$less@K@std@@V?$allocator@U?$pair@$$CBKK@std@@@2@$0A@@std@@@std@@@std@@QAE@ABV?$allocator@U?$pair@$$CBKK@std@@@1@@Z 1000fe60 f i IntelDxva2Device.obj
 0001:0000ee60       ??$_Destroy@PAU_Node@?$_Tree_nod@V?$_Tmap_traits@PAXUD3D9Texture@CD3D9TexturePool@DispSvr@@U?$less@PAX@std@@V?$allocator@U?$pair@QAXUD3D9Texture@CD3D9TexturePool@DispSvr@@@std@@@5@$0A@@std@@@std@@@std@@YAXPAPAU_Node@?$_Tree_nod@V?$_Tmap_traits@PAXUD3D9Texture@CD3D9TexturePool@DispSvr@@U?$less@PAX@std@@V?$allocator@U?$pair@QAXUD3D9Texture@CD3D9TexturePool@DispSvr@@@std@@@5@$0A@@std@@@0@@Z 1000fe60 f i D3D9TexturePool.obj
 0001:0000ee60       ??0?$allocator@U?$pair@$$CBKUVideoSourceRate@CServerStateEventSink@DispSvr@@@std@@@std@@QAE@ABV01@@Z 1000fe60 f i ServerStateEventSink.obj
 0001:0000ee60       ??0__IDXVAHD_VideoProcessor@@QAE@XZ 1000fe60 f i NvDxvaHDWrapper.obj
 0001:0000ee60       ??I?$CComPtrBase@UIDirect3D9@@@ATL@@QAEPAPAUIDirect3D9@@XZ 1000fe60 f i VideoSource.obj
 0001:0000ee60       ??$?0U?$pair@$$CBW4PLANE_FORMAT@DispSvr@@UTextureCap@2@@std@@@?$allocator@PAU_Node@?$_Tree_nod@V?$_Tmap_traits@W4PLANE_FORMAT@DispSvr@@UTextureCap@2@U?$less@W4PLANE_FORMAT@DispSvr@@@std@@V?$allocator@U?$pair@$$CBW4PLANE_FORMAT@DispSvr@@UTextureCap@2@@std@@@5@$0A@@std@@@std@@@std@@QAE@ABV?$allocator@U?$pair@$$CBW4PLANE_FORMAT@DispSvr@@UTextureCap@2@@std@@@1@@Z 1000fe60 f i D3D9TexturePool.obj
 0001:0000ee60       ??$_Destroy@PAU_Node@?$_Tree_nod@V?$_Tset_traits@W4_D3DFORMAT@@U?$less@W4_D3DFORMAT@@@std@@V?$allocator@W4_D3DFORMAT@@@3@$0A@@std@@@std@@@std@@YAXPAPAU_Node@?$_Tree_nod@V?$_Tset_traits@W4_D3DFORMAT@@U?$less@W4_D3DFORMAT@@@std@@V?$allocator@W4_D3DFORMAT@@@3@$0A@@std@@@0@@Z 1000fe60 f i DXVAHDVideoProcessor.obj
 0001:0000ee60       ??0?$allocator@UVideoReferenceSample@DispSvr@@@std@@QAE@ABV01@@Z 1000fe60 f i D3D9VideoMixerModel.obj
 0001:0000ee60       ??0IDisplayProperties@@QAE@XZ 1000fe60 f i MixerControl.obj
 0001:0000ee60       ??I?$CComPtrBase@UIDisplayProperties@@@ATL@@QAEPAPAUIDisplayProperties@@XZ 1000fe60 f i VideoSourceEvr.obj
 0001:0000ee60       ?destroy@?$allocator@UEffect@CD3D9VideoEffect3DManager@DispSvr@@@std@@QAEXPAUEffect@CD3D9VideoEffect3DManager@DispSvr@@@Z 1000fe60 f i D3D9VideoEffect3DManager.obj
 0001:0000ee60       ??$_Destroy@PAUVideoReferenceSample@DispSvr@@@std@@YAXPAPAUVideoReferenceSample@DispSvr@@@Z 1000fe60 f i D3D9VideoMixerModel.obj
 0001:0000ee60       ??$_Destroy@U_Node@?$_Tree_nod@V?$_Tmap_traits@PAXUD3D9Texture@CD3D9TexturePool@DispSvr@@U?$less@PAX@std@@V?$allocator@U?$pair@QAXUD3D9Texture@CD3D9TexturePool@DispSvr@@@std@@@5@$0A@@std@@@std@@@std@@YAXPAU_Node@?$_Tree_nod@V?$_Tmap_traits@PAXUD3D9Texture@CD3D9TexturePool@DispSvr@@U?$less@PAX@std@@V?$allocator@U?$pair@QAXUD3D9Texture@CD3D9TexturePool@DispSvr@@@std@@@5@$0A@@std@@@0@@Z 1000fe60 f i D3D9TexturePool.obj
 0001:0000ee60       ?_Nextnode@?$list@UD3D9Texture@CD3D9TexturePool@DispSvr@@V?$allocator@UD3D9Texture@CD3D9TexturePool@DispSvr@@@std@@@std@@KAAAPAU_Node@?$_List_nod@UD3D9Texture@CD3D9TexturePool@DispSvr@@V?$allocator@UD3D9Texture@CD3D9TexturePool@DispSvr@@@std@@@2@PAU342@@Z 1000fe60 f i D3D9TexturePool.obj
 0001:0000ee60       ??$?0U?$pair@$$CBKUVideoSourceRate@CServerStateEventSink@DispSvr@@@std@@@?$allocator@PAU_Node@?$_Tree_nod@V?$_Tmap_traits@KUVideoSourceRate@CServerStateEventSink@DispSvr@@U?$less@K@std@@V?$allocator@U?$pair@$$CBKUVideoSourceRate@CServerStateEventSink@DispSvr@@@std@@@5@$0A@@std@@@std@@@std@@QAE@ABV?$allocator@U?$pair@$$CBKUVideoSourceRate@CServerStateEventSink@DispSvr@@@std@@@1@@Z 1000fe60 f i ServerStateEventSink.obj
 0001:0000ee60       ??0IMFAsyncCallback@@QAE@XZ 1000fe60 f i VideoSourceMSEvr.obj
 0001:0000ee60       ??$?0PAUHINSTANCE__@@@?$allocator@U_Node@?$_List_nod@PAUHINSTANCE__@@V?$allocator@PAUHINSTANCE__@@@std@@@std@@@std@@QAE@ABV?$allocator@PAUHINSTANCE__@@@1@@Z 1000fe60 f i DynLibManager.obj
 0001:0000ee60       ??I?$CComPtrBase@UIDirect3DSurface9@@@ATL@@QAEPAPAUIDirect3DSurface9@@XZ 1000fe60 f i DXVA2VideoProcessor.obj
 0001:0000ee60       ??0?$allocator@UDisplayObjectInfo@IParentDisplayObjectImpl@@@std@@QAE@ABV01@@Z 1000fe60 f i CompositeDO.obj
 0001:0000ee60       ??0IQualProp@@QAE@XZ       1000fe60 f i VideoSourceMSEvr.obj
 0001:0000ee60       ??0?$allocator@U?$pair@$$CBW4PLANE_FORMAT@DispSvr@@UTextureCap@2@@std@@@std@@QAE@ABV01@@Z 1000fe60 f i D3D9TexturePool.obj
 0001:0000ee60       ??$_Destroy_range@UEventHandler@CRenderEngine@@V?$allocator@UEventHandler@CRenderEngine@@@std@@@std@@YAXPAUEventHandler@CRenderEngine@@0AAV?$allocator@UEventHandler@CRenderEngine@@@0@U_Nonscalar_ptr_iterator_tag@0@@Z 1000fe60 f i RenderEngine.obj
 0001:0000ee60       ??$?0W4_D3DFORMAT@@@?$allocator@U_Node@?$_Tree_nod@V?$_Tset_traits@W4_D3DFORMAT@@U?$less@W4_D3DFORMAT@@@std@@V?$allocator@W4_D3DFORMAT@@@3@$0A@@std@@@std@@@std@@QAE@ABV?$allocator@W4_D3DFORMAT@@@1@@Z 1000fe60 f i DXVAHDVideoProcessor.obj
 0001:0000ee60       ??I?$CComPtrBase@UIEnumPins@@@ATL@@QAEPAPAUIEnumPins@@XZ 1000fe60 f i VideoSource.obj
 0001:0000ee60       ?destroy@?$allocator@UEventHandler@CRenderEngine@@@std@@QAEXPAUEventHandler@CRenderEngine@@@Z 1000fe60 f i RenderEngine.obj
 0001:0000ee60       ??$_Destroy@PAU_Node@?$_List_nod@PAUHINSTANCE__@@V?$allocator@PAUHINSTANCE__@@@std@@@std@@@std@@YAXPAPAU_Node@?$_List_nod@PAUHINSTANCE__@@V?$allocator@PAUHINSTANCE__@@@std@@@0@@Z 1000fe60 f i DynLibManager.obj
 0001:0000ee60       ??0?$allocator@PAUHINSTANCE__@@@std@@QAE@XZ 1000fe60 f i DynLibManager.obj
 0001:0000ee60       ??$_Destroy@U_Node@?$_List_nod@UD3D9Texture@CD3D9TexturePool@DispSvr@@V?$allocator@UD3D9Texture@CD3D9TexturePool@DispSvr@@@std@@@std@@@std@@YAXPAU_Node@?$_List_nod@UD3D9Texture@CD3D9TexturePool@DispSvr@@V?$allocator@UD3D9Texture@CD3D9TexturePool@DispSvr@@@std@@@0@@Z 1000fe60 f i D3D9TexturePool.obj
 0001:0000ee60       ??I?$CComPtrBase@UIVMRSurfaceAllocatorNotify9@@@ATL@@QAEPAPAUIVMRSurfaceAllocatorNotify9@@XZ 1000fe60 f i VideoSource.obj
 0001:0000ee60       ?destroy@?$allocator@UDisplayObjectInfo@IParentDisplayObjectImpl@@@std@@QAEXPAUDisplayObjectInfo@IParentDisplayObjectImpl@@@Z 1000fe60 f i CompositeDO.obj
 0001:0000ee60       ??$?0U?$pair@$$CBKW4_PCOM_STEREOSCOPIC_FORMAT@@@std@@@?$allocator@U_Node@?$_Tree_nod@V?$_Tmap_traits@$$CBKW4_PCOM_STEREOSCOPIC_FORMAT@@U?$less@$$CBK@std@@V?$allocator@U?$pair@$$CBKW4_PCOM_STEREOSCOPIC_FORMAT@@@std@@@3@$0A@@std@@@std@@@std@@QAE@ABV?$allocator@U?$pair@$$CBKW4_PCOM_STEREOSCOPIC_FORMAT@@@std@@@1@@Z 1000fe60 f i AMDPCOMMixerPresenter.obj
 0001:0000ee60       ?destroy@?$allocator@UVideoReferenceSample@DispSvr@@@std@@QAEXPAUVideoReferenceSample@DispSvr@@@Z 1000fe60 f i D3D9VideoPlane.obj
 0001:0000ee60       ??$?0U?$pair@QAXUD3D9Texture@CD3D9TexturePool@DispSvr@@@std@@@?$allocator@PAU_Node@?$_Tree_nod@V?$_Tmap_traits@PAXUD3D9Texture@CD3D9TexturePool@DispSvr@@U?$less@PAX@std@@V?$allocator@U?$pair@QAXUD3D9Texture@CD3D9TexturePool@DispSvr@@@std@@@5@$0A@@std@@@std@@@std@@QAE@ABV?$allocator@U?$pair@QAXUD3D9Texture@CD3D9TexturePool@DispSvr@@@std@@@1@@Z 1000fe60 f i D3D9TexturePool.obj
 0001:0000ee60       ?destroy@?$allocator@PAPAUIMFSample@@@std@@QAEXPAPAPAUIMFSample@@@Z 1000fe60 f i VideoSourceEvr.obj
 0001:0000ee60       ?destroy@?$allocator@U_Node@?$_List_nod@UPlugin@CResourceManager@DispSvr@@V?$allocator@UPlugin@CResourceManager@DispSvr@@@std@@@std@@@std@@QAEXPAU_Node@?$_List_nod@UPlugin@CResourceManager@DispSvr@@V?$allocator@UPlugin@CResourceManager@DispSvr@@@std@@@2@@Z 1000fe60 f i ResourceManager.obj
 0001:0000ee60       ??I?$CComPtrBase@UIDirect3D9Ex@@@ATL@@QAEPAPAUIDirect3D9Ex@@XZ 1000fe60 f i D3D9Helper.obj
 0001:0000ee60       ?_Kfn@?$_Tmap_traits@$$CBKW4_PCOM_STEREOSCOPIC_FORMAT@@U?$less@$$CBK@std@@V?$allocator@U?$pair@$$CBKW4_PCOM_STEREOSCOPIC_FORMAT@@@std@@@3@$0A@@std@@SAABKABU?$pair@$$CBKW4_PCOM_STEREOSCOPIC_FORMAT@@@2@@Z 1000fe60 f i AMDPCOMMixerPresenter.obj
 0001:0000ee60       ??0IDispSvrVideoMixerPlane@@QAE@XZ 1000fe60 f i D3D9VideoPlane.obj
 0001:0000ee60       ??0IVMRWindowlessControl9@@QAE@XZ 1000fe60 f i VideoSourceEx.obj
 0001:0000ee60       ?_Destroy@?$vector@UEffect@CD3D9VideoEffect3DManager@DispSvr@@V?$allocator@UEffect@CD3D9VideoEffect3DManager@DispSvr@@@std@@@std@@IAEXPAUEffect@CD3D9VideoEffect3DManager@DispSvr@@0@Z 1000fe60 f i D3D9VideoEffect3DManager.obj
 0001:0000ee60       ??$_Destroy_range@PAPAUIMFSample@@V?$allocator@PAPAUIMFSample@@@std@@@std@@YAXPAPAPAUIMFSample@@0AAV?$allocator@PAPAUIMFSample@@@0@U_Scalar_ptr_iterator_tag@0@@Z 1000fe60 f i VideoSourceEvr.obj
 0001:0000ee60       ??$_Destroy_range@PAUIDisplayVideoSource@@V?$allocator@PAUIDisplayVideoSource@@@std@@@std@@YAXPAPAUIDisplayVideoSource@@0AAV?$allocator@PAUIDisplayVideoSource@@@0@@Z 1000fe60 f i VideoSourceMgr.obj
 0001:0000ee60       ??0IDispSvrPlugin@@QAE@XZ  1000fe60 f i D3D9PluginBase.obj
 0001:0000ee60       ??3@YAXPAX0@Z              1000fe60 f i DXVAHDVideoProcessor.obj
 0001:0000ee60       ?_Left@?$_Tree@V?$_Tmap_traits@PBUIDirect3DSurface9@@PAUNVDX_ObjectHandle__@@U?$less@PBUIDirect3DSurface9@@@std@@V?$allocator@U?$pair@QBUIDirect3DSurface9@@PAUNVDX_ObjectHandle__@@@std@@@4@$0A@@std@@@std@@KAAAPAU_Node@?$_Tree_nod@V?$_Tmap_traits@PBUIDirect3DSurface9@@PAUNVDX_ObjectHandle__@@U?$less@PBUIDirect3DSurface9@@@std@@V?$allocator@U?$pair@QBUIDirect3DSurface9@@PAUNVDX_ObjectHandle__@@@std@@@4@$0A@@std@@@2@PAU342@@Z 1000fe60 f i NvAPIPresenter.obj
 0001:0000ee60       ??0IVMRImageCompositor9@@QAE@XZ 1000fe60 f i VideoSource.obj
 0001:0000ee60       ?_Left@?$_Tree@V?$_Tmap_traits@U_GUID@@UResourceGroup@CResourceManager@DispSvr@@U?$less@U_GUID@@@std@@V?$allocator@U?$pair@$$CBU_GUID@@UResourceGroup@CResourceManager@DispSvr@@@std@@@6@$0A@@std@@@std@@KAAAPAU_Node@?$_Tree_nod@V?$_Tmap_traits@U_GUID@@UResourceGroup@CResourceManager@DispSvr@@U?$less@U_GUID@@@std@@V?$allocator@U?$pair@$$CBU_GUID@@UResourceGroup@CResourceManager@DispSvr@@@std@@@6@$0A@@std@@@2@PAU342@@Z 1000fe60 f i ResourceManager.obj
 0001:0000ee60       ??0?$allocator@U?$pair@$$CBU_GUID@@UResourceGroup@CResourceManager@DispSvr@@@std@@@std@@QAE@XZ 1000fe60 f i ResourceManager.obj
 0001:0000ee60       ??I?$CComPtrBase@UIDispSvrDriverExtension@@@ATL@@QAEPAPAUIDispSvrDriverExtension@@XZ 1000fe60 f i D3D9Helper.obj
 0001:0000ee60       ?_Left@?$_Tree@V?$_Tset_traits@W4_D3DFORMAT@@U?$less@W4_D3DFORMAT@@@std@@V?$allocator@W4_D3DFORMAT@@@3@$0A@@std@@@std@@KAAAPAU_Node@?$_Tree_nod@V?$_Tset_traits@W4_D3DFORMAT@@U?$less@W4_D3DFORMAT@@@std@@V?$allocator@W4_D3DFORMAT@@@3@$0A@@std@@@2@PAU342@@Z 1000fe60 f i DXVAHDVideoProcessor.obj
 0001:0000ee60       ?_Left@?$_Tree@V?$_Tmap_traits@W4PLANE_FORMAT@DispSvr@@UTextureCap@2@U?$less@W4PLANE_FORMAT@DispSvr@@@std@@V?$allocator@U?$pair@$$CBW4PLANE_FORMAT@DispSvr@@UTextureCap@2@@std@@@5@$0A@@std@@@std@@KAAAPAU_Node@?$_Tree_nod@V?$_Tmap_traits@W4PLANE_FORMAT@DispSvr@@UTextureCap@2@U?$less@W4PLANE_FORMAT@DispSvr@@@std@@V?$allocator@U?$pair@$$CBW4PLANE_FORMAT@DispSvr@@UTextureCap@2@@std@@@5@$0A@@std@@@2@PAU342@@Z 1000fe60 f i D3D9TexturePool.obj
 0001:0000ee60       ??$_Destroy@UDisplayObjectInfo@IParentDisplayObjectImpl@@@std@@YAXPAUDisplayObjectInfo@IParentDisplayObjectImpl@@@Z 1000fe60 f i CompositeDO.obj
 0001:0000ee60       ??$_Destroy_range@PAUIDispSvrRenderEngineNotify@@V?$allocator@PAUIDispSvrRenderEngineNotify@@@std@@@std@@YAXPAPAUIDispSvrRenderEngineNotify@@0AAV?$allocator@PAUIDispSvrRenderEngineNotify@@@0@U_Scalar_ptr_iterator_tag@0@@Z 1000fe60 f i RenderEngine.obj
 0001:0000ee60       ??0?$allocator@UPlugin@CResourceManager@DispSvr@@@std@@QAE@ABV01@@Z 1000fe60 f i ResourceManager.obj
 0001:0000ee60       ??$_Destroy@PAU_Node@?$_List_nod@UD3D9Texture@CD3D9TexturePool@DispSvr@@V?$allocator@UD3D9Texture@CD3D9TexturePool@DispSvr@@@std@@@std@@@std@@YAXPAPAU_Node@?$_List_nod@UD3D9Texture@CD3D9TexturePool@DispSvr@@V?$allocator@UD3D9Texture@CD3D9TexturePool@DispSvr@@@std@@@0@@Z 1000fe60 f i D3D9TexturePool.obj
 0001:0000ee60       ??$_Destroy_range@U_Registry@CRegistryService@DispSvr@@V?$allocator@U_Registry@CRegistryService@DispSvr@@@std@@@std@@YAXPAU_Registry@CRegistryService@DispSvr@@0AAV?$allocator@U_Registry@CRegistryService@DispSvr@@@0@U_Nonscalar_ptr_iterator_tag@0@@Z 1000fe60 f i DispSvr.obj
 0001:0000ee60       ??$?0UVideoReferenceSample@DispSvr@@@?$allocator@PAUVideoReferenceSample@DispSvr@@@std@@QAE@ABV?$allocator@UVideoReferenceSample@DispSvr@@@1@@Z 1000fe60 f i D3D9VideoMixerModel.obj
 0001:0000ee60       ??$_Iter_random@PAUDisplayObjectInfo@IParentDisplayObjectImpl@@V?$_Temp_iterator@UDisplayObjectInfo@IParentDisplayObjectImpl@@@std@@@std@@YA?AUforward_iterator_tag@0@ABQAUDisplayObjectInfo@IParentDisplayObjectImpl@@ABV?$_Temp_iterator@UDisplayObjectInfo@IParentDisplayObjectImpl@@@0@@Z 1000fe60 f i CompositeDO.obj
 0001:0000ee60       ?destroy@?$allocator@U_Node@?$_Tree_nod@V?$_Tmap_traits@U_GUID@@UResourceGroup@CResourceManager@DispSvr@@U?$less@U_GUID@@@std@@V?$allocator@U?$pair@$$CBU_GUID@@UResourceGroup@CResourceManager@DispSvr@@@std@@@6@$0A@@std@@@std@@@std@@QAEXPAU_Node@?$_Tree_nod@V?$_Tmap_traits@U_GUID@@UResourceGroup@CResourceManager@DispSvr@@U?$less@U_GUID@@@std@@V?$allocator@U?$pair@$$CBU_GUID@@UResourceGroup@CResourceManager@DispSvr@@@std@@@6@$0A@@std@@@2@@Z 1000fe60 f i ResourceManager.obj
 0001:0000ee60       ??0?$allocator@UVideoProcessorStub@DispSvr@@@std@@QAE@ABV01@@Z 1000fe60 f i D3D9VideoMixerBase.obj
 0001:0000ee60       ??0D3DXVECTOR4@@QAE@XZ     1000fe60 f i libd3d:d3dfont.obj
 0001:0000ee60       ??I?$CComPtrBase@UIXVESample@@@ATL@@QAEPAPAUIXVESample@@XZ 1000fe60 f i D3D9VideoMixerBase.obj
 0001:0000ee60       ??$_Destroy@U_Node@?$_Tree_nod@V?$_Tset_traits@W4_D3DFORMAT@@U?$less@W4_D3DFORMAT@@@std@@V?$allocator@W4_D3DFORMAT@@@3@$0A@@std@@@std@@@std@@YAXPAU_Node@?$_Tree_nod@V?$_Tset_traits@W4_D3DFORMAT@@U?$less@W4_D3DFORMAT@@@std@@V?$allocator@W4_D3DFORMAT@@@3@$0A@@std@@@0@@Z 1000fe60 f i DXVAHDVideoProcessor.obj
 0001:0000ee60       ?destroy@?$allocator@U_Node@?$_Tree_nod@V?$_Tmap_traits@PAXUD3D9Texture@CD3D9TexturePool@DispSvr@@U?$less@PAX@std@@V?$allocator@U?$pair@QAXUD3D9Texture@CD3D9TexturePool@DispSvr@@@std@@@5@$0A@@std@@@std@@@std@@QAEXPAU_Node@?$_Tree_nod@V?$_Tmap_traits@PAXUD3D9Texture@CD3D9TexturePool@DispSvr@@U?$less@PAX@std@@V?$allocator@U?$pair@QAXUD3D9Texture@CD3D9TexturePool@DispSvr@@@std@@@5@$0A@@std@@@2@@Z 1000fe60 f i D3D9TexturePool.obj
 0001:0000ee60       ?_Kfn@?$_Tmap_traits@W4PLANE_FORMAT@DispSvr@@UTextureCap@2@U?$less@W4PLANE_FORMAT@DispSvr@@@std@@V?$allocator@U?$pair@$$CBW4PLANE_FORMAT@DispSvr@@UTextureCap@2@@std@@@5@$0A@@std@@SAABW4PLANE_FORMAT@DispSvr@@ABU?$pair@$$CBW4PLANE_FORMAT@DispSvr@@UTextureCap@2@@2@@Z 1000fe60 f i D3D9TexturePool.obj
 0001:0000ee60       ??$?0PAUIMFSample@@@?$allocator@PAPAUIMFSample@@@std@@QAE@ABV?$allocator@PAUIMFSample@@@1@@Z 1000fe60 f i VideoSourceEvr.obj
 0001:0000ee60       ??I?$CComPtrBase@UIMFClock@@@ATL@@QAEPAPAUIMFClock@@XZ 1000fe60 f i VideoSourceEvr.obj
 0001:0000ee60       ?destroy@?$allocator@U_Node@?$_Tree_nod@V?$_Tmap_traits@W4PLANE_FORMAT@DispSvr@@UTextureCap@2@U?$less@W4PLANE_FORMAT@DispSvr@@@std@@V?$allocator@U?$pair@$$CBW4PLANE_FORMAT@DispSvr@@UTextureCap@2@@std@@@5@$0A@@std@@@std@@@std@@QAEXPAU_Node@?$_Tree_nod@V?$_Tmap_traits@W4PLANE_FORMAT@DispSvr@@UTextureCap@2@U?$less@W4PLANE_FORMAT@DispSvr@@@std@@V?$allocator@U?$pair@$$CBW4PLANE_FORMAT@DispSvr@@UTextureCap@2@@std@@@5@$0A@@std@@@2@@Z 1000fe60 f i D3D9TexturePool.obj
 0001:0000ee60       ??$_Destroy_range@PAUVideoReferenceSample@DispSvr@@V?$allocator@PAUVideoReferenceSample@DispSvr@@@std@@@std@@YAXPAPAUVideoReferenceSample@DispSvr@@0AAV?$allocator@PAUVideoReferenceSample@DispSvr@@@0@@Z 1000fe60 f i D3D9VideoPlane.obj
 0001:0000ee60       ??0IDispSvrVideoMixerDependentView@@QAE@XZ 1000fe60 f i D3D9VideoPlane.obj
 0001:0000ee60       ??0ID3D9VideoEffect3DProcessor@@QAE@XZ 1000fe60 f i D3D9VideoEffect3DManager.obj
 0001:0000ee60       ??0IDisplayEventHandler@@QAE@XZ 1000fe60 f i MixerControl.obj
 0001:0000ee60       ??$_Destroy@U_Node@?$_Tree_nod@V?$_Tmap_traits@KUVideoSourceRate@CServerStateEventSink@DispSvr@@U?$less@K@std@@V?$allocator@U?$pair@$$CBKUVideoSourceRate@CServerStateEventSink@DispSvr@@@std@@@5@$0A@@std@@@std@@@std@@YAXPAU_Node@?$_Tree_nod@V?$_Tmap_traits@KUVideoSourceRate@CServerStateEventSink@DispSvr@@U?$less@K@std@@V?$allocator@U?$pair@$$CBKUVideoSourceRate@CServerStateEventSink@DispSvr@@@std@@@5@$0A@@std@@@0@@Z 1000fe60 f i ServerStateEventSink.obj
 0001:0000ee60       ??$_Destroy@PAPAUIMFSample@@@std@@YAXPAPAPAUIMFSample@@@Z 1000fe60 f i VideoSourceEvr.obj
 0001:0000ee60       ??$_Iter_cat@PAPAPAUIMFSample@@@std@@YA?AUrandom_access_iterator_tag@0@ABQAPAPAUIMFSample@@@Z 1000fe60 f i VideoSourceEvr.obj
 0001:0000ee60       ?_Kfn@?$_Tset_traits@W4_D3DFORMAT@@U?$less@W4_D3DFORMAT@@@std@@V?$allocator@W4_D3DFORMAT@@@3@$0A@@std@@SAABW4_D3DFORMAT@@ABW43@@Z 1000fe60 f i DXVAHDVideoProcessor.obj
 0001:0000ee60       ??0?$allocator@UEventHandler@CRenderEngine@@@std@@QAE@ABV01@@Z 1000fe60 f i RenderEngine.obj
 0001:0000ee60       ??$?0UClearRect@DispSvr@@@?$allocator@U_Node@?$_List_nod@UClearRect@DispSvr@@V?$allocator@UClearRect@DispSvr@@@std@@@std@@@std@@QAE@ABV?$allocator@UClearRect@DispSvr@@@1@@Z 1000fe60 f i D3D9VideoMixerModel.obj
 0001:0000ee60       ?destroy@?$allocator@PAU_Node@?$_List_nod@UVideoProcessorStub@DispSvr@@V?$allocator@UVideoProcessorStub@DispSvr@@@std@@@std@@@std@@QAEXPAPAU_Node@?$_List_nod@UVideoProcessorStub@DispSvr@@V?$allocator@UVideoProcessorStub@DispSvr@@@std@@@2@@Z 1000fe60 f i AMDPCOMMixerPresenter.obj
 0001:0000ee60       ??I?$CComPtrBase@UIMFTransform@@@ATL@@QAEPAPAUIMFTransform@@XZ 1000fe60 f i VideoSourceEvr.obj
 0001:0000ee60       ??$_Destroy_range@UDisplayObjectInfo@IParentDisplayObjectImpl@@V?$allocator@UDisplayObjectInfo@IParentDisplayObjectImpl@@@std@@@std@@YAXPAUDisplayObjectInfo@IParentDisplayObjectImpl@@0AAV?$allocator@UDisplayObjectInfo@IParentDisplayObjectImpl@@@0@@Z 1000fe60 f i CompositeDO.obj
 0001:0000ee60       ??$_Destroy@PAU_Node@?$_Tree_nod@V?$_Tmap_traits@$$CBKKU?$less@$$CBK@std@@V?$allocator@U?$pair@$$CBKK@std@@@2@$0A@@std@@@std@@@std@@YAXPAPAU_Node@?$_Tree_nod@V?$_Tmap_traits@$$CBKKU?$less@$$CBK@std@@V?$allocator@U?$pair@$$CBKK@std@@@2@$0A@@std@@@0@@Z 1000fe60 f i AMDPCOMMixerPresenter.obj
 0001:0000ee60       ??$_Destroy@U_Node@?$_Tree_nod@V?$_Tmap_traits@$$CBKW4_PCOM_STEREOSCOPIC_FORMAT@@U?$less@$$CBK@std@@V?$allocator@U?$pair@$$CBKW4_PCOM_STEREOSCOPIC_FORMAT@@@std@@@3@$0A@@std@@@std@@@std@@YAXPAU_Node@?$_Tree_nod@V?$_Tmap_traits@$$CBKW4_PCOM_STEREOSCOPIC_FORMAT@@U?$less@$$CBK@std@@V?$allocator@U?$pair@$$CBKW4_PCOM_STEREOSCOPIC_FORMAT@@@std@@@3@$0A@@std@@@0@@Z 1000fe60 f i AMDPCOMMixerPresenter.obj
 0001:0000ee60       ??0IClassFactory@@QAE@XZ   1000fe60 f i DispSvr.obj
 0001:0000ee60       ??0IParentDisplayObject@@QAE@XZ 1000fe60 f i CompositeDO.obj
 0001:0000ee60       ?DumpOutputAvailableType@CVideoSourceMSEvr@@IAEXXZ 1000fe60 f i VideoSourceMSEvr.obj
 0001:0000ee60       ?destroy@?$allocator@U_Registry@CRegistryService@DispSvr@@@std@@QAEXPAU_Registry@CRegistryService@DispSvr@@@Z 1000fe60 f i DispSvr.obj
 0001:0000ee60       ??1__CUnknown@@UAE@XZ      1000fe60 f i NvDxvaHDWrapper.obj
 0001:0000ee60       ??0_D3DXMATRIXA16@@QAE@XZ  1000fe60 f i libd3d:d3dutil.obj
 0001:0000ee60       ??0?$allocator@UVideoReferenceSample@DispSvr@@@std@@QAE@XZ 1000fe60 f i D3D9VideoMixerModel.obj
 0001:0000ee60       ??$_Destroy_range@U_Registry@CRegistryService@DispSvr@@V?$allocator@U_Registry@CRegistryService@DispSvr@@@std@@@std@@YAXPAU_Registry@CRegistryService@DispSvr@@0AAV?$allocator@U_Registry@CRegistryService@DispSvr@@@0@@Z 1000fe60 f i DispSvr.obj
 0001:0000ee60       ??$_Destroy@U_Node@?$_Tree_nod@V?$_Tmap_traits@U_GUID@@UResourceGroup@CResourceManager@DispSvr@@U?$less@U_GUID@@@std@@V?$allocator@U?$pair@$$CBU_GUID@@UResourceGroup@CResourceManager@DispSvr@@@std@@@6@$0A@@std@@@std@@@std@@YAXPAU_Node@?$_Tree_nod@V?$_Tmap_traits@U_GUID@@UResourceGroup@CResourceManager@DispSvr@@U?$less@U_GUID@@@std@@V?$allocator@U?$pair@$$CBU_GUID@@UResourceGroup@CResourceManager@DispSvr@@@std@@@6@$0A@@std@@@0@@Z 1000fe60 f i ResourceManager.obj
 0001:0000ee60       ??E?$_Temp_iterator@UDisplayObjectInfo@IParentDisplayObjectImpl@@@std@@QAEAAV01@XZ 1000fe60 f i CompositeDO.obj
 0001:0000ee60       ??0?$allocator@U?$pair@$$CBKUVideoSourceRate@CServerStateEventSink@DispSvr@@@std@@@std@@QAE@XZ 1000fe60 f i ServerStateEventSink.obj
 0001:0000ee60       ??0IDisplayVideoSourceFRCControl@@QAE@XZ 1000fe60 f i VideoSourceMSEvr.obj
 0001:0000ee60       ??$_Destroy@U_Node@?$_List_nod@UPlugin@CResourceManager@DispSvr@@V?$allocator@UPlugin@CResourceManager@DispSvr@@@std@@@std@@@std@@YAXPAU_Node@?$_List_nod@UPlugin@CResourceManager@DispSvr@@V?$allocator@UPlugin@CResourceManager@DispSvr@@@std@@@0@@Z 1000fe60 f i ResourceManager.obj
 0001:0000ee60       ?destroy@?$allocator@PAU_Node@?$_List_nod@UClearRect@DispSvr@@V?$allocator@UClearRect@DispSvr@@@std@@@std@@@std@@QAEXPAPAU_Node@?$_List_nod@UClearRect@DispSvr@@V?$allocator@UClearRect@DispSvr@@@std@@@2@@Z 1000fe60 f i D3D9VideoMixerModel.obj
 0001:0000ee60       ??0?$allocator@U?$pair@$$CBKK@std@@@std@@QAE@ABV01@@Z 1000fe60 f i IntelDxva2Device.obj
 0001:0000ee60       ??$_Destroy@U_Node@?$_Tree_nod@V?$_Tmap_traits@W4PLANE_FORMAT@DispSvr@@UTextureCap@2@U?$less@W4PLANE_FORMAT@DispSvr@@@std@@V?$allocator@U?$pair@$$CBW4PLANE_FORMAT@DispSvr@@UTextureCap@2@@std@@@5@$0A@@std@@@std@@@std@@YAXPAU_Node@?$_Tree_nod@V?$_Tmap_traits@W4PLANE_FORMAT@DispSvr@@UTextureCap@2@U?$less@W4PLANE_FORMAT@DispSvr@@@std@@V?$allocator@U?$pair@$$CBW4PLANE_FORMAT@DispSvr@@UTextureCap@2@@std@@@5@$0A@@std@@@0@@Z 1000fe60 f i D3D9TexturePool.obj
 0001:0000ee60       ??0?$allocator@UEventHandler@CRenderEngine@@@std@@QAE@XZ 1000fe60 f i RenderEngine.obj
 0001:0000ee60       ??0?$allocator@PAUIDispSvrRenderEngineNotify@@@std@@QAE@XZ 1000fe60 f i RenderEngine.obj
 0001:0000ee60       ??$_Iter_cat@PAPAUIDisplayVideoSource@@@std@@YA?AUrandom_access_iterator_tag@0@ABQAPAUIDisplayVideoSource@@@Z 1000fe60 f i VideoSourceMgr.obj
 0001:0000ee70       ??0?$CComPtrBase@UIDirect3DVertexBuffer9@@@ATL@@IAE@PAUIDirect3DVertexBuffer9@@@Z 1000fe70 f i MixerControl.obj
 0001:0000ee70       ??0?$CComPtrBase@UIDisplayRenderEngine@@@ATL@@IAE@PAUIDisplayRenderEngine@@@Z 1000fe70 f i MixerControl.obj
 0001:0000ee70       ??0?$CComPtrBase@UIDisplayVideoSource@@@ATL@@IAE@PAUIDisplayVideoSource@@@Z 1000fe70 f i MixerControl.obj
 0001:0000ee90       ??G?$_Vector_iterator@PAVCVideoFrame@@V?$allocator@PAVCVideoFrame@@@std@@@std@@QBEHABV?$_Vector_const_iterator@PAVCVideoFrame@@V?$allocator@PAVCVideoFrame@@@std@@@1@@Z 1000fe90 f i MixerControl.obj
 0001:0000ee90       ??G?$_Vector_const_iterator@PAUIDisplayVideoSource@@V?$allocator@PAUIDisplayVideoSource@@@std@@@std@@QBEHABV01@@Z 1000fe90 f i VideoSourceMgr.obj
 0001:0000ee90       ??G?$_Vector_iterator@PAUIDispSvrRenderEngineNotify@@V?$allocator@PAUIDispSvrRenderEngineNotify@@@std@@@std@@QBEHABV?$_Vector_const_iterator@PAUIDispSvrRenderEngineNotify@@V?$allocator@PAUIDispSvrRenderEngineNotify@@@std@@@1@@Z 1000fe90 f i RenderEngine.obj
 0001:0000ee90       ??G?$_Vector_iterator@PAUIDisplayVideoSource@@V?$allocator@PAUIDisplayVideoSource@@@std@@@std@@QBEHABV?$_Vector_const_iterator@PAUIDisplayVideoSource@@V?$allocator@PAUIDisplayVideoSource@@@std@@@1@@Z 1000fe90 f i VideoSourceMgr.obj
 0001:0000ee90       ??G?$_Vector_const_iterator@PAUIDispSvrRenderEngineNotify@@V?$allocator@PAUIDispSvrRenderEngineNotify@@@std@@@std@@QBEHABV01@@Z 1000fe90 f i RenderEngine.obj
 0001:0000ee90       ??G?$_Vector_const_iterator@PAVCVideoFrame@@V?$allocator@PAVCVideoFrame@@@std@@@std@@QBEHABV01@@Z 1000fe90 f i MixerControl.obj
 0001:0000eeb0       ?_Xlen@?$vector@U_Registry@CRegistryService@DispSvr@@V?$allocator@U_Registry@CRegistryService@DispSvr@@@std@@@std@@KAXXZ 1000feb0 f i RegistryService.obj
 0001:0000eeb0       ?_Xlen@?$vector@PAUIDisplayVideoSource@@V?$allocator@PAUIDisplayVideoSource@@@std@@@std@@KAXXZ 1000feb0 f i VideoSourceMgr.obj
 0001:0000eeb0       ?_Xlen@?$vector@UEventHandler@CRenderEngine@@V?$allocator@UEventHandler@CRenderEngine@@@std@@@std@@KAXXZ 1000feb0 f i RenderEngine.obj
 0001:0000eeb0       ?_Xlen@?$vector@PAUIDispSvrRenderEngineNotify@@V?$allocator@PAUIDispSvrRenderEngineNotify@@@std@@@std@@KAXXZ 1000feb0 f i RenderEngine.obj
 0001:0000eeb0       ?_Xlen@?$vector@PAVCVideoFrame@@V?$allocator@PAVCVideoFrame@@@std@@@std@@KAXXZ 1000feb0 f i MixerControl.obj
 0001:0000eeb0       ?_Xlen@?$vector@UDisplayObjectInfo@IParentDisplayObjectImpl@@V?$allocator@UDisplayObjectInfo@IParentDisplayObjectImpl@@@std@@@std@@KAXXZ 1000feb0 f i CompositeDO.obj
 0001:0000ef20       ??$unchecked_copy@PAPAUIDisplayVideoSource@@PAPAU1@@stdext@@YAPAPAUIDisplayVideoSource@@PAPAU1@00@Z 1000ff20 f i VideoSourceMgr.obj
 0001:0000ef20       ??$unchecked_copy@PAPAVCVideoFrame@@PAPAV1@@stdext@@YAPAPAVCVideoFrame@@PAPAV1@00@Z 1000ff20 f i MixerControl.obj
 0001:0000ef20       ??$unchecked_copy@PAPAUIDispSvrRenderEngineNotify@@PAPAU1@@stdext@@YAPAPAUIDispSvrRenderEngineNotify@@PAPAU1@00@Z 1000ff20 f i RenderEngine.obj
 0001:0000ef50       ??$_Fill@PAPAUIDisplayVideoSource@@PAU1@@std@@YAXPAPAUIDisplayVideoSource@@0ABQAU1@@Z 1000ff50 f i VideoSourceMgr.obj
 0001:0000ef50       ??$_Fill@PAPAUIDispSvrRenderEngineNotify@@PAU1@@std@@YAXPAPAUIDispSvrRenderEngineNotify@@0ABQAU1@@Z 1000ff50 f i RenderEngine.obj
 0001:0000ef50       ??$_Fill@PAPAVCVideoFrame@@PAV1@@std@@YAXPAPAVCVideoFrame@@0ABQAV1@@Z 1000ff50 f i MixerControl.obj
 0001:0000ef60       ??$_Uninit_fill_n@PAPAPAUIMFSample@@IPAPAU1@V?$allocator@PAPAUIMFSample@@@std@@@std@@YAXPAPAPAUIMFSample@@IABQAPAU1@AAV?$allocator@PAPAUIMFSample@@@0@U_Scalar_ptr_iterator_tag@0@U_Range_checked_iterator_tag@0@@Z 1000ff60 f i VideoSourceEvr.obj
 0001:0000ef60       ??$_Uninit_fill_n@PAPAUVideoReferenceSample@DispSvr@@IPAU12@V?$allocator@PAUVideoReferenceSample@DispSvr@@@std@@@std@@YAXPAPAUVideoReferenceSample@DispSvr@@IABQAU12@AAV?$allocator@PAUVideoReferenceSample@DispSvr@@@0@U_Scalar_ptr_iterator_tag@0@U_Range_checked_iterator_tag@0@@Z 1000ff60 f i D3D9VideoPlane.obj
 0001:0000ef60       ??$unchecked_fill_n@PAPAUVideoReferenceSample@DispSvr@@IPAU12@@stdext@@YAXPAPAUVideoReferenceSample@DispSvr@@IABQAU12@@Z 1000ff60 f i D3D9VideoPlane.obj
 0001:0000ef60       ??$unchecked_uninitialized_fill_n@PAPAPAUIMFSample@@IPAPAU1@V?$allocator@PAPAUIMFSample@@@std@@@stdext@@YAXPAPAPAUIMFSample@@IABQAPAU1@AAV?$allocator@PAPAUIMFSample@@@std@@@Z 1000ff60 f i VideoSourceEvr.obj
 0001:0000ef60       ??$_Fill_n@PAPAUIDispSvrRenderEngineNotify@@IPAU1@@std@@YAXPAPAUIDispSvrRenderEngineNotify@@IABQAU1@U_Range_checked_iterator_tag@0@@Z 1000ff60 f i RenderEngine.obj
 0001:0000ef60       ??$_Uninit_fill_n@PAPAUIDispSvrRenderEngineNotify@@IPAU1@V?$allocator@PAUIDispSvrRenderEngineNotify@@@std@@@std@@YAXPAPAUIDispSvrRenderEngineNotify@@IABQAU1@AAV?$allocator@PAUIDispSvrRenderEngineNotify@@@0@U_Scalar_ptr_iterator_tag@0@U_Range_checked_iterator_tag@0@@Z 1000ff60 f i RenderEngine.obj
 0001:0000ef60       ??$_Fill_n@PAPAUVideoReferenceSample@DispSvr@@IPAU12@@std@@YAXPAPAUVideoReferenceSample@DispSvr@@IABQAU12@Urandom_access_iterator_tag@0@U_Range_checked_iterator_tag@0@@Z 1000ff60 f i D3D9VideoPlane.obj
 0001:0000ef60       ??$unchecked_uninitialized_fill_n@PAPAUIDisplayVideoSource@@IPAU1@V?$allocator@PAUIDisplayVideoSource@@@std@@@stdext@@YAXPAPAUIDisplayVideoSource@@IABQAU1@AAV?$allocator@PAUIDisplayVideoSource@@@std@@@Z 1000ff60 f i VideoSourceMgr.obj
 0001:0000ef60       ??$_Fill_n@PAPAVCVideoFrame@@IPAV1@@std@@YAXPAPAVCVideoFrame@@IABQAV1@U_Range_checked_iterator_tag@0@@Z 1000ff60 f i MixerControl.obj
 0001:0000ef60       ??$_Fill_n@PAPAVCVideoFrame@@IPAV1@@std@@YAXPAPAVCVideoFrame@@IABQAV1@Urandom_access_iterator_tag@0@U_Range_checked_iterator_tag@0@@Z 1000ff60 f i MixerControl.obj
 0001:0000ef60       ??$unchecked_fill_n@PAPAUIDispSvrRenderEngineNotify@@IPAU1@@stdext@@YAXPAPAUIDispSvrRenderEngineNotify@@IABQAU1@@Z 1000ff60 f i RenderEngine.obj
 0001:0000ef60       ??$unchecked_fill_n@PAPAUIDisplayVideoSource@@IPAU1@@stdext@@YAXPAPAUIDisplayVideoSource@@IABQAU1@@Z 1000ff60 f i VideoSourceMgr.obj
 0001:0000ef60       ??$_Fill_n@PAPAUIDispSvrRenderEngineNotify@@IPAU1@@std@@YAXPAPAUIDispSvrRenderEngineNotify@@IABQAU1@Urandom_access_iterator_tag@0@U_Range_checked_iterator_tag@0@@Z 1000ff60 f i RenderEngine.obj
 0001:0000ef60       ??$_Uninit_fill_n@PAPAUIDisplayVideoSource@@IPAU1@V?$allocator@PAUIDisplayVideoSource@@@std@@@std@@YAXPAPAUIDisplayVideoSource@@IABQAU1@AAV?$allocator@PAUIDisplayVideoSource@@@0@U_Scalar_ptr_iterator_tag@0@U_Range_checked_iterator_tag@0@@Z 1000ff60 f i VideoSourceMgr.obj
 0001:0000ef60       ??$_Fill_n@PAPAUVideoReferenceSample@DispSvr@@IPAU12@@std@@YAXPAPAUVideoReferenceSample@DispSvr@@IABQAU12@U_Range_checked_iterator_tag@0@@Z 1000ff60 f i D3D9VideoPlane.obj
 0001:0000ef60       ??$unchecked_fill_n@PAPAVCVideoFrame@@IPAV1@@stdext@@YAXPAPAVCVideoFrame@@IABQAV1@@Z 1000ff60 f i MixerControl.obj
 0001:0000ef60       ??$_Uninit_fill_n@PAPAVCVideoFrame@@IPAV1@V?$allocator@PAVCVideoFrame@@@std@@@std@@YAXPAPAVCVideoFrame@@IABQAV1@AAV?$allocator@PAVCVideoFrame@@@0@U_Scalar_ptr_iterator_tag@0@U_Range_checked_iterator_tag@0@@Z 1000ff60 f i MixerControl.obj
 0001:0000ef60       ??$_Fill_n@PAPAPAUIMFSample@@IPAPAU1@@std@@YAXPAPAPAUIMFSample@@IABQAPAU1@Urandom_access_iterator_tag@0@U_Range_checked_iterator_tag@0@@Z 1000ff60 f i VideoSourceEvr.obj
 0001:0000ef60       ??$_Fill_n@PAPAUIDisplayVideoSource@@IPAU1@@std@@YAXPAPAUIDisplayVideoSource@@IABQAU1@Urandom_access_iterator_tag@0@U_Range_checked_iterator_tag@0@@Z 1000ff60 f i VideoSourceMgr.obj
 0001:0000ef60       ??$unchecked_uninitialized_fill_n@PAPAUIDispSvrRenderEngineNotify@@IPAU1@V?$allocator@PAUIDispSvrRenderEngineNotify@@@std@@@stdext@@YAXPAPAUIDispSvrRenderEngineNotify@@IABQAU1@AAV?$allocator@PAUIDispSvrRenderEngineNotify@@@std@@@Z 1000ff60 f i RenderEngine.obj
 0001:0000ef60       ??$_Fill_n@PAPAUIDisplayVideoSource@@IPAU1@@std@@YAXPAPAUIDisplayVideoSource@@IABQAU1@U_Range_checked_iterator_tag@0@@Z 1000ff60 f i VideoSourceMgr.obj
 0001:0000ef60       ??$unchecked_uninitialized_fill_n@PAPAVCVideoFrame@@IPAV1@V?$allocator@PAVCVideoFrame@@@std@@@stdext@@YAXPAPAVCVideoFrame@@IABQAV1@AAV?$allocator@PAVCVideoFrame@@@std@@@Z 1000ff60 f i MixerControl.obj
 0001:0000ef60       ??$unchecked_fill_n@PAPAPAUIMFSample@@IPAPAU1@@stdext@@YAXPAPAPAUIMFSample@@IABQAPAU1@@Z 1000ff60 f i VideoSourceEvr.obj
 0001:0000ef60       ??$_Fill_n@PAPAPAUIMFSample@@IPAPAU1@@std@@YAXPAPAPAUIMFSample@@IABQAPAU1@U_Range_checked_iterator_tag@0@@Z 1000ff60 f i VideoSourceEvr.obj
 0001:0000ef60       ??$unchecked_uninitialized_fill_n@PAPAUVideoReferenceSample@DispSvr@@IPAU12@V?$allocator@PAUVideoReferenceSample@DispSvr@@@std@@@stdext@@YAXPAPAUVideoReferenceSample@DispSvr@@IABQAU12@AAV?$allocator@PAUVideoReferenceSample@DispSvr@@@std@@@Z 1000ff60 f i D3D9VideoPlane.obj
 0001:0000ef80       ??$_Copy_backward_opt@PAPAUIDisplayVideoSource@@PAPAU1@Urandom_access_iterator_tag@std@@@std@@YAPAPAUIDisplayVideoSource@@PAPAU1@00Urandom_access_iterator_tag@0@U_Scalar_ptr_iterator_tag@0@U_Range_checked_iterator_tag@0@@Z 1000ff80 f i VideoSourceMgr.obj
 0001:0000ef80       ??$_Copy_backward_opt@PAPAUIDispSvrRenderEngineNotify@@PAPAU1@Urandom_access_iterator_tag@std@@@std@@YAPAPAUIDispSvrRenderEngineNotify@@PAPAU1@00Urandom_access_iterator_tag@0@U_Scalar_ptr_iterator_tag@0@U_Range_checked_iterator_tag@0@@Z 1000ff80 f i RenderEngine.obj
 0001:0000ef80       ??$_Copy_backward_opt@PAPAVCVideoFrame@@PAPAV1@Urandom_access_iterator_tag@std@@@std@@YAPAPAVCVideoFrame@@PAPAV1@00Urandom_access_iterator_tag@0@U_Scalar_ptr_iterator_tag@0@U_Range_checked_iterator_tag@0@@Z 1000ff80 f i MixerControl.obj
 0001:0000efa0       ?QueryInterface@CVideoSourceMSEvr@@WM@AGJABU_GUID@@PAPAX@Z 1000ffa0 f i VideoSourceMSEvr.obj
 0001:0000efa0       ?QueryInterface@CVideoMixer@@WM@AGJABU_GUID@@PAPAX@Z 1000ffa0 f i MixerControl.obj
 0001:0000efa0       ?QueryInterface@CVideoSource@@WM@AGJABU_GUID@@PAPAX@Z 1000ffa0 f i VideoSource.obj
 0001:0000efa0       ?QueryInterface@CVideoSourceDO@@WM@AGJABU_GUID@@PAPAX@Z 1000ffa0 f i VideoSourceDO.obj
 0001:0000efa0       ?QueryInterface@CVideoSourceEx@@WM@AGJABU_GUID@@PAPAX@Z 1000ffa0 f i VideoSourceEx.obj
 0001:0000efa0       ?QueryInterface@CVideoSourceEvr@@WM@AGJABU_GUID@@PAPAX@Z 1000ffa0 f i VideoSourceEvr.obj
 0001:0000efb0       ?QueryInterface@CVideoMixer@@WBE@AGJABU_GUID@@PAPAX@Z 1000ffb0 f i MixerControl.obj
 0001:0000efb0       ?QueryInterface@CVideoSourceEx@@WBE@AGJABU_GUID@@PAPAX@Z 1000ffb0 f i VideoSourceEx.obj
 0001:0000efb0       ?QueryInterface@CVideoSourceDO@@WBE@AGJABU_GUID@@PAPAX@Z 1000ffb0 f i VideoSourceDO.obj
 0001:0000efb0       ?QueryInterface@CVideoSourceMSEvr@@WBE@AGJABU_GUID@@PAPAX@Z 1000ffb0 f i VideoSourceMSEvr.obj
 0001:0000efb0       ?QueryInterface@CVideoSourceEvr@@WBE@AGJABU_GUID@@PAPAX@Z 1000ffb0 f i VideoSourceEvr.obj
 0001:0000efc0       ?AddRef@CVideoSourceDO@@W7AGKXZ 1000ffc0 f i VideoSourceDO.obj
 0001:0000efc0       ?AddRef@CVideoSource@@W7AGKXZ 1000ffc0 f i VideoSource.obj
 0001:0000efc0       ?AddRef@CVideoMixer@@W7AGKXZ 1000ffc0 f i MixerControl.obj
 0001:0000efc0       ?AddRef@CRenderEngine@@W7AGKXZ 1000ffc0 f i RenderEngine.obj
 0001:0000efc0       ?AddRef@CVideoSourceEx@@W7AGKXZ 1000ffc0 f i VideoSourceEx.obj
 0001:0000efc0       ?AddRef@CVideoSourceMSEvr@@W7AGKXZ 1000ffc0 f i VideoSourceMSEvr.obj
 0001:0000efc0       ?AddRef@CVideoSourceEvr@@W7AGKXZ 1000ffc0 f i VideoSourceEvr.obj
 0001:0000efd0       ?AddRef@CVideoMixer@@WBA@AGKXZ 1000ffd0 f i MixerControl.obj
 0001:0000efd0       ?AddRef@CVideoSourceMSEvr@@WBA@AGKXZ 1000ffd0 f i VideoSourceMSEvr.obj
 0001:0000efd0       ?AddRef@CVideoSourceEx@@WBA@AGKXZ 1000ffd0 f i VideoSourceEx.obj
 0001:0000efd0       ?AddRef@CVideoSourceDO@@WBA@AGKXZ 1000ffd0 f i VideoSourceDO.obj
 0001:0000efd0       ?AddRef@CVideoSourceEvr@@WBA@AGKXZ 1000ffd0 f i VideoSourceEvr.obj
 0001:0000efe0       ??BD3DXCOLOR@@QBEKXZ       1000ffe0 f i MixerControl.obj
 0001:0000f170       ??1_CAutoLock@@QAE@XZ      10010170 f i Wizard.obj
 0001:0000f170       ??1CAutoLock@@QAE@XZ       10010170 f i MixerControl.obj
 0001:0000f180       ??1CUnknown@@UAE@XZ        10010180 f i MixerControl.obj
 0001:0000f1a0       ??0CPersistentInterfaceProxy@DispSvr@@QAE@XZ 100101a0 f   PersistentInterfaceProxy.obj
 0001:0000f1c0       ??1CPersistentInterfaceProxy@DispSvr@@QAE@XZ 100101c0 f   PersistentInterfaceProxy.obj
 0001:0000f1d0       ?GetInterface@CPersistentInterfaceProxy@DispSvr@@QAEJABU_GUID@@0PAPAX@Z 100101d0 f   PersistentInterfaceProxy.obj
 0001:0000f200       ?SetInstance@CPersistentInterfaceProxy@DispSvr@@QAEJABU_GUID@@PAUIUnknown@@@Z 10010200 f   PersistentInterfaceProxy.obj
 0001:0000f230       ??0CVideoMixerInterfaceProxy@CPersistentInterfaceProxy@DispSvr@@QAE@XZ 10010230 f   PersistentInterfaceProxy.obj
 0001:0000f260       ??_GCVideoMixerInterfaceProxy@CPersistentInterfaceProxy@DispSvr@@UAEPAXI@Z 10010260 f i PersistentInterfaceProxy.obj
 0001:0000f260       ??_ECVideoMixerInterfaceProxy@CPersistentInterfaceProxy@DispSvr@@UAEPAXI@Z 10010260 f i  CIL library: CIL module
 0001:0000f280       ??1CVideoMixerInterfaceProxy@CPersistentInterfaceProxy@DispSvr@@UAE@XZ 10010280 f   PersistentInterfaceProxy.obj
 0001:0000f2a0       ?SetInstance@CVideoMixerInterfaceProxy@CPersistentInterfaceProxy@DispSvr@@QAEJPAUIUnknown@@@Z 100102a0 f   PersistentInterfaceProxy.obj
 0001:0000f390       ?QueryInterface@CVideoMixerInterfaceProxy@CPersistentInterfaceProxy@DispSvr@@UAGJABU_GUID@@PAPAX@Z 10010390 f   PersistentInterfaceProxy.obj
 0001:0000f470       ?Release@CVideoMixerInterfaceProxy@CPersistentInterfaceProxy@DispSvr@@UAGKXZ 10010470 f   PersistentInterfaceProxy.obj
 0001:0000f470       ?AddRef@CVideoMixerInterfaceProxy@CPersistentInterfaceProxy@DispSvr@@UAGKXZ 10010470 f   PersistentInterfaceProxy.obj
 0001:0000f480       ?Execute@CVideoMixerInterfaceProxy@CPersistentInterfaceProxy@DispSvr@@UAGJXZ 10010480 f   PersistentInterfaceProxy.obj
 0001:0000f4a0       ?SetDestination@CVideoMixerInterfaceProxy@CPersistentInterfaceProxy@DispSvr@@UAGJPAUIUnknown@@PBU_NORMALIZEDRECT@@@Z 100104a0 f   PersistentInterfaceProxy.obj
 0001:0000f4c0       ?QueryCaps@CVideoMixerInterfaceProxy@CPersistentInterfaceProxy@DispSvr@@UAGJPAUMixerCaps@3@@Z 100104c0 f   PersistentInterfaceProxy.obj
 0001:0000f4e0       ?CreatePlane@CVideoMixerInterfaceProxy@CPersistentInterfaceProxy@DispSvr@@UAGJPAUPlaneInit@3@ABU_GUID@@PAPAX@Z 100104e0 f   PersistentInterfaceProxy.obj
 0001:0000f500       ?QueryPlaneFormatCount@CVideoMixerInterfaceProxy@CPersistentInterfaceProxy@DispSvr@@UAGJHPAI@Z 10010500 f   PersistentInterfaceProxy.obj
 0001:0000f520       ?QueryPlaneCaps@CVideoMixerInterfaceProxy@CPersistentInterfaceProxy@DispSvr@@UAGJHW4PLANE_FORMAT@3@PAUPlaneCaps@3@@Z 10010520 f   PersistentInterfaceProxy.obj
 0001:0000f540       ?SetBackgroundColor@CVideoMixerInterfaceProxy@CPersistentInterfaceProxy@DispSvr@@UAGJK@Z 10010540 f   PersistentInterfaceProxy.obj
 0001:0000f560       ?GetBackgroundColor@CVideoMixerInterfaceProxy@CPersistentInterfaceProxy@DispSvr@@UAGJPAK@Z 10010560 f   PersistentInterfaceProxy.obj
 0001:0000f580       ?SetLumaKey@CVideoMixerInterfaceProxy@CPersistentInterfaceProxy@DispSvr@@UAGJPBULumaKey@3@@Z 10010580 f   PersistentInterfaceProxy.obj
 0001:0000f5a0       ?GetLumaKey@CVideoMixerInterfaceProxy@CPersistentInterfaceProxy@DispSvr@@UAGJPAULumaKey@3@@Z 100105a0 f   PersistentInterfaceProxy.obj
 0001:0000f5c0       ?SetProperty@CVideoMixerInterfaceProxy@CPersistentInterfaceProxy@DispSvr@@UAGJPBUMixerProperty@3@@Z 100105c0 f   PersistentInterfaceProxy.obj
 0001:0000f5e0       ?GetProperty@CVideoMixerInterfaceProxy@CPersistentInterfaceProxy@DispSvr@@UAGJPAUMixerProperty@3@@Z 100105e0 f   PersistentInterfaceProxy.obj
 0001:0000f600       ?GetAvailableVideoProcessorModeCount@CVideoMixerInterfaceProxy@CPersistentInterfaceProxy@DispSvr@@UAGJPAI@Z 10010600 f   PersistentInterfaceProxy.obj
 0001:0000f600       ?GetVideoEffectManager@CVideoMixerInterfaceProxy@CPersistentInterfaceProxy@DispSvr@@UAGJPAPAUIUnknown@@@Z 10010600 f   PersistentInterfaceProxy.obj
 0001:0000f620       ?GetVideoProcessorCaps@CVideoMixerInterfaceProxy@CPersistentInterfaceProxy@DispSvr@@UAGJPBU_GUID@@PAUVideoProcessorCaps@3@@Z 10010620 f   PersistentInterfaceProxy.obj
 0001:0000f640       ?SetVideoProcessorMode@CVideoMixerInterfaceProxy@CPersistentInterfaceProxy@DispSvr@@UAGJPBU_GUID@@@Z 10010640 f   PersistentInterfaceProxy.obj
 0001:0000f660       ?GetFilterValueRange@CVideoMixerInterfaceProxy@CPersistentInterfaceProxy@DispSvr@@UAGJW4VIDEO_FILTER@3@PAUValueRange@3@@Z 10010660 f   PersistentInterfaceProxy.obj
 0001:0000f660       ?QueryPlaneFormat@CVideoMixerInterfaceProxy@CPersistentInterfaceProxy@DispSvr@@UAGJHPAW4PLANE_FORMAT@3@@Z 10010660 f   PersistentInterfaceProxy.obj
 0001:0000f680       ?SetFilterValue@CVideoMixerInterfaceProxy@CPersistentInterfaceProxy@DispSvr@@UAGJW4VIDEO_FILTER@3@M@Z 10010680 f   PersistentInterfaceProxy.obj
 0001:0000f6b0       ?GetFilterValue@CVideoMixerInterfaceProxy@CPersistentInterfaceProxy@DispSvr@@UAGJW4VIDEO_FILTER@3@PAM@Z 100106b0 f   PersistentInterfaceProxy.obj
 0001:0000f6b0       ?SetClearRectangles@CVideoMixerInterfaceProxy@CPersistentInterfaceProxy@DispSvr@@UAGJIPAUClearRect@3@@Z 100106b0 f   PersistentInterfaceProxy.obj
 0001:0000f6d0       ?GetAvailableVideoProcessorModes@CVideoMixerInterfaceProxy@CPersistentInterfaceProxy@DispSvr@@UAGJPAU_GUID@@@Z 100106d0 f   PersistentInterfaceProxy.obj
 0001:0000f6d0       ?SetVideoEffectManager@CVideoMixerInterfaceProxy@CPersistentInterfaceProxy@DispSvr@@UAGJPAUIUnknown@@@Z 100106d0 f   PersistentInterfaceProxy.obj
 0001:0000f6f0       ?GetPlaneConfig@CVideoMixerInterfaceProxy@CPersistentInterfaceProxy@DispSvr@@UAEABUD3D9PlaneConfig@3@H@Z 100106f0 f   PersistentInterfaceProxy.obj
 0001:0000f710       ?OnVideoPositionChange@CVideoMixerInterfaceProxy@CPersistentInterfaceProxy@DispSvr@@UAGXXZ 10010710 f   PersistentInterfaceProxy.obj
 0001:0000f730       ?OnDestroyPlane@CVideoMixerInterfaceProxy@CPersistentInterfaceProxy@DispSvr@@UAGXH@Z 10010730 f   PersistentInterfaceProxy.obj
 0001:0000f750       ?GetVideoProcessorMode@CVideoMixerInterfaceProxy@CPersistentInterfaceProxy@DispSvr@@UAGJPAU_GUID@@@Z 10010750 f   PersistentInterfaceProxy.obj
 0001:0000f750       ?OnCreatePlane@CVideoMixerInterfaceProxy@CPersistentInterfaceProxy@DispSvr@@UAGJABUPlaneInit@3@@Z 10010750 f   PersistentInterfaceProxy.obj
 0001:0000f770       ?QueryInterface@CVideoMixerInterfaceProxy@CPersistentInterfaceProxy@DispSvr@@WM@AGJABU_GUID@@PAPAX@Z 10010770 f i PersistentInterfaceProxy.obj
 0001:0000f780       ?Release@CVideoMixerInterfaceProxy@CPersistentInterfaceProxy@DispSvr@@WM@AGKXZ 10010780 f i PersistentInterfaceProxy.obj
 0001:0000f780       ?AddRef@CVideoMixerInterfaceProxy@CPersistentInterfaceProxy@DispSvr@@WM@AGKXZ 10010780 f i PersistentInterfaceProxy.obj
 0001:0000f790       ?AddRef@CVideoMixerInterfaceProxy@CPersistentInterfaceProxy@DispSvr@@W7AGKXZ 10010790 f i PersistentInterfaceProxy.obj
 0001:0000f790       ?Release@CVideoMixerInterfaceProxy@CPersistentInterfaceProxy@DispSvr@@W7AGKXZ 10010790 f i PersistentInterfaceProxy.obj
 0001:0000f7a0       ?QueryInterface@CVideoMixerInterfaceProxy@CPersistentInterfaceProxy@DispSvr@@W3AGJABU_GUID@@PAPAX@Z 100107a0 f i PersistentInterfaceProxy.obj
 0001:0000f7b0       ?QueryInterface@CVideoMixerInterfaceProxy@CPersistentInterfaceProxy@DispSvr@@W7AGJABU_GUID@@PAPAX@Z 100107b0 f i PersistentInterfaceProxy.obj
 0001:0000f7c0       ?Release@CVideoMixerInterfaceProxy@CPersistentInterfaceProxy@DispSvr@@W3AGKXZ 100107c0 f i PersistentInterfaceProxy.obj
 0001:0000f7c0       ?AddRef@CVideoMixerInterfaceProxy@CPersistentInterfaceProxy@DispSvr@@W3AGKXZ 100107c0 f i PersistentInterfaceProxy.obj
 0001:0000f7d0       ?GetRegistryValue@COSVersionInitializer@@UAEJW4REGISTRY_TYPE@DispSvr@@AAJ@Z 100107d0 f i RegistryService.obj
 0001:0000f910       ?GetOSVersion@COSVersionInitializer@@SAKKK@Z 10010910 f i RegistryService.obj
 0001:0000f950       ??0CRegistryService@DispSvr@@QAE@XZ 10010950 f   RegistryService.obj
 0001:0000f9e0       ??0COSVersionInitializer@@QAE@XZ 100109e0 f i RegistryService.obj
 0001:0000f9f0       ?Set@CRegistryService@DispSvr@@QAEJW4REGISTRY_TYPE@2@J@Z 100109f0 f   RegistryService.obj
 0001:0000fa30       ?Get@CRegistryService@DispSvr@@QAEJW4REGISTRY_TYPE@2@PAJ@Z 10010a30 f   RegistryService.obj
 0001:0000fab0       ?Clear@CRegistryService@DispSvr@@QAEJW4REGISTRY_TYPE@2@@Z 10010ab0 f   RegistryService.obj
 0001:0000faf0       ?BindInitializer@CRegistryService@DispSvr@@QAEJW4REGISTRY_TYPE@2@PAUIRegistryInitializer@2@@Z 10010af0 f   RegistryService.obj
 0001:0000fb30       ??0?$Singleton@VCRegistryService@DispSvr@@@DispSvr@@QAE@XZ 10010b30 f i RegistryService.obj
 0001:0000fb40       ??0?$vector@U_Registry@CRegistryService@DispSvr@@V?$allocator@U_Registry@CRegistryService@DispSvr@@@std@@@std@@QAE@I@Z 10010b40 f i RegistryService.obj
 0001:0000fb70       ??A?$vector@U_Registry@CRegistryService@DispSvr@@V?$allocator@U_Registry@CRegistryService@DispSvr@@@std@@@std@@QAEAAU_Registry@CRegistryService@DispSvr@@I@Z 10010b70 f i RegistryService.obj
 0001:0000fba0       ?_Construct_n@?$vector@U_Registry@CRegistryService@DispSvr@@V?$allocator@U_Registry@CRegistryService@DispSvr@@@std@@@std@@QAEXIABU_Registry@CRegistryService@DispSvr@@@Z 10010ba0 f i RegistryService.obj
 0001:0000fc50       ?size@?$vector@U_Registry@CRegistryService@DispSvr@@V?$allocator@U_Registry@CRegistryService@DispSvr@@@std@@@std@@QBEIXZ 10010c50 f i RegistryService.obj
 0001:0000fc70       ??0?$_Vector_val@U_Registry@CRegistryService@DispSvr@@V?$allocator@U_Registry@CRegistryService@DispSvr@@@std@@@std@@IAE@V?$allocator@U_Registry@CRegistryService@DispSvr@@@1@@Z 10010c70 f i RegistryService.obj
 0001:0000fc80       ?_Buy@?$vector@U_Registry@CRegistryService@DispSvr@@V?$allocator@U_Registry@CRegistryService@DispSvr@@@std@@@std@@IAE_NI@Z 10010c80 f i RegistryService.obj
 0001:0000fcc0       ?_Ufill@?$vector@U_Registry@CRegistryService@DispSvr@@V?$allocator@U_Registry@CRegistryService@DispSvr@@@std@@@std@@IAEPAU_Registry@CRegistryService@DispSvr@@PAU345@IABU345@@Z 10010cc0 f i RegistryService.obj
 0001:0000fce0       ??0?$allocator@U_Registry@CRegistryService@DispSvr@@@std@@QAE@ABV01@@Z 10010ce0 f i RegistryService.obj
 0001:0000fcf0       ?max_size@?$allocator@U_Registry@CRegistryService@DispSvr@@@std@@QBEIXZ 10010cf0 f i RegistryService.obj
 0001:0000fcf0       ?max_size@?$vector@U_Registry@CRegistryService@DispSvr@@V?$allocator@U_Registry@CRegistryService@DispSvr@@@std@@@std@@QBEIXZ 10010cf0 f i RegistryService.obj
 0001:0000fd00       ?allocate@?$allocator@U_Registry@CRegistryService@DispSvr@@@std@@QAEPAU_Registry@CRegistryService@DispSvr@@I@Z 10010d00 f i RegistryService.obj
 0001:0000fd10       ??$unchecked_uninitialized_fill_n@PAU_Registry@CRegistryService@DispSvr@@IU123@V?$allocator@U_Registry@CRegistryService@DispSvr@@@std@@@stdext@@YAXPAU_Registry@CRegistryService@DispSvr@@IABU123@AAV?$allocator@U_Registry@CRegistryService@DispSvr@@@std@@@Z 10010d10 f i RegistryService.obj
 0001:0000fd30       ??$_Uninit_fill_n@PAU_Registry@CRegistryService@DispSvr@@IU123@V?$allocator@U_Registry@CRegistryService@DispSvr@@@std@@@std@@YAXPAU_Registry@CRegistryService@DispSvr@@IABU123@AAV?$allocator@U_Registry@CRegistryService@DispSvr@@@0@U_Nonscalar_ptr_iterator_tag@0@U_Range_checked_iterator_tag@0@@Z 10010d30 f i RegistryService.obj
 0001:0000fd60       ?construct@?$allocator@U_Registry@CRegistryService@DispSvr@@@std@@QAEXPAU_Registry@CRegistryService@DispSvr@@ABU345@@Z 10010d60 f i RegistryService.obj
 0001:0000fd60       ??$_Construct@U_Registry@CRegistryService@DispSvr@@U123@@std@@YAXPAU_Registry@CRegistryService@DispSvr@@ABU123@@Z 10010d60 f i RegistryService.obj
 0001:0000fd80       ?Update@CRenderClock@DispSvr@@QAE_NPBX@Z 10010d80 f i RenderEngine.obj
 0001:0000fdc0       ?Expired@CRenderClock@DispSvr@@QAE_NXZ 10010dc0 f i RenderEngine.obj
 0001:0000fe00       ?IsExclusiveMode@CD3D9Helper@@QBE_NXZ 10010e00 f i RenderEngine.obj
 0001:0000fe10       ?IsFlipEx@CD3D9Helper@@QBE_NXZ 10010e10 f i RenderEngine.obj
 0001:0000fe20       ??0CRenderEngine@@QAE@PAUIUnknown@@PAJ@Z 10010e20 f   RenderEngine.obj
 0001:00010050       ??_GCRenderEngine@@UAEPAXI@Z 10011050 f i RenderEngine.obj
 0001:00010050       ??_ECRenderEngine@@UAEPAXI@Z 10011050 f i  CIL library: CIL module
 0001:00010070       ??1CRenderEngine@@UAE@XZ   10011070 f   RenderEngine.obj
 0001:000101c0       ?NonDelegatingQueryInterface@CRenderEngine@@UAGJABU_GUID@@PAPAX@Z 100111c0 f   RenderEngine.obj
 0001:00010310       ?Initialize@CRenderEngine@@UAGJPAUHWND__@@IIPAUIDisplayLock@@K@Z 10011310 f   RenderEngine.obj
 0001:000105c0       ?Terminate@CRenderEngine@@UAGJXZ 100115c0 f   RenderEngine.obj
 0001:00010670       ?WaitDeviceChange@CRenderEngine@@AAEJXZ 10011670 f   RenderEngine.obj
 0001:000106b0       ?GetBackBufferSize@CRenderEngine@@UAGJPAI0@Z 100116b0 f   RenderEngine.obj
 0001:00010720       ?RenderNoWindowOutput@CRenderEngine@@AAEJXZ 10011720 f   RenderEngine.obj
 0001:00010780       ?RenderDispObj@CRenderEngine@@AAEJXZ 10011780 f   RenderEngine.obj
 0001:00010860       ?RenderScene@CRenderEngine@@AAEJK@Z 10011860 f   RenderEngine.obj
 0001:00010880       ?Present@CRenderEngine@@AAEJXZ 10011880 f   RenderEngine.obj
 0001:000108a0       ?RenderSceneUnordered@CRenderEngine@@AAEJXZ 100118a0 f   RenderEngine.obj
 0001:00010a40       ?PresentUnordered@CRenderEngine@@AAEJXZ 10011a40 f   RenderEngine.obj
 0001:00010c30       ?ProcessLostDevice@CRenderEngine@@UAGJXZ 10011c30 f   RenderEngine.obj
 0001:00010e00       ?GetRootObject@CRenderEngine@@UAGJABU_GUID@@PAPAX@Z 10011e00 f   RenderEngine.obj
 0001:00010e70       ?SetRootObject@CRenderEngine@@UAGJPAUIDisplayObject@@@Z 10011e70 f   RenderEngine.obj
 0001:00010f20       ?SetFrameRate@CRenderEngine@@UAGJH@Z 10011f20 f   RenderEngine.obj
 0001:00010fa0       ?GetMixingPrefs@CRenderEngine@@UAGJPAK@Z 10011fa0 f   RenderEngine.obj
 0001:00010fd0       ?SetDisplayServer@CRenderEngine@@UAGJPAUIDisplayServer@@@Z 10011fd0 f   RenderEngine.obj
 0001:00011070       ?GetDisplayServer@CRenderEngine@@UAGJPAPAUIDisplayServer@@@Z 10012070 f   RenderEngine.obj
 0001:000110c0       ?SetDisplayWindow@CRenderEngine@@UAGJPAUHWND__@@PAUtagRECT@@@Z 100120c0 f   RenderEngine.obj
 0001:00011350       ?Get3DDevice@CRenderEngine@@UAGJPAPAUIUnknown@@@Z 10012350 f   RenderEngine.obj
 0001:00011390       ?Set3DDevice@CRenderEngine@@UAGJPAUIUnknown@@@Z 10012390 f   RenderEngine.obj
 0001:00011440       ?GetDisplayWindow@CRenderEngine@@UAGJPAPAUHWND__@@PAUtagRECT@@@Z 10012440 f   RenderEngine.obj
 0001:00011490       ?GetBackgroundColor@CRenderEngine@@UAGJPAK@Z 10012490 f   RenderEngine.obj
 0001:000114b0       ?SetBackgroundColor@CRenderEngine@@UAGJK@Z 100124b0 f   RenderEngine.obj
 0001:00011500       ?GetLock@CRenderEngine@@UAGJPAPAUIDisplayLock@@@Z 10012500 f   RenderEngine.obj
 0001:00011530       ?EnableRendering@CRenderEngine@@UAGJH@Z 10012530 f   RenderEngine.obj
 0001:000115e0       ?AdviseEventNotify@CRenderEngine@@UAGJPAUIDispSvrRenderEngineNotify@@@Z 100125e0 f   RenderEngine.obj
 0001:00011720       ?UnAdviseEventNotify@CRenderEngine@@UAGJPAUIDispSvrRenderEngineNotify@@@Z 10012720 f   RenderEngine.obj
 0001:00011830       ?NotifyRenderEngineEvent@CRenderEngine@@AAEXW4DispSvrEngineEvent@@KK@Z 10012830 f   RenderEngine.obj
 0001:000118b0       ?ProcessWindowMessage@CRenderEngine@@UAGJIIJ@Z 100128b0 f   RenderEngine.obj
 0001:00011a30       ?ProcessRequest@CRenderEngine@@UAGJKKK@Z 10012a30 f   RenderEngine.obj
 0001:00011ee0       ?Register@CRenderEngine@@UAGJPAUIDisplayEventHandler@@PAX@Z 10012ee0 f   RenderEngine.obj
 0001:00011f70       ?Unregister@CRenderEngine@@UAGJPAUIDisplayEventHandler@@@Z 10012f70 f   RenderEngine.obj
 0001:00012080       ?NotifyDisplayEvent@CRenderEngine@@AAEXW4DisplayEvent@@KK@Z 10013080 f   RenderEngine.obj
 0001:00012110       ?CreateD3DDevice@CRenderEngine@@AAEJXZ 10013110 f   RenderEngine.obj
 0001:00012190       ?ReleaseD3DDevice@CRenderEngine@@AAEJXZ 10013190 f   RenderEngine.obj
 0001:000121d0       ?ConfigureResource@CRenderEngine@@AAEJ_N@Z 100131d0 f   RenderEngine.obj
 0001:00012470       ?SetPreferredMixerPresenter@CRenderEngine@@AAEJAAU_GUID@@0_N@Z 10013470 f   RenderEngine.obj
 0001:00012840       ?StartRenderingThread@CRenderEngine@@UAGJXZ 10013840 f   RenderEngine.obj
 0001:00012920       ?StopRenderingThread@CRenderEngine@@UAGJXZ 10013920 f   RenderEngine.obj
 0001:00012970       ?NodeRequest@CRenderEngine@@UAGJKKKPAUIDisplayObject@@@Z 10013970 f   RenderEngine.obj
 0001:00012a30       ?SetColorKey@CRenderEngine@@UAGJK@Z 10013a30 f   RenderEngine.obj
 0001:00012a70       ?GetColorKey@CRenderEngine@@UAGJPAK@Z 10013a70 f   RenderEngine.obj
 0001:00012a90       ?GetConfigFlags@CRenderEngine@@UAGJPAK@Z 10013a90 f   RenderEngine.obj
 0001:00012b00       ?SetProperty@CRenderEngine@@UAGJABU_GUID@@KPAXK1K@Z 10013b00 f   RenderEngine.obj
 0001:00012b10       ?GetProperty@CRenderEngine@@UAGJABU_GUID@@KPAXK1KPAK@Z 10013b10 f   RenderEngine.obj
 0001:00013010       ?QueryPropertySupported@CRenderEngine@@UAGJABU_GUID@@KPAK@Z 10014010 f   RenderEngine.obj
 0001:000130b0       ?GetRecomFPS@CRenderEngine@@UAGJPAK@Z 100140b0 f   RenderEngine.obj
 0001:00013110       ?UpdateMainVideoTime@CRenderEngine@@UAGJPAX@Z 10014110 f   RenderEngine.obj
 0001:00013160       ?RenderLoop@CRenderEngine@@AAEJXZ 10014160 f   RenderEngine.obj
 0001:00013490       ?RenderThreadProc@CRenderEngine@@CGIPAX@Z 10014490 f   RenderEngine.obj
 0001:000134e0       ?SetCustomizedOutput@CRenderEngine@@AAEJHK@Z 100144e0 f   RenderEngine.obj
 0001:000136c0       ?GetRecomVideoPixelArea@CRenderEngine@@UAGJPAK@Z 100146c0 f   RenderEngine.obj
 0001:00013720       ?NotifyDWMQueuing@CRenderEngine@@AAEJH@Z 10014720 f   RenderEngine.obj
 0001:00013820       ?ProcessDWM@CRenderEngine@@AAEJH@Z 10014820 f   RenderEngine.obj
 0001:00013930       ?UpdateHJDetectDesc@CRenderEngine@@AAEJXZ 10014930 f   RenderEngine.obj
 0001:00013990       ?ResetDevice@CRenderEngine@@AAEJXZ 10014990 f   RenderEngine.obj
 0001:00013a10       ?InitResources@CRenderEngine@@AAEJ_N@Z 10014a10 f   RenderEngine.obj
 0001:00013c30       ?CheckDeviceState@CRenderEngine@@AAEJXZ 10014c30 f   RenderEngine.obj
 0001:00013ce0       ?GenerateConfigParamFromEngine@CRenderEngine@@AAEJAAUConfigParam@CD3D9Helper@@@Z 10014ce0 f   RenderEngine.obj
 0001:00013d60       ?UpdateDisplayWindow@CRenderEngine@@AAEJXZ 10014d60 f   RenderEngine.obj
 0001:00013db0       ?ConfigureHDMIStereoBeforeDeviceReset@CRenderEngine@@AAEJXZ 10014db0 f   RenderEngine.obj
 0001:00013fe0       ?UpdateOverlayStatus@CRenderEngine@@AAEXHJ@Z 10014fe0 f   RenderEngine.obj
 0001:00014050       ?CoCreateInstance@?$CComPtrBase@UIDisplayObject@@@ATL@@QAEJABU_GUID@@PAUIUnknown@@K@Z 10015050 f i RenderEngine.obj
 0001:00014070       ?GetInstance@?$Singleton@VCServerStateEventSink@DispSvr@@@DispSvr@@SAPAVCServerStateEventSink@2@XZ 10015070 f i RenderEngine.obj
 0001:00014080       ?GetInstance@?$Singleton@VCRenderClock@DispSvr@@@DispSvr@@SAPAVCRenderClock@2@XZ 10015080 f i RenderEngine.obj
 0001:00014090       ??0?$CObjectCounter@VCRenderEngine@@@DispSvr@@QAE@XZ 10015090 f i RenderEngine.obj
 0001:000140b0       ??1?$CObjectCounter@VCRenderEngine@@@DispSvr@@QAE@XZ 100150b0 f i RenderEngine.obj
 0001:000140c0       ?insert@?$vector@UEventHandler@CRenderEngine@@V?$allocator@UEventHandler@CRenderEngine@@@std@@@std@@QAE?AV?$_Vector_iterator@UEventHandler@CRenderEngine@@V?$allocator@UEventHandler@CRenderEngine@@@std@@@2@V32@ABUEventHandler@CRenderEngine@@@Z 100150c0 f i RenderEngine.obj
 0001:000140c0       ?insert@?$vector@UDisplayObjectInfo@IParentDisplayObjectImpl@@V?$allocator@UDisplayObjectInfo@IParentDisplayObjectImpl@@@std@@@std@@QAE?AV?$_Vector_iterator@UDisplayObjectInfo@IParentDisplayObjectImpl@@V?$allocator@UDisplayObjectInfo@IParentDisplayObjectImpl@@@std@@@2@V32@ABUDisplayObjectInfo@IParentDisplayObjectImpl@@@Z 100150c0 f i CompositeDO.obj
 0001:00014150       ?erase@?$vector@UDisplayObjectInfo@IParentDisplayObjectImpl@@V?$allocator@UDisplayObjectInfo@IParentDisplayObjectImpl@@@std@@@std@@QAE?AV?$_Vector_iterator@UDisplayObjectInfo@IParentDisplayObjectImpl@@V?$allocator@UDisplayObjectInfo@IParentDisplayObjectImpl@@@std@@@2@V32@@Z 10015150 f i CompositeDO.obj
 0001:00014150       ?erase@?$vector@UEventHandler@CRenderEngine@@V?$allocator@UEventHandler@CRenderEngine@@@std@@@std@@QAE?AV?$_Vector_iterator@UEventHandler@CRenderEngine@@V?$allocator@UEventHandler@CRenderEngine@@@std@@@2@V32@@Z 10015150 f i RenderEngine.obj
 0001:00014150       ?erase@?$vector@UEffect@CD3D9VideoEffect3DManager@DispSvr@@V?$allocator@UEffect@CD3D9VideoEffect3DManager@DispSvr@@@std@@@std@@QAE?AV?$_Vector_iterator@UEffect@CD3D9VideoEffect3DManager@DispSvr@@V?$allocator@UEffect@CD3D9VideoEffect3DManager@DispSvr@@@std@@@2@V32@@Z 10015150 f i D3D9VideoEffect3DManager.obj
 0001:00014190       ?push_back@?$vector@PAUIDispSvrRenderEngineNotify@@V?$allocator@PAUIDispSvrRenderEngineNotify@@@std@@@std@@QAEXABQAUIDispSvrRenderEngineNotify@@@Z 10015190 f i RenderEngine.obj
 0001:000141f0       ?erase@?$vector@PAUIDisplayVideoSource@@V?$allocator@PAUIDisplayVideoSource@@@std@@@std@@QAE?AV?$_Vector_iterator@PAUIDisplayVideoSource@@V?$allocator@PAUIDisplayVideoSource@@@std@@@2@V32@@Z 100151f0 f i VideoSourceMgr.obj
 0001:000141f0       ?erase@?$vector@PAVCVideoFrame@@V?$allocator@PAVCVideoFrame@@@std@@@std@@QAE?AV?$_Vector_iterator@PAVCVideoFrame@@V?$allocator@PAVCVideoFrame@@@std@@@2@V32@@Z 100151f0 f i MixerControl.obj
 0001:000141f0       ?erase@?$vector@PAUIDispSvrRenderEngineNotify@@V?$allocator@PAUIDispSvrRenderEngineNotify@@@std@@@std@@QAE?AV?$_Vector_iterator@PAUIDispSvrRenderEngineNotify@@V?$allocator@PAUIDispSvrRenderEngineNotify@@@std@@@2@V32@@Z 100151f0 f i RenderEngine.obj
 0001:00014230       ??E?$_Vector_const_iterator@PAUIDisplayVideoSource@@V?$allocator@PAUIDisplayVideoSource@@@std@@@std@@QAEAAV01@XZ 10015230 f i VideoSourceMgr.obj
 0001:00014230       ??E?$_Vector_const_iterator@PAVCVideoFrame@@V?$allocator@PAVCVideoFrame@@@std@@@std@@QAEAAV01@XZ 10015230 f i MixerControl.obj
 0001:00014230       ??E?$_Vector_const_iterator@PAUIDispSvrRenderEngineNotify@@V?$allocator@PAUIDispSvrRenderEngineNotify@@@std@@@std@@QAEAAV01@XZ 10015230 f i RenderEngine.obj
 0001:00014230       ??E?$_Vector_iterator@PAUIDisplayVideoSource@@V?$allocator@PAUIDisplayVideoSource@@@std@@@std@@QAEAAV01@XZ 10015230 f i VideoSourceMgr.obj
 0001:00014230       ??E?$_Vector_iterator@PAVCVideoFrame@@V?$allocator@PAVCVideoFrame@@@std@@@std@@QAEAAV01@XZ 10015230 f i MixerControl.obj
 0001:00014230       ??E?$_Vector_iterator@PAUIDispSvrRenderEngineNotify@@V?$allocator@PAUIDispSvrRenderEngineNotify@@@std@@@std@@QAEAAV01@XZ 10015230 f i RenderEngine.obj
 0001:00014260       ?size@?$vector@UDisplayObjectInfo@IParentDisplayObjectImpl@@V?$allocator@UDisplayObjectInfo@IParentDisplayObjectImpl@@@std@@@std@@QBEIXZ 10015260 f i CompositeDO.obj
 0001:00014260       ?size@?$vector@UEffect@CD3D9VideoEffect3DManager@DispSvr@@V?$allocator@UEffect@CD3D9VideoEffect3DManager@DispSvr@@@std@@@std@@QBEIXZ 10015260 f i D3D9VideoEffect3DManager.obj
 0001:00014260       ?size@?$vector@UEventHandler@CRenderEngine@@V?$allocator@UEventHandler@CRenderEngine@@@std@@@std@@QBEIXZ 10015260 f i RenderEngine.obj
 0001:00014280       ?_Buy@?$vector@UEventHandler@CRenderEngine@@V?$allocator@UEventHandler@CRenderEngine@@@std@@@std@@IAE_NI@Z 10015280 f i RenderEngine.obj
 0001:00014280       ?_Buy@?$vector@UDisplayObjectInfo@IParentDisplayObjectImpl@@V?$allocator@UDisplayObjectInfo@IParentDisplayObjectImpl@@@std@@@std@@IAE_NI@Z 10015280 f i CompositeDO.obj
 0001:000142b0       ??1?$vector@PAVCVideoFrame@@V?$allocator@PAVCVideoFrame@@@std@@@std@@QAE@XZ 100152b0 f i MixerControl.obj
 0001:000142b0       ??1?$vector@UEffect@CD3D9VideoEffect3DManager@DispSvr@@V?$allocator@UEffect@CD3D9VideoEffect3DManager@DispSvr@@@std@@@std@@QAE@XZ 100152b0 f i D3D9VideoEffect3DManager.obj
 0001:000142b0       ??1?$vector@UDisplayObjectInfo@IParentDisplayObjectImpl@@V?$allocator@UDisplayObjectInfo@IParentDisplayObjectImpl@@@std@@@std@@QAE@XZ 100152b0 f i CompositeDO.obj
 0001:000142b0       ?_Tidy@?$vector@PAUIDisplayVideoSource@@V?$allocator@PAUIDisplayVideoSource@@@std@@@std@@IAEXXZ 100152b0 f i VideoSourceMgr.obj
 0001:000142b0       ?_Tidy@?$vector@UEventHandler@CRenderEngine@@V?$allocator@UEventHandler@CRenderEngine@@@std@@@std@@IAEXXZ 100152b0 f i RenderEngine.obj
 0001:000142b0       ?_Tidy@?$vector@UEffect@CD3D9VideoEffect3DManager@DispSvr@@V?$allocator@UEffect@CD3D9VideoEffect3DManager@DispSvr@@@std@@@std@@IAEXXZ 100152b0 f i D3D9VideoEffect3DManager.obj
 0001:000142b0       ??1?$vector@UEventHandler@CRenderEngine@@V?$allocator@UEventHandler@CRenderEngine@@@std@@@std@@QAE@XZ 100152b0 f i RenderEngine.obj
 0001:000142b0       ?_Tidy@?$vector@UDisplayObjectInfo@IParentDisplayObjectImpl@@V?$allocator@UDisplayObjectInfo@IParentDisplayObjectImpl@@@std@@@std@@IAEXXZ 100152b0 f i CompositeDO.obj
 0001:000142b0       ??1?$vector@PAUIDisplayVideoSource@@V?$allocator@PAUIDisplayVideoSource@@@std@@@std@@QAE@XZ 100152b0 f i VideoSourceMgr.obj
 0001:000142b0       ?_Tidy@?$vector@PAVCVideoFrame@@V?$allocator@PAVCVideoFrame@@@std@@@std@@IAEXXZ 100152b0 f i MixerControl.obj
 0001:000142b0       ??1?$vector@PAUIDispSvrRenderEngineNotify@@V?$allocator@PAUIDispSvrRenderEngineNotify@@@std@@@std@@QAE@XZ 100152b0 f i RenderEngine.obj
 0001:000142b0       ?_Tidy@?$vector@PAUIDispSvrRenderEngineNotify@@V?$allocator@PAUIDispSvrRenderEngineNotify@@@std@@@std@@IAEXXZ 100152b0 f i RenderEngine.obj
 0001:000142e0       ?_Insert_n@?$vector@UDisplayObjectInfo@IParentDisplayObjectImpl@@V?$allocator@UDisplayObjectInfo@IParentDisplayObjectImpl@@@std@@@std@@IAEXV?$_Vector_iterator@UDisplayObjectInfo@IParentDisplayObjectImpl@@V?$allocator@UDisplayObjectInfo@IParentDisplayObjectImpl@@@std@@@2@IABUDisplayObjectInfo@IParentDisplayObjectImpl@@@Z 100152e0 f i CompositeDO.obj
 0001:000142e0       ?_Insert_n@?$vector@UEventHandler@CRenderEngine@@V?$allocator@UEventHandler@CRenderEngine@@@std@@@std@@IAEXV?$_Vector_iterator@UEventHandler@CRenderEngine@@V?$allocator@UEventHandler@CRenderEngine@@@std@@@2@IABUEventHandler@CRenderEngine@@@Z 100152e0 f i RenderEngine.obj
 0001:00014510       ??D?$_Vector_const_iterator@PAUIDisplayVideoSource@@V?$allocator@PAUIDisplayVideoSource@@@std@@@std@@QBEABQAUIDisplayVideoSource@@XZ 10015510 f i VideoSourceMgr.obj
 0001:00014510       ??D?$_Vector_iterator@PAVCVideoFrame@@V?$allocator@PAVCVideoFrame@@@std@@@std@@QBEAAPAVCVideoFrame@@XZ 10015510 f i MixerControl.obj
 0001:00014510       ??D?$_Vector_const_iterator@UEffect@CD3D9VideoEffect3DManager@DispSvr@@V?$allocator@UEffect@CD3D9VideoEffect3DManager@DispSvr@@@std@@@std@@QBEABUEffect@CD3D9VideoEffect3DManager@DispSvr@@XZ 10015510 f i D3D9VideoEffect3DManager.obj
 0001:00014510       ??C?$_Vector_iterator@UCEvrVideoSample@CVideoSamplePool@@V?$allocator@UCEvrVideoSample@CVideoSamplePool@@@std@@@std@@QBEPAUCEvrVideoSample@CVideoSamplePool@@XZ 10015510 f i VideoSourceEvr.obj
 0001:00014510       ??C?$_Vector_iterator@UEffect@CD3D9VideoEffect3DManager@DispSvr@@V?$allocator@UEffect@CD3D9VideoEffect3DManager@DispSvr@@@std@@@std@@QBEPAUEffect@CD3D9VideoEffect3DManager@DispSvr@@XZ 10015510 f i D3D9VideoEffect3DManager.obj
 0001:00014510       ??D?$_Vector_iterator@PAUIDispSvrRenderEngineNotify@@V?$allocator@PAUIDispSvrRenderEngineNotify@@@std@@@std@@QBEAAPAUIDispSvrRenderEngineNotify@@XZ 10015510 f i RenderEngine.obj
 0001:00014510       ??D?$_Vector_iterator@UEventHandler@CRenderEngine@@V?$allocator@UEventHandler@CRenderEngine@@@std@@@std@@QBEAAUEventHandler@CRenderEngine@@XZ 10015510 f i RenderEngine.obj
 0001:00014510       ??D?$_Vector_const_iterator@PAUIDispSvrRenderEngineNotify@@V?$allocator@PAUIDispSvrRenderEngineNotify@@@std@@@std@@QBEABQAUIDispSvrRenderEngineNotify@@XZ 10015510 f i RenderEngine.obj
 0001:00014510       ??D?$_Vector_const_iterator@UDisplayObjectInfo@IParentDisplayObjectImpl@@V?$allocator@UDisplayObjectInfo@IParentDisplayObjectImpl@@@std@@@std@@QBEABUDisplayObjectInfo@IParentDisplayObjectImpl@@XZ 10015510 f i CompositeDO.obj
 0001:00014510       ??C?$_Vector_iterator@UEventHandler@CRenderEngine@@V?$allocator@UEventHandler@CRenderEngine@@@std@@@std@@QBEPAUEventHandler@CRenderEngine@@XZ 10015510 f i RenderEngine.obj
 0001:00014510       ??D?$_Vector_const_iterator@PAVCVideoFrame@@V?$allocator@PAVCVideoFrame@@@std@@@std@@QBEABQAVCVideoFrame@@XZ 10015510 f i MixerControl.obj
 0001:00014510       ??C?$_Vector_iterator@UDisplayObjectInfo@IParentDisplayObjectImpl@@V?$allocator@UDisplayObjectInfo@IParentDisplayObjectImpl@@@std@@@std@@QBEPAUDisplayObjectInfo@IParentDisplayObjectImpl@@XZ 10015510 f i CompositeDO.obj
 0001:00014510       ??D?$_Vector_const_iterator@UCEvrVideoSample@CVideoSamplePool@@V?$allocator@UCEvrVideoSample@CVideoSamplePool@@@std@@@std@@QBEABUCEvrVideoSample@CVideoSamplePool@@XZ 10015510 f i VideoSourceEvr.obj
 0001:00014510       ??D?$_Vector_iterator@UEffect@CD3D9VideoEffect3DManager@DispSvr@@V?$allocator@UEffect@CD3D9VideoEffect3DManager@DispSvr@@@std@@@std@@QBEAAUEffect@CD3D9VideoEffect3DManager@DispSvr@@XZ 10015510 f i D3D9VideoEffect3DManager.obj
 0001:00014510       ??D?$_Vector_iterator@UDisplayObjectInfo@IParentDisplayObjectImpl@@V?$allocator@UDisplayObjectInfo@IParentDisplayObjectImpl@@@std@@@std@@QBEAAUDisplayObjectInfo@IParentDisplayObjectImpl@@XZ 10015510 f i CompositeDO.obj
 0001:00014510       ??C?$_Vector_const_iterator@UEffect@CD3D9VideoEffect3DManager@DispSvr@@V?$allocator@UEffect@CD3D9VideoEffect3DManager@DispSvr@@@std@@@std@@QBEPBUEffect@CD3D9VideoEffect3DManager@DispSvr@@XZ 10015510 f i D3D9VideoEffect3DManager.obj
 0001:00014510       ??D?$_Vector_iterator@PAUIDisplayVideoSource@@V?$allocator@PAUIDisplayVideoSource@@@std@@@std@@QBEAAPAUIDisplayVideoSource@@XZ 10015510 f i VideoSourceMgr.obj
 0001:00014510       ??D?$_Vector_iterator@UCEvrVideoSample@CVideoSamplePool@@V?$allocator@UCEvrVideoSample@CVideoSamplePool@@@std@@@std@@QBEAAUCEvrVideoSample@CVideoSamplePool@@XZ 10015510 f i VideoSourceEvr.obj
 0001:00014510       ??D?$_Vector_const_iterator@UEventHandler@CRenderEngine@@V?$allocator@UEventHandler@CRenderEngine@@@std@@@std@@QBEABUEventHandler@CRenderEngine@@XZ 10015510 f i RenderEngine.obj
 0001:00014540       ?capacity@?$vector@UEventHandler@CRenderEngine@@V?$allocator@UEventHandler@CRenderEngine@@@std@@@std@@QBEIXZ 10015540 f i RenderEngine.obj
 0001:00014540       ?capacity@?$vector@UEffect@CD3D9VideoEffect3DManager@DispSvr@@V?$allocator@UEffect@CD3D9VideoEffect3DManager@DispSvr@@@std@@@std@@QBEIXZ 10015540 f i D3D9VideoEffect3DManager.obj
 0001:00014540       ?capacity@?$vector@UDisplayObjectInfo@IParentDisplayObjectImpl@@V?$allocator@UDisplayObjectInfo@IParentDisplayObjectImpl@@@std@@@std@@QBEIXZ 10015540 f i CompositeDO.obj
 0001:00014560       ?max_size@?$allocator@UDisplayObjectInfo@IParentDisplayObjectImpl@@@std@@QBEIXZ 10015560 f i CompositeDO.obj
 0001:00014560       ?max_size@?$allocator@U?$pair@QBUIDirect3DSurface9@@PAUNVDX_ObjectHandle__@@@std@@@std@@QBEIXZ 10015560 f i NvAPIPresenter.obj
 0001:00014560       ?max_size@?$vector@UEffect@CD3D9VideoEffect3DManager@DispSvr@@V?$allocator@UEffect@CD3D9VideoEffect3DManager@DispSvr@@@std@@@std@@QBEIXZ 10015560 f i D3D9VideoEffect3DManager.obj
 0001:00014560       ?max_size@?$allocator@U?$pair@$$CBKK@std@@@std@@QBEIXZ 10015560 f i IntelDxva2Device.obj
 0001:00014560       ?max_size@?$_Tree@V?$_Tmap_traits@KKU?$less@K@std@@V?$allocator@U?$pair@$$CBKK@std@@@2@$0A@@std@@@std@@QBEIXZ 10015560 f i IntelDxva2Device.obj
 0001:00014560       ?max_size@?$vector@UEventHandler@CRenderEngine@@V?$allocator@UEventHandler@CRenderEngine@@@std@@@std@@QBEIXZ 10015560 f i RenderEngine.obj
 0001:00014560       ?max_size@?$allocator@UEventHandler@CRenderEngine@@@std@@QBEIXZ 10015560 f i RenderEngine.obj
 0001:00014560       ?max_size@?$vector@UDisplayObjectInfo@IParentDisplayObjectImpl@@V?$allocator@UDisplayObjectInfo@IParentDisplayObjectImpl@@@std@@@std@@QBEIXZ 10015560 f i CompositeDO.obj
 0001:00014560       ?max_size@?$_Tree@V?$_Tmap_traits@PBUIDirect3DSurface9@@PAUNVDX_ObjectHandle__@@U?$less@PBUIDirect3DSurface9@@@std@@V?$allocator@U?$pair@QBUIDirect3DSurface9@@PAUNVDX_ObjectHandle__@@@std@@@4@$0A@@std@@@std@@QBEIXZ 10015560 f i NvAPIPresenter.obj
 0001:00014560       ?max_size@?$allocator@UEffect@CD3D9VideoEffect3DManager@DispSvr@@@std@@QBEIXZ 10015560 f i D3D9VideoEffect3DManager.obj
 0001:00014560       ?max_size@?$_Tree@V?$_Tmap_traits@$$CBKW4_PCOM_STEREOSCOPIC_FORMAT@@U?$less@$$CBK@std@@V?$allocator@U?$pair@$$CBKW4_PCOM_STEREOSCOPIC_FORMAT@@@std@@@3@$0A@@std@@@std@@QBEIXZ 10015560 f i AMDPCOMMixerPresenter.obj
 0001:00014560       ?max_size@?$_Tree@V?$_Tmap_traits@$$CBKKU?$less@$$CBK@std@@V?$allocator@U?$pair@$$CBKK@std@@@2@$0A@@std@@@std@@QBEIXZ 10015560 f i AMDPCOMMixerPresenter.obj
 0001:00014560       ?max_size@?$allocator@U?$pair@$$CBKW4_PCOM_STEREOSCOPIC_FORMAT@@@std@@@std@@QBEIXZ 10015560 f i AMDPCOMMixerPresenter.obj
 0001:00014570       ??Y?$_Vector_const_iterator@PAUIDisplayVideoSource@@V?$allocator@PAUIDisplayVideoSource@@@std@@@std@@QAEAAV01@H@Z 10015570 f i VideoSourceMgr.obj
 0001:00014570       ??Y?$_Vector_const_iterator@PAUIDispSvrRenderEngineNotify@@V?$allocator@PAUIDispSvrRenderEngineNotify@@@std@@@std@@QAEAAV01@H@Z 10015570 f i RenderEngine.obj
 0001:00014570       ??Y?$_Vector_iterator@PAUIDisplayVideoSource@@V?$allocator@PAUIDisplayVideoSource@@@std@@@std@@QAEAAV01@H@Z 10015570 f i VideoSourceMgr.obj
 0001:00014570       ??Y?$_Vector_iterator@PAVCVideoFrame@@V?$allocator@PAVCVideoFrame@@@std@@@std@@QAEAAV01@H@Z 10015570 f i MixerControl.obj
 0001:00014570       ??Y?$_Vector_const_iterator@PAVCVideoFrame@@V?$allocator@PAVCVideoFrame@@@std@@@std@@QAEAAV01@H@Z 10015570 f i MixerControl.obj
 0001:00014570       ??Y?$_Vector_iterator@PAUIDispSvrRenderEngineNotify@@V?$allocator@PAUIDispSvrRenderEngineNotify@@@std@@@std@@QAEAAV01@H@Z 10015570 f i RenderEngine.obj
 0001:000145b0       ??$_Move_backward_opt@PAUDisplayObjectInfo@IParentDisplayObjectImpl@@PAU12@Urandom_access_iterator_tag@std@@U_Undefined_move_tag@4@@std@@YAPAUDisplayObjectInfo@IParentDisplayObjectImpl@@PAU12@00Urandom_access_iterator_tag@0@U_Undefined_move_tag@0@U_Range_checked_iterator_tag@0@@Z 100155b0 f i CompositeDO.obj
 0001:000145b0       ??$_Move_backward_opt@PAUEventHandler@CRenderEngine@@PAU12@Urandom_access_iterator_tag@std@@U_Undefined_move_tag@4@@std@@YAPAUEventHandler@CRenderEngine@@PAU12@00Urandom_access_iterator_tag@0@U_Undefined_move_tag@0@U_Range_checked_iterator_tag@0@@Z 100155b0 f i RenderEngine.obj
 0001:000145b0       ??$unchecked_copy_backward@PAUDisplayObjectInfo@IParentDisplayObjectImpl@@PAU12@@stdext@@YAPAUDisplayObjectInfo@IParentDisplayObjectImpl@@PAU12@00@Z 100155b0 f i CompositeDO.obj
 0001:000145b0       ??$_Copy_backward_opt@PAUEffect@CD3D9VideoEffect3DManager@DispSvr@@PAU123@@std@@YAPAUEffect@CD3D9VideoEffect3DManager@DispSvr@@PAU123@00Urandom_access_iterator_tag@0@U_Nonscalar_ptr_iterator_tag@0@U_Range_checked_iterator_tag@0@@Z 100155b0 f i D3D9VideoEffect3DManager.obj
 0001:000145b0       ??$_Unchecked_move_backward@PAUDisplayObjectInfo@IParentDisplayObjectImpl@@PAU12@@stdext@@YAPAUDisplayObjectInfo@IParentDisplayObjectImpl@@PAU12@00@Z 100155b0 f i CompositeDO.obj
 0001:000145b0       ??$_Move_backward_opt@PAUEffect@CD3D9VideoEffect3DManager@DispSvr@@PAU123@Urandom_access_iterator_tag@std@@U_Undefined_move_tag@5@@std@@YAPAUEffect@CD3D9VideoEffect3DManager@DispSvr@@PAU123@00Urandom_access_iterator_tag@0@U_Undefined_move_tag@0@U_Range_checked_iterator_tag@0@@Z 100155b0 f i D3D9VideoEffect3DManager.obj
 0001:000145b0       ??$_Unchecked_move_backward@PAUEventHandler@CRenderEngine@@PAU12@@stdext@@YAPAUEventHandler@CRenderEngine@@PAU12@00@Z 100155b0 f i RenderEngine.obj
 0001:000145b0       ??$_Copy_backward_opt@PAUDisplayObjectInfo@IParentDisplayObjectImpl@@PAU12@@std@@YAPAUDisplayObjectInfo@IParentDisplayObjectImpl@@PAU12@00Urandom_access_iterator_tag@0@U_Nonscalar_ptr_iterator_tag@0@U_Range_checked_iterator_tag@0@@Z 100155b0 f i CompositeDO.obj
 0001:000145b0       ??$_Copy_backward_opt@PAUEventHandler@CRenderEngine@@PAU12@@std@@YAPAUEventHandler@CRenderEngine@@PAU12@00Urandom_access_iterator_tag@0@U_Nonscalar_ptr_iterator_tag@0@U_Range_checked_iterator_tag@0@@Z 100155b0 f i RenderEngine.obj
 0001:000145b0       ??$_Unchecked_move_backward@PAUEffect@CD3D9VideoEffect3DManager@DispSvr@@PAU123@@stdext@@YAPAUEffect@CD3D9VideoEffect3DManager@DispSvr@@PAU123@00@Z 100155b0 f i D3D9VideoEffect3DManager.obj
 0001:000145f0       ??$fill@PAPAVCVideoFrame@@PAV1@@std@@YAXPAPAVCVideoFrame@@0ABQAV1@@Z 100155f0 f i MixerControl.obj
 0001:000145f0       ??$fill@PAPAUIDispSvrRenderEngineNotify@@PAU1@@std@@YAXPAPAUIDispSvrRenderEngineNotify@@0ABQAU1@@Z 100155f0 f i RenderEngine.obj
 0001:000145f0       ??$fill@PAPAUIDisplayVideoSource@@PAU1@@std@@YAXPAPAUIDisplayVideoSource@@0ABQAU1@@Z 100155f0 f i VideoSourceMgr.obj
 0001:00014600       ??$_Move_backward_opt@PAPAUIDispSvrRenderEngineNotify@@PAPAU1@Urandom_access_iterator_tag@std@@U_Undefined_move_tag@3@@std@@YAPAPAUIDispSvrRenderEngineNotify@@PAPAU1@00Urandom_access_iterator_tag@0@U_Undefined_move_tag@0@U_Range_checked_iterator_tag@0@@Z 10015600 f i RenderEngine.obj
 0001:00014600       ??$_Move_backward_opt@PAPAVCVideoFrame@@PAPAV1@Urandom_access_iterator_tag@std@@U_Undefined_move_tag@3@@std@@YAPAPAVCVideoFrame@@PAPAV1@00Urandom_access_iterator_tag@0@U_Undefined_move_tag@0@U_Range_checked_iterator_tag@0@@Z 10015600 f i MixerControl.obj
 0001:00014600       ??$_Unchecked_move_backward@PAPAUIDispSvrRenderEngineNotify@@PAPAU1@@stdext@@YAPAPAUIDispSvrRenderEngineNotify@@PAPAU1@00@Z 10015600 f i RenderEngine.obj
 0001:00014600       ??$_Move_backward_opt@PAPAUIDisplayVideoSource@@PAPAU1@Urandom_access_iterator_tag@std@@U_Undefined_move_tag@3@@std@@YAPAPAUIDisplayVideoSource@@PAPAU1@00Urandom_access_iterator_tag@0@U_Undefined_move_tag@0@U_Range_checked_iterator_tag@0@@Z 10015600 f i VideoSourceMgr.obj
 0001:00014600       ??$_Unchecked_move_backward@PAPAVCVideoFrame@@PAPAV1@@stdext@@YAPAPAVCVideoFrame@@PAPAV1@00@Z 10015600 f i MixerControl.obj
 0001:00014600       ??$_Unchecked_move_backward@PAPAUIDisplayVideoSource@@PAPAU1@@stdext@@YAPAPAUIDisplayVideoSource@@PAPAU1@00@Z 10015600 f i VideoSourceMgr.obj
 0001:00014630       ??$_Uninit_move@PAUDisplayObjectInfo@IParentDisplayObjectImpl@@PAU12@V?$allocator@UDisplayObjectInfo@IParentDisplayObjectImpl@@@std@@U_Undefined_move_tag@4@@std@@YAPAUDisplayObjectInfo@IParentDisplayObjectImpl@@PAU12@00AAV?$allocator@UDisplayObjectInfo@IParentDisplayObjectImpl@@@0@U_Undefined_move_tag@0@U_Range_checked_iterator_tag@0@@Z 10015630 f i CompositeDO.obj
 0001:00014630       ??$_Uninit_move@PAUEffect@CD3D9VideoEffect3DManager@DispSvr@@PAU123@V?$allocator@UEffect@CD3D9VideoEffect3DManager@DispSvr@@@std@@U_Undefined_move_tag@5@@std@@YAPAUEffect@CD3D9VideoEffect3DManager@DispSvr@@PAU123@00AAV?$allocator@UEffect@CD3D9VideoEffect3DManager@DispSvr@@@0@U_Undefined_move_tag@0@U_Range_checked_iterator_tag@0@@Z 10015630 f i D3D9VideoEffect3DManager.obj
 0001:00014630       ??$_Unchecked_uninitialized_move@PAUEventHandler@CRenderEngine@@PAU12@V?$allocator@UEventHandler@CRenderEngine@@@std@@@stdext@@YAPAUEventHandler@CRenderEngine@@PAU12@00AAV?$allocator@UEventHandler@CRenderEngine@@@std@@@Z 10015630 f i RenderEngine.obj
 0001:00014630       ??$_Unchecked_uninitialized_move@PAUEffect@CD3D9VideoEffect3DManager@DispSvr@@PAU123@V?$allocator@UEffect@CD3D9VideoEffect3DManager@DispSvr@@@std@@@stdext@@YAPAUEffect@CD3D9VideoEffect3DManager@DispSvr@@PAU123@00AAV?$allocator@UEffect@CD3D9VideoEffect3DManager@DispSvr@@@std@@@Z 10015630 f i D3D9VideoEffect3DManager.obj
 0001:00014630       ??$_Unchecked_uninitialized_move@PAUDisplayObjectInfo@IParentDisplayObjectImpl@@PAU12@V?$allocator@UDisplayObjectInfo@IParentDisplayObjectImpl@@@std@@@stdext@@YAPAUDisplayObjectInfo@IParentDisplayObjectImpl@@PAU12@00AAV?$allocator@UDisplayObjectInfo@IParentDisplayObjectImpl@@@std@@@Z 10015630 f i CompositeDO.obj
 0001:00014630       ??$_Uninit_move@PAUEventHandler@CRenderEngine@@PAU12@V?$allocator@UEventHandler@CRenderEngine@@@std@@U_Undefined_move_tag@4@@std@@YAPAUEventHandler@CRenderEngine@@PAU12@00AAV?$allocator@UEventHandler@CRenderEngine@@@0@U_Undefined_move_tag@0@U_Range_checked_iterator_tag@0@@Z 10015630 f i RenderEngine.obj
 0001:00014650       ??$fill@PAUDisplayObjectInfo@IParentDisplayObjectImpl@@U12@@std@@YAXPAUDisplayObjectInfo@IParentDisplayObjectImpl@@0ABU12@@Z 10015650 f i CompositeDO.obj
 0001:00014650       ??$_Fill@PAUDisplayObjectInfo@IParentDisplayObjectImpl@@U12@@std@@YAXPAUDisplayObjectInfo@IParentDisplayObjectImpl@@0ABU12@@Z 10015650 f i CompositeDO.obj
 0001:00014650       ??$fill@PAUEffect@CD3D9VideoEffect3DManager@DispSvr@@U123@@std@@YAXPAUEffect@CD3D9VideoEffect3DManager@DispSvr@@0ABU123@@Z 10015650 f i D3D9VideoEffect3DManager.obj
 0001:00014650       ??$_Fill@PAUEffect@CD3D9VideoEffect3DManager@DispSvr@@U123@@std@@YAXPAUEffect@CD3D9VideoEffect3DManager@DispSvr@@0ABU123@@Z 10015650 f i D3D9VideoEffect3DManager.obj
 0001:00014650       ??$_Fill@PAUEventHandler@CRenderEngine@@U12@@std@@YAXPAUEventHandler@CRenderEngine@@0ABU12@@Z 10015650 f i RenderEngine.obj
 0001:00014650       ??$fill@PAUEventHandler@CRenderEngine@@U12@@std@@YAXPAUEventHandler@CRenderEngine@@0ABU12@@Z 10015650 f i RenderEngine.obj
 0001:00014670       ??$unchecked_uninitialized_copy@PAUEventHandler@CRenderEngine@@PAU12@V?$allocator@UEventHandler@CRenderEngine@@@std@@@stdext@@YAPAUEventHandler@CRenderEngine@@PAU12@00AAV?$allocator@UEventHandler@CRenderEngine@@@std@@@Z 10015670 f i RenderEngine.obj
 0001:00014670       ??$unchecked_uninitialized_copy@PAUDisplayObjectInfo@IParentDisplayObjectImpl@@PAU12@V?$allocator@UDisplayObjectInfo@IParentDisplayObjectImpl@@@std@@@stdext@@YAPAUDisplayObjectInfo@IParentDisplayObjectImpl@@PAU12@00AAV?$allocator@UDisplayObjectInfo@IParentDisplayObjectImpl@@@std@@@Z 10015670 f i CompositeDO.obj
 0001:00014670       ??$unchecked_uninitialized_copy@PAUEffect@CD3D9VideoEffect3DManager@DispSvr@@PAU123@V?$allocator@UEffect@CD3D9VideoEffect3DManager@DispSvr@@@std@@@stdext@@YAPAUEffect@CD3D9VideoEffect3DManager@DispSvr@@PAU123@00AAV?$allocator@UEffect@CD3D9VideoEffect3DManager@DispSvr@@@std@@@Z 10015670 f i D3D9VideoEffect3DManager.obj
 0001:00014690       ??$_Copy_backward_opt@PAUEffect@CD3D9VideoEffect3DManager@DispSvr@@PAU123@Uforward_iterator_tag@std@@@std@@YAPAUEffect@CD3D9VideoEffect3DManager@DispSvr@@PAU123@00Uforward_iterator_tag@0@U_Nonscalar_ptr_iterator_tag@0@U_Range_checked_iterator_tag@0@@Z 10015690 f i D3D9VideoEffect3DManager.obj
 0001:00014690       ??$_Copy_backward_opt@PAUEventHandler@CRenderEngine@@PAU12@Uforward_iterator_tag@std@@@std@@YAPAUEventHandler@CRenderEngine@@PAU12@00Uforward_iterator_tag@0@U_Nonscalar_ptr_iterator_tag@0@U_Range_checked_iterator_tag@0@@Z 10015690 f i RenderEngine.obj
 0001:00014690       ??$_Copy_backward_opt@PAUDisplayObjectInfo@IParentDisplayObjectImpl@@PAU12@Uforward_iterator_tag@std@@@std@@YAPAUDisplayObjectInfo@IParentDisplayObjectImpl@@PAU12@00Uforward_iterator_tag@0@U_Nonscalar_ptr_iterator_tag@0@U_Range_checked_iterator_tag@0@@Z 10015690 f i CompositeDO.obj
 0001:000146b0       ??$_Uninit_copy@PAUEventHandler@CRenderEngine@@PAU12@V?$allocator@UEventHandler@CRenderEngine@@@std@@@std@@YAPAUEventHandler@CRenderEngine@@PAU12@00AAV?$allocator@UEventHandler@CRenderEngine@@@0@U_Nonscalar_ptr_iterator_tag@0@U_Range_checked_iterator_tag@0@@Z 100156b0 f i RenderEngine.obj
 0001:000146b0       ??$_Uninit_copy@PAUDisplayObjectInfo@IParentDisplayObjectImpl@@PAU12@V?$allocator@UDisplayObjectInfo@IParentDisplayObjectImpl@@@std@@@std@@YAPAUDisplayObjectInfo@IParentDisplayObjectImpl@@PAU12@00AAV?$allocator@UDisplayObjectInfo@IParentDisplayObjectImpl@@@0@U_Nonscalar_ptr_iterator_tag@0@U_Range_checked_iterator_tag@0@@Z 100156b0 f i CompositeDO.obj
 0001:000146b0       ??$_Uninit_copy@PAUEffect@CD3D9VideoEffect3DManager@DispSvr@@PAU123@V?$allocator@UEffect@CD3D9VideoEffect3DManager@DispSvr@@@std@@@std@@YAPAUEffect@CD3D9VideoEffect3DManager@DispSvr@@PAU123@00AAV?$allocator@UEffect@CD3D9VideoEffect3DManager@DispSvr@@@0@U_Nonscalar_ptr_iterator_tag@0@U_Range_checked_iterator_tag@0@@Z 100156b0 f i D3D9VideoEffect3DManager.obj
 0001:000146d0       ??$_Copy_opt@PAPAUIDispSvrRenderEngineNotify@@PAPAU1@Urandom_access_iterator_tag@std@@@std@@YAPAPAUIDispSvrRenderEngineNotify@@PAPAU1@00Urandom_access_iterator_tag@0@U_Scalar_ptr_iterator_tag@0@U_Range_checked_iterator_tag@0@@Z 100156d0 f i RenderEngine.obj
 0001:000146d0       ??$_Uninit_copy@PAPAPAUIMFSample@@PAPAPAU1@V?$allocator@PAPAUIMFSample@@@std@@@std@@YAPAPAPAUIMFSample@@PAPAPAU1@00AAV?$allocator@PAPAUIMFSample@@@0@U_Scalar_ptr_iterator_tag@0@U_Range_checked_iterator_tag@0@@Z 100156d0 f i VideoSourceEvr.obj
 0001:000146d0       ??$_Copy_opt@PAPAUIDisplayVideoSource@@PAPAU1@Urandom_access_iterator_tag@std@@@std@@YAPAPAUIDisplayVideoSource@@PAPAU1@00Urandom_access_iterator_tag@0@U_Scalar_ptr_iterator_tag@0@U_Range_checked_iterator_tag@0@@Z 100156d0 f i VideoSourceMgr.obj
 0001:000146d0       ??$_Uninit_copy@PAPAVCVideoFrame@@PAPAV1@V?$allocator@PAVCVideoFrame@@@std@@@std@@YAPAPAVCVideoFrame@@PAPAV1@00AAV?$allocator@PAVCVideoFrame@@@0@U_Scalar_ptr_iterator_tag@0@U_Range_checked_iterator_tag@0@@Z 100156d0 f i MixerControl.obj
 0001:000146d0       ??$_Uninit_copy@PAPAUIDisplayVideoSource@@PAPAU1@V?$allocator@PAUIDisplayVideoSource@@@std@@@std@@YAPAPAUIDisplayVideoSource@@PAPAU1@00AAV?$allocator@PAUIDisplayVideoSource@@@0@U_Scalar_ptr_iterator_tag@0@U_Range_checked_iterator_tag@0@@Z 100156d0 f i VideoSourceMgr.obj
 0001:000146d0       ??$_Copy_opt@PAPAVCVideoFrame@@PAPAV1@Urandom_access_iterator_tag@std@@@std@@YAPAPAVCVideoFrame@@PAPAV1@00Urandom_access_iterator_tag@0@U_Scalar_ptr_iterator_tag@0@U_Range_checked_iterator_tag@0@@Z 100156d0 f i MixerControl.obj
 0001:000146d0       ??$_Uninit_copy@PAPAUIDispSvrRenderEngineNotify@@PAPAU1@V?$allocator@PAUIDispSvrRenderEngineNotify@@@std@@@std@@YAPAPAUIDispSvrRenderEngineNotify@@PAPAU1@00AAV?$allocator@PAUIDispSvrRenderEngineNotify@@@0@U_Scalar_ptr_iterator_tag@0@U_Range_checked_iterator_tag@0@@Z 100156d0 f i RenderEngine.obj
 0001:000146d0       ??$_Uninit_copy@PAPAUVideoReferenceSample@DispSvr@@PAPAU12@V?$allocator@PAUVideoReferenceSample@DispSvr@@@std@@@std@@YAPAPAUVideoReferenceSample@DispSvr@@PAPAU12@00AAV?$allocator@PAUVideoReferenceSample@DispSvr@@@0@U_Scalar_ptr_iterator_tag@0@U_Range_checked_iterator_tag@0@@Z 100156d0 f i D3D9VideoPlane.obj
 0001:00014730       ??1CAutoDisplayLock@@QAE@XZ 10015730 f i RenderEngine.obj
 0001:00014750       ??0CAutoDisplayLock@@QAE@PAUIDisplayLock@@@Z 10015750 f i RenderEngine.obj
 0001:00014810       ?NvAPI@PresetEnvPredicate@@YA_NKK@Z 10015810 f   ResourceManager.obj
 0001:00014820       ?AMDSORT@PresetEnvPredicate@@YA_NKK@Z 10015820 f   ResourceManager.obj
 0001:00014830       ?AMDPCOM@PresetEnvPredicate@@YA_NKK@Z 10015830 f   ResourceManager.obj
 0001:00014870       ?IntelFC@PresetEnvPredicate@@YA_NKK@Z 10015870 f   ResourceManager.obj
 0001:00014880       ?S3API@PresetEnvPredicate@@YA_NKK@Z 10015880 f   ResourceManager.obj
 0001:00014890       ?SisWorkaround@PresetEnvPredicate@@YA_NKK@Z 10015890 f   ResourceManager.obj
 0001:000148a0       ?NvWorkaround@PresetEnvPredicate@@YA_NKK@Z 100158a0 f   ResourceManager.obj
 0001:000148b0       ??0CResourceManager@DispSvr@@QAE@XZ 100158b0 f   ResourceManager.obj
 0001:00014c60       ??1?$_Tree@V?$_Tmap_traits@U_GUID@@UResourceGroup@CResourceManager@DispSvr@@U?$less@U_GUID@@@std@@V?$allocator@U?$pair@$$CBU_GUID@@UResourceGroup@CResourceManager@DispSvr@@@std@@@6@$0A@@std@@@std@@QAE@XZ 10015c60 f i ResourceManager.obj
 0001:00014c60       ??1?$map@U_GUID@@UResourceGroup@CResourceManager@DispSvr@@U?$less@U_GUID@@@std@@V?$allocator@U?$pair@$$CBU_GUID@@UResourceGroup@CResourceManager@DispSvr@@@std@@@6@@std@@QAE@XZ 10015c60 f i ResourceManager.obj
 0001:00014c70       ??1CResourceManager@DispSvr@@QAE@XZ 10015c70 f   ResourceManager.obj
 0001:00014d60       ??_GCPersistentInterfaceProxy@DispSvr@@QAEPAXI@Z 10015d60 f i ResourceManager.obj
 0001:00014d80       ?GetInterface@CResourceManager@DispSvr@@QAEJABU_GUID@@0PAPAX@Z 10015d80 f   ResourceManager.obj
 0001:00014e70       ?Install@CResourceManager@DispSvr@@QAEJPAUIDispSvrPlugin@@P6A_NKK@Z@Z 10015e70 f   ResourceManager.obj
 0001:00015040       ?Uninstall@CResourceManager@DispSvr@@QAEJPAUIDispSvrPlugin@@@Z 10016040 f   ResourceManager.obj
 0001:000151d0       ?SetPreferredResource@CResourceManager@DispSvr@@QAEJABU_GUID@@0@Z 100161d0 f   ResourceManager.obj
 0001:00015370       ?GetActiveResrouceGUID@CResourceManager@DispSvr@@QAEJABU_GUID@@PAU3@@Z 10016370 f   ResourceManager.obj
 0001:00015420       ?ProcessMessage@CResourceManager@DispSvr@@QAEJW4RESOURCE_MESSAGE_TYPE@@PAX@Z 10016420 f   ResourceManager.obj
 0001:00015580       ?ActivatePlugin@CResourceManager@DispSvr@@AAEJPAXAAUResourceGroup@12@@Z 10016580 f   ResourceManager.obj
 0001:000156b0       ?ActivateMixerPresenter@CResourceManager@DispSvr@@AAEJPAX@Z 100166b0 f   ResourceManager.obj
 0001:00015970       ?ActivatePluginWithoutDevice@CResourceManager@DispSvr@@AAEJABU_GUID@@@Z 10016970 f   ResourceManager.obj
 0001:00015a90       ?LoadStaticPlugins@CResourceManager@DispSvr@@AAEXXZ 10016a90 f   ResourceManager.obj
 0001:00015f30       ?DeactivatePlugin@CResourceManager@DispSvr@@AAEXPBUPlugin@12@@Z 10016f30 f   ResourceManager.obj
 0001:00015ff0       ?ControlDwmComposition@CResourceManager@DispSvr@@AAEJXZ 10016ff0 f   ResourceManager.obj
 0001:00016040       ?SetDwmComposition@CResourceManager@DispSvr@@AAEJH@Z 10017040 f   ResourceManager.obj
 0001:00016090       ??0?$Singleton@VCResourceManager@DispSvr@@@DispSvr@@QAE@XZ 10017090 f i ResourceManager.obj
 0001:000160a0       ??1?$Singleton@VCResourceManager@DispSvr@@@DispSvr@@QAE@XZ 100170a0 f i ResourceManager.obj
 0001:000160b0       ??0?$list@UPlugin@CResourceManager@DispSvr@@V?$allocator@UPlugin@CResourceManager@DispSvr@@@std@@@std@@QAE@XZ 100170b0 f i ResourceManager.obj
 0001:000160d0       ??1?$list@UD3D9Texture@CD3D9TexturePool@DispSvr@@V?$allocator@UD3D9Texture@CD3D9TexturePool@DispSvr@@@std@@@std@@QAE@XZ 100170d0 f i D3D9TexturePool.obj
 0001:000160d0       ??1?$list@PAUHINSTANCE__@@V?$allocator@PAUHINSTANCE__@@@std@@@std@@QAE@XZ 100170d0 f i DynLibManager.obj
 0001:000160d0       ??1?$list@T?$PlaneVB@UD3D9ClearRectVertex@DispSvr@@@DispSvr@@V?$allocator@T?$PlaneVB@UD3D9ClearRectVertex@DispSvr@@@DispSvr@@@std@@@std@@QAE@XZ 100170d0 f i D3D9VideoMixer.obj
 0001:000160d0       ??1?$list@UClearRect@DispSvr@@V?$allocator@UClearRect@DispSvr@@@std@@@std@@QAE@XZ 100170d0 f i D3D9VideoMixerModel.obj
 0001:000160d0       ??1?$list@UPlugin@CResourceManager@DispSvr@@V?$allocator@UPlugin@CResourceManager@DispSvr@@@std@@@std@@QAE@XZ 100170d0 f i ResourceManager.obj
 0001:000160e0       ?rbegin@?$list@UPlugin@CResourceManager@DispSvr@@V?$allocator@UPlugin@CResourceManager@DispSvr@@@std@@@std@@QAE?AV?$reverse_iterator@V?$_Iterator@$00@?$list@UPlugin@CResourceManager@DispSvr@@V?$allocator@UPlugin@CResourceManager@DispSvr@@@std@@@std@@@2@XZ 100170e0 f i ResourceManager.obj
 0001:000160f0       ?rend@?$list@UPlugin@CResourceManager@DispSvr@@V?$allocator@UPlugin@CResourceManager@DispSvr@@@std@@@std@@QAE?AV?$reverse_iterator@V?$_Iterator@$00@?$list@UPlugin@CResourceManager@DispSvr@@V?$allocator@UPlugin@CResourceManager@DispSvr@@@std@@@std@@@2@XZ 100170f0 f i ResourceManager.obj
 0001:00016110       ?back@?$list@UPlugin@CResourceManager@DispSvr@@V?$allocator@UPlugin@CResourceManager@DispSvr@@@std@@@std@@QAEAAUPlugin@CResourceManager@DispSvr@@XZ 10017110 f i ResourceManager.obj
 0001:00016140       ?push_back@?$list@UPlugin@CResourceManager@DispSvr@@V?$allocator@UPlugin@CResourceManager@DispSvr@@@std@@@std@@QAEXABUPlugin@CResourceManager@DispSvr@@@Z 10017140 f i ResourceManager.obj
 0001:00016170       ??0?$map@U_GUID@@UResourceGroup@CResourceManager@DispSvr@@U?$less@U_GUID@@@std@@V?$allocator@U?$pair@$$CBU_GUID@@UResourceGroup@CResourceManager@DispSvr@@@std@@@6@@std@@QAE@XZ 10017170 f i ResourceManager.obj
 0001:00016170       ??0?$_Tree@V?$_Tmap_traits@U_GUID@@UResourceGroup@CResourceManager@DispSvr@@U?$less@U_GUID@@@std@@V?$allocator@U?$pair@$$CBU_GUID@@UResourceGroup@CResourceManager@DispSvr@@@std@@@6@$0A@@std@@@std@@QAE@ABU?$less@U_GUID@@@1@ABV?$allocator@U?$pair@$$CBU_GUID@@UResourceGroup@CResourceManager@DispSvr@@@std@@@1@@Z 10017170 f i ResourceManager.obj
 0001:000161a0       ??A?$map@U_GUID@@UResourceGroup@CResourceManager@DispSvr@@U?$less@U_GUID@@@std@@V?$allocator@U?$pair@$$CBU_GUID@@UResourceGroup@CResourceManager@DispSvr@@@std@@@6@@std@@QAEAAUResourceGroup@CResourceManager@DispSvr@@ABU_GUID@@@Z 100171a0 f i ResourceManager.obj
 0001:00016280       ?end@?$list@UClearRect@DispSvr@@V?$allocator@UClearRect@DispSvr@@@std@@@std@@QAE?AV?$_Iterator@$00@12@XZ 10017280 f i D3D9VideoMixerModel.obj
 0001:00016280       ?end@?$_Tree@V?$_Tmap_traits@KKU?$less@K@std@@V?$allocator@U?$pair@$$CBKK@std@@@2@$0A@@std@@@std@@QAE?AViterator@12@XZ 10017280 f i IntelDxva2Device.obj
 0001:00016280       ?end@?$list@UClearRect@DispSvr@@V?$allocator@UClearRect@DispSvr@@@std@@@std@@QBE?AV?$_Const_iterator@$00@12@XZ 10017280 f i AMDPCOMMixerPresenter.obj
 0001:00016280       ?end@?$list@UPlugin@CResourceManager@DispSvr@@V?$allocator@UPlugin@CResourceManager@DispSvr@@@std@@@std@@QAE?AV?$_Iterator@$00@12@XZ 10017280 f i ResourceManager.obj
 0001:00016280       ?end@?$_Tree@V?$_Tset_traits@W4_D3DFORMAT@@U?$less@W4_D3DFORMAT@@@std@@V?$allocator@W4_D3DFORMAT@@@3@$0A@@std@@@std@@QBE?AVconst_iterator@12@XZ 10017280 f i DXVAHDVideoProcessor.obj
 0001:00016280       ?end@?$_Tree@V?$_Tset_traits@W4_D3DFORMAT@@U?$less@W4_D3DFORMAT@@@std@@V?$allocator@W4_D3DFORMAT@@@3@$0A@@std@@@std@@QAE?AViterator@12@XZ 10017280 f i DXVAHDVideoProcessor.obj
 0001:00016280       ?end@?$_Tree@V?$_Tmap_traits@$$CBKW4_PCOM_STEREOSCOPIC_FORMAT@@U?$less@$$CBK@std@@V?$allocator@U?$pair@$$CBKW4_PCOM_STEREOSCOPIC_FORMAT@@@std@@@3@$0A@@std@@@std@@QAE?AViterator@12@XZ 10017280 f i AMDPCOMMixerPresenter.obj
 0001:00016280       ?end@?$_Tree@V?$_Tmap_traits@PAXUD3D9Texture@CD3D9TexturePool@DispSvr@@U?$less@PAX@std@@V?$allocator@U?$pair@QAXUD3D9Texture@CD3D9TexturePool@DispSvr@@@std@@@5@$0A@@std@@@std@@QAE?AViterator@12@XZ 10017280 f i D3D9TexturePool.obj
 0001:00016280       ?end@?$list@UD3D9Texture@CD3D9TexturePool@DispSvr@@V?$allocator@UD3D9Texture@CD3D9TexturePool@DispSvr@@@std@@@std@@QAE?AV?$_Iterator@$00@12@XZ 10017280 f i D3D9TexturePool.obj
 0001:00016280       ?end@?$list@T?$PlaneVB@UD3D9ClearRectVertex@DispSvr@@@DispSvr@@V?$allocator@T?$PlaneVB@UD3D9ClearRectVertex@DispSvr@@@DispSvr@@@std@@@std@@QAE?AV?$_Iterator@$00@12@XZ 10017280 f i D3D9VideoMixer.obj
 0001:00016280       ?end@?$list@PAUHINSTANCE__@@V?$allocator@PAUHINSTANCE__@@@std@@@std@@QAE?AV?$_Iterator@$00@12@XZ 10017280 f i DynLibManager.obj
 0001:00016280       ?end@?$_Tree@V?$_Tmap_traits@PBUIDirect3DSurface9@@PAUNVDX_ObjectHandle__@@U?$less@PBUIDirect3DSurface9@@@std@@V?$allocator@U?$pair@QBUIDirect3DSurface9@@PAUNVDX_ObjectHandle__@@@std@@@4@$0A@@std@@@std@@QAE?AViterator@12@XZ 10017280 f i NvAPIPresenter.obj
 0001:00016280       ?end@?$list@UVideoProcessorStub@DispSvr@@V?$allocator@UVideoProcessorStub@DispSvr@@@std@@@std@@QAE?AV?$_Iterator@$00@12@XZ 10017280 f i AMDPCOMMixerPresenter.obj
 0001:00016280       ?end@?$_Tree@V?$_Tmap_traits@$$CBKKU?$less@$$CBK@std@@V?$allocator@U?$pair@$$CBKK@std@@@2@$0A@@std@@@std@@QAE?AViterator@12@XZ 10017280 f i AMDPCOMMixerPresenter.obj
 0001:00016280       ?end@?$_Tree@V?$_Tmap_traits@KUVideoSourceRate@CServerStateEventSink@DispSvr@@U?$less@K@std@@V?$allocator@U?$pair@$$CBKUVideoSourceRate@CServerStateEventSink@DispSvr@@@std@@@5@$0A@@std@@@std@@QAE?AViterator@12@XZ 10017280 f i ServerStateEventSink.obj
 0001:00016280       ?end@?$_Tree@V?$_Tmap_traits@W4PLANE_FORMAT@DispSvr@@UTextureCap@2@U?$less@W4PLANE_FORMAT@DispSvr@@@std@@V?$allocator@U?$pair@$$CBW4PLANE_FORMAT@DispSvr@@UTextureCap@2@@std@@@5@$0A@@std@@@std@@QAE?AViterator@12@XZ 10017280 f i D3D9TexturePool.obj
 0001:00016280       ?end@?$_Tree@V?$_Tmap_traits@U_GUID@@UResourceGroup@CResourceManager@DispSvr@@U?$less@U_GUID@@@std@@V?$allocator@U?$pair@$$CBU_GUID@@UResourceGroup@CResourceManager@DispSvr@@@std@@@6@$0A@@std@@@std@@QAE?AViterator@12@XZ 10017280 f i ResourceManager.obj
 0001:00016290       ?find@?$_Tree@V?$_Tmap_traits@U_GUID@@UResourceGroup@CResourceManager@DispSvr@@U?$less@U_GUID@@@std@@V?$allocator@U?$pair@$$CBU_GUID@@UResourceGroup@CResourceManager@DispSvr@@@std@@@6@$0A@@std@@@std@@QAE?AViterator@12@ABU_GUID@@@Z 10017290 f i ResourceManager.obj
 0001:00016300       ??Econst_iterator@?$_Tree@V?$_Tmap_traits@U_GUID@@UResourceGroup@CResourceManager@DispSvr@@U?$less@U_GUID@@@std@@V?$allocator@U?$pair@$$CBU_GUID@@UResourceGroup@CResourceManager@DispSvr@@@std@@@6@$0A@@std@@@std@@QAEAAV012@XZ 10017300 f i ResourceManager.obj
 0001:00016300       ??Eiterator@?$_Tree@V?$_Tmap_traits@U_GUID@@UResourceGroup@CResourceManager@DispSvr@@U?$less@U_GUID@@@std@@V?$allocator@U?$pair@$$CBU_GUID@@UResourceGroup@CResourceManager@DispSvr@@@std@@@6@$0A@@std@@@std@@QAEAAV012@XZ 10017300 f i ResourceManager.obj
 0001:00016310       ??C?$reverse_iterator@V?$_Iterator@$00@?$list@UPlugin@CResourceManager@DispSvr@@V?$allocator@UPlugin@CResourceManager@DispSvr@@@std@@@std@@@std@@QBEPAUPlugin@CResourceManager@DispSvr@@XZ 10017310 f i ResourceManager.obj
 0001:00016310       ??D?$reverse_iterator@V?$_Iterator@$00@?$list@UPlugin@CResourceManager@DispSvr@@V?$allocator@UPlugin@CResourceManager@DispSvr@@@std@@@std@@@std@@QBEAAUPlugin@CResourceManager@DispSvr@@XZ 10017310 f i ResourceManager.obj
 0001:00016340       ??E?$reverse_iterator@V?$_Iterator@$00@?$list@UPlugin@CResourceManager@DispSvr@@V?$allocator@UPlugin@CResourceManager@DispSvr@@@std@@@std@@@std@@QAEAAV01@XZ 10017340 f i ResourceManager.obj
 0001:00016370       ?_Insert@?$list@UPlugin@CResourceManager@DispSvr@@V?$allocator@UPlugin@CResourceManager@DispSvr@@@std@@@std@@QAEXV?$_Iterator@$00@12@ABUPlugin@CResourceManager@DispSvr@@@Z 10017370 f i ResourceManager.obj
 0001:000163a0       ?_Buynode@?$list@UPlugin@CResourceManager@DispSvr@@V?$allocator@UPlugin@CResourceManager@DispSvr@@@std@@@std@@IAEPAU_Node@?$_List_nod@UPlugin@CResourceManager@DispSvr@@V?$allocator@UPlugin@CResourceManager@DispSvr@@@std@@@2@XZ 100173a0 f i ResourceManager.obj
 0001:000163c0       ?_Tidy@?$list@T?$PlaneVB@UD3D9ClearRectVertex@DispSvr@@@DispSvr@@V?$allocator@T?$PlaneVB@UD3D9ClearRectVertex@DispSvr@@@DispSvr@@@std@@@std@@IAEXXZ 100173c0 f i D3D9VideoMixer.obj
 0001:000163c0       ?_Tidy@?$list@UD3D9Texture@CD3D9TexturePool@DispSvr@@V?$allocator@UD3D9Texture@CD3D9TexturePool@DispSvr@@@std@@@std@@IAEXXZ 100173c0 f i D3D9TexturePool.obj
 0001:000163c0       ?_Tidy@?$list@UVideoProcessorStub@DispSvr@@V?$allocator@UVideoProcessorStub@DispSvr@@@std@@@std@@IAEXXZ 100173c0 f i D3D9VideoMixerBase.obj
 0001:000163c0       ?_Tidy@?$list@UClearRect@DispSvr@@V?$allocator@UClearRect@DispSvr@@@std@@@std@@IAEXXZ 100173c0 f i D3D9VideoMixerModel.obj
 0001:000163c0       ?_Tidy@?$list@PAUHINSTANCE__@@V?$allocator@PAUHINSTANCE__@@@std@@@std@@IAEXXZ 100173c0 f i DynLibManager.obj
 0001:000163c0       ?_Tidy@?$list@UPlugin@CResourceManager@DispSvr@@V?$allocator@UPlugin@CResourceManager@DispSvr@@@std@@@std@@IAEXXZ 100173c0 f i ResourceManager.obj
 0001:00016410       ?insert@?$_Tree@V?$_Tmap_traits@U_GUID@@UResourceGroup@CResourceManager@DispSvr@@U?$less@U_GUID@@@std@@V?$allocator@U?$pair@$$CBU_GUID@@UResourceGroup@CResourceManager@DispSvr@@@std@@@6@$0A@@std@@@std@@QAE?AViterator@12@V312@ABU?$pair@$$CBU_GUID@@UResourceGroup@CResourceManager@DispSvr@@@2@@Z 10017410 f i ResourceManager.obj
 0001:00016620       ?lower_bound@?$_Tree@V?$_Tmap_traits@U_GUID@@UResourceGroup@CResourceManager@DispSvr@@U?$less@U_GUID@@@std@@V?$allocator@U?$pair@$$CBU_GUID@@UResourceGroup@CResourceManager@DispSvr@@@std@@@6@$0A@@std@@@std@@QAE?AViterator@12@ABU_GUID@@@Z 10017620 f i ResourceManager.obj
 0001:00016670       ?_Tidy@?$_Tree@V?$_Tmap_traits@U_GUID@@UResourceGroup@CResourceManager@DispSvr@@U?$less@U_GUID@@@std@@V?$allocator@U?$pair@$$CBU_GUID@@UResourceGroup@CResourceManager@DispSvr@@@std@@@6@$0A@@std@@@std@@IAEXXZ 10017670 f i ResourceManager.obj
 0001:000166b0       ??R?$less@U_GUID@@@std@@QBE_NABU_GUID@@0@Z 100176b0 f i ResourceManager.obj
 0001:000166c0       ?_Inc@const_iterator@?$_Tree@V?$_Tmap_traits@U_GUID@@UResourceGroup@CResourceManager@DispSvr@@U?$less@U_GUID@@@std@@V?$allocator@U?$pair@$$CBU_GUID@@UResourceGroup@CResourceManager@DispSvr@@@std@@@6@$0A@@std@@@std@@QAEXXZ 100176c0 f i ResourceManager.obj
 0001:00016730       ??0?$pair@$$CBU_GUID@@UResourceGroup@CResourceManager@DispSvr@@@std@@QAE@ABU_GUID@@ABUResourceGroup@CResourceManager@DispSvr@@@Z 10017730 f i ResourceManager.obj
 0001:00016760       ?clear@?$list@UClearRect@DispSvr@@V?$allocator@UClearRect@DispSvr@@@std@@@std@@QAEXXZ 10017760 f i D3D9VideoMixerModel.obj
 0001:00016760       ?clear@?$list@UVideoProcessorStub@DispSvr@@V?$allocator@UVideoProcessorStub@DispSvr@@@std@@@std@@QAEXXZ 10017760 f i D3D9VideoMixerBase.obj
 0001:00016760       ?clear@?$list@T?$PlaneVB@UD3D9ClearRectVertex@DispSvr@@@DispSvr@@V?$allocator@T?$PlaneVB@UD3D9ClearRectVertex@DispSvr@@@DispSvr@@@std@@@std@@QAEXXZ 10017760 f i D3D9VideoMixer.obj
 0001:00016760       ?clear@?$list@UD3D9Texture@CD3D9TexturePool@DispSvr@@V?$allocator@UD3D9Texture@CD3D9TexturePool@DispSvr@@@std@@@std@@QAEXXZ 10017760 f i D3D9TexturePool.obj
 0001:00016760       ?clear@?$list@PAUHINSTANCE__@@V?$allocator@PAUHINSTANCE__@@@std@@@std@@QAEXXZ 10017760 f i DynLibManager.obj
 0001:00016760       ?clear@?$list@UPlugin@CResourceManager@DispSvr@@V?$allocator@UPlugin@CResourceManager@DispSvr@@@std@@@std@@QAEXXZ 10017760 f i ResourceManager.obj
 0001:000167a0       ?_Buynode@?$list@UPlugin@CResourceManager@DispSvr@@V?$allocator@UPlugin@CResourceManager@DispSvr@@@std@@@std@@IAEPAU_Node@?$_List_nod@UPlugin@CResourceManager@DispSvr@@V?$allocator@UPlugin@CResourceManager@DispSvr@@@std@@@2@PAU342@0ABUPlugin@CResourceManager@DispSvr@@@Z 100177a0 f i ResourceManager.obj
 0001:000167e0       ?_Incsize@?$list@UPlugin@CResourceManager@DispSvr@@V?$allocator@UPlugin@CResourceManager@DispSvr@@@std@@@std@@IAEXI@Z 100177e0 f i ResourceManager.obj
 0001:00016870       ?_Isnil@?$_Tree@V?$_Tmap_traits@U_GUID@@UResourceGroup@CResourceManager@DispSvr@@U?$less@U_GUID@@@std@@V?$allocator@U?$pair@$$CBU_GUID@@UResourceGroup@CResourceManager@DispSvr@@@std@@@6@$0A@@std@@@std@@KAAADPAU_Node@?$_Tree_nod@V?$_Tmap_traits@U_GUID@@UResourceGroup@CResourceManager@DispSvr@@U?$less@U_GUID@@@std@@V?$allocator@U?$pair@$$CBU_GUID@@UResourceGroup@CResourceManager@DispSvr@@@std@@@6@$0A@@std@@@2@@Z 10017870 f i ResourceManager.obj
 0001:00016880       ?insert@?$_Tree@V?$_Tmap_traits@U_GUID@@UResourceGroup@CResourceManager@DispSvr@@U?$less@U_GUID@@@std@@V?$allocator@U?$pair@$$CBU_GUID@@UResourceGroup@CResourceManager@DispSvr@@@std@@@6@$0A@@std@@@std@@QAE?AU?$pair@Viterator@?$_Tree@V?$_Tmap_traits@U_GUID@@UResourceGroup@CResourceManager@DispSvr@@U?$less@U_GUID@@@std@@V?$allocator@U?$pair@$$CBU_GUID@@UResourceGroup@CResourceManager@DispSvr@@@std@@@6@$0A@@std@@@std@@_N@2@ABU?$pair@$$CBU_GUID@@UResourceGroup@CResourceManager@DispSvr@@@2@@Z 10017880 f i ResourceManager.obj
 0001:00016950       ?erase@?$_Tree@V?$_Tmap_traits@U_GUID@@UResourceGroup@CResourceManager@DispSvr@@U?$less@U_GUID@@@std@@V?$allocator@U?$pair@$$CBU_GUID@@UResourceGroup@CResourceManager@DispSvr@@@std@@@6@$0A@@std@@@std@@QAE?AViterator@12@V312@0@Z 10017950 f i ResourceManager.obj
 0001:00016a20       ?_Init@?$_Tree@V?$_Tmap_traits@U_GUID@@UResourceGroup@CResourceManager@DispSvr@@U?$less@U_GUID@@@std@@V?$allocator@U?$pair@$$CBU_GUID@@UResourceGroup@CResourceManager@DispSvr@@@std@@@6@$0A@@std@@@std@@IAEXXZ 10017a20 f i ResourceManager.obj
 0001:00016a50       ?_Insert@?$_Tree@V?$_Tmap_traits@U_GUID@@UResourceGroup@CResourceManager@DispSvr@@U?$less@U_GUID@@@std@@V?$allocator@U?$pair@$$CBU_GUID@@UResourceGroup@CResourceManager@DispSvr@@@std@@@6@$0A@@std@@@std@@IAE?AViterator@12@_NPAU_Node@?$_Tree_nod@V?$_Tmap_traits@U_GUID@@UResourceGroup@CResourceManager@DispSvr@@U?$less@U_GUID@@@std@@V?$allocator@U?$pair@$$CBU_GUID@@UResourceGroup@CResourceManager@DispSvr@@@std@@@6@$0A@@std@@@2@ABU?$pair@$$CBU_GUID@@UResourceGroup@CResourceManager@DispSvr@@@2@@Z 10017a50 f i ResourceManager.obj
 0001:00016c80       ?_Lbound@?$_Tree@V?$_Tmap_traits@U_GUID@@UResourceGroup@CResourceManager@DispSvr@@U?$less@U_GUID@@@std@@V?$allocator@U?$pair@$$CBU_GUID@@UResourceGroup@CResourceManager@DispSvr@@@std@@@6@$0A@@std@@@std@@IBEPAU_Node@?$_Tree_nod@V?$_Tmap_traits@U_GUID@@UResourceGroup@CResourceManager@DispSvr@@U?$less@U_GUID@@@std@@V?$allocator@U?$pair@$$CBU_GUID@@UResourceGroup@CResourceManager@DispSvr@@@std@@@6@$0A@@std@@@2@ABU_GUID@@@Z 10017c80 f i ResourceManager.obj
 0001:00016cc0       ?_Min@?$_Tree@V?$_Tmap_traits@U_GUID@@UResourceGroup@CResourceManager@DispSvr@@U?$less@U_GUID@@@std@@V?$allocator@U?$pair@$$CBU_GUID@@UResourceGroup@CResourceManager@DispSvr@@@std@@@6@$0A@@std@@@std@@KAPAU_Node@?$_Tree_nod@V?$_Tmap_traits@U_GUID@@UResourceGroup@CResourceManager@DispSvr@@U?$less@U_GUID@@@std@@V?$allocator@U?$pair@$$CBU_GUID@@UResourceGroup@CResourceManager@DispSvr@@@std@@@6@$0A@@std@@@2@PAU342@@Z 10017cc0 f i ResourceManager.obj
 0001:00016ce0       ??Fconst_iterator@?$_Tree@V?$_Tmap_traits@U_GUID@@UResourceGroup@CResourceManager@DispSvr@@U?$less@U_GUID@@@std@@V?$allocator@U?$pair@$$CBU_GUID@@UResourceGroup@CResourceManager@DispSvr@@@std@@@6@$0A@@std@@@std@@QAEAAV012@XZ 10017ce0 f i ResourceManager.obj
 0001:00016ce0       ??Fiterator@?$_Tree@V?$_Tmap_traits@U_GUID@@UResourceGroup@CResourceManager@DispSvr@@U?$less@U_GUID@@@std@@V?$allocator@U?$pair@$$CBU_GUID@@UResourceGroup@CResourceManager@DispSvr@@@std@@@6@$0A@@std@@@std@@QAEAAV012@XZ 10017ce0 f i ResourceManager.obj
 0001:00016cf0       ??0const_iterator@?$_Tree@V?$_Tmap_traits@U_GUID@@UResourceGroup@CResourceManager@DispSvr@@U?$less@U_GUID@@@std@@V?$allocator@U?$pair@$$CBU_GUID@@UResourceGroup@CResourceManager@DispSvr@@@std@@@6@$0A@@std@@@std@@QAE@PAU_Node@?$_Tree_nod@V?$_Tmap_traits@U_GUID@@UResourceGroup@CResourceManager@DispSvr@@U?$less@U_GUID@@@std@@V?$allocator@U?$pair@$$CBU_GUID@@UResourceGroup@CResourceManager@DispSvr@@@std@@@6@$0A@@std@@@2@PBV12@@Z 10017cf0 f i ResourceManager.obj
 0001:00016cf0       ??0?$_Const_iterator@$00@?$list@UClearRect@DispSvr@@V?$allocator@UClearRect@DispSvr@@@std@@@std@@QAE@PAU_Node@?$_List_nod@UClearRect@DispSvr@@V?$allocator@UClearRect@DispSvr@@@std@@@2@PBV12@@Z 10017cf0 f i AMDPCOMMixerPresenter.obj
 0001:00016cf0       ??0iterator@?$_Tree@V?$_Tset_traits@W4_D3DFORMAT@@U?$less@W4_D3DFORMAT@@@std@@V?$allocator@W4_D3DFORMAT@@@3@$0A@@std@@@std@@QAE@PAU_Node@?$_Tree_nod@V?$_Tset_traits@W4_D3DFORMAT@@U?$less@W4_D3DFORMAT@@@std@@V?$allocator@W4_D3DFORMAT@@@3@$0A@@std@@@2@PBV12@@Z 10017cf0 f i DXVAHDVideoProcessor.obj
 0001:00016cf0       ??0const_iterator@?$_Tree@V?$_Tmap_traits@KKU?$less@K@std@@V?$allocator@U?$pair@$$CBKK@std@@@2@$0A@@std@@@std@@QAE@PAU_Node@?$_Tree_nod@V?$_Tmap_traits@KKU?$less@K@std@@V?$allocator@U?$pair@$$CBKK@std@@@2@$0A@@std@@@2@PBV12@@Z 10017cf0 f i IntelDxva2Device.obj
 0001:00016cf0       ??0?$_Const_iterator@$00@?$list@T?$PlaneVB@UD3D9ClearRectVertex@DispSvr@@@DispSvr@@V?$allocator@T?$PlaneVB@UD3D9ClearRectVertex@DispSvr@@@DispSvr@@@std@@@std@@QAE@PAU_Node@?$_List_nod@T?$PlaneVB@UD3D9ClearRectVertex@DispSvr@@@DispSvr@@V?$allocator@T?$PlaneVB@UD3D9ClearRectVertex@DispSvr@@@DispSvr@@@std@@@2@PBV12@@Z 10017cf0 f i D3D9VideoMixer.obj
 0001:00016cf0       ??0iterator@?$_Tree@V?$_Tmap_traits@KUVideoSourceRate@CServerStateEventSink@DispSvr@@U?$less@K@std@@V?$allocator@U?$pair@$$CBKUVideoSourceRate@CServerStateEventSink@DispSvr@@@std@@@5@$0A@@std@@@std@@QAE@PAU_Node@?$_Tree_nod@V?$_Tmap_traits@KUVideoSourceRate@CServerStateEventSink@DispSvr@@U?$less@K@std@@V?$allocator@U?$pair@$$CBKUVideoSourceRate@CServerStateEventSink@DispSvr@@@std@@@5@$0A@@std@@@2@PBV12@@Z 10017cf0 f i ServerStateEventSink.obj
 0001:00016cf0       ??0?$_Iterator@$00@?$list@T?$PlaneVB@UD3D9ClearRectVertex@DispSvr@@@DispSvr@@V?$allocator@T?$PlaneVB@UD3D9ClearRectVertex@DispSvr@@@DispSvr@@@std@@@std@@QAE@PAU_Node@?$_List_nod@T?$PlaneVB@UD3D9ClearRectVertex@DispSvr@@@DispSvr@@V?$allocator@T?$PlaneVB@UD3D9ClearRectVertex@DispSvr@@@DispSvr@@@std@@@2@PBV12@@Z 10017cf0 f i D3D9VideoMixer.obj
 0001:00016cf0       ??0const_iterator@?$_Tree@V?$_Tmap_traits@PBUIDirect3DSurface9@@PAUNVDX_ObjectHandle__@@U?$less@PBUIDirect3DSurface9@@@std@@V?$allocator@U?$pair@QBUIDirect3DSurface9@@PAUNVDX_ObjectHandle__@@@std@@@4@$0A@@std@@@std@@QAE@PAU_Node@?$_Tree_nod@V?$_Tmap_traits@PBUIDirect3DSurface9@@PAUNVDX_ObjectHandle__@@U?$less@PBUIDirect3DSurface9@@@std@@V?$allocator@U?$pair@QBUIDirect3DSurface9@@PAUNVDX_ObjectHandle__@@@std@@@4@$0A@@std@@@2@PBV12@@Z 10017cf0 f i NvAPIPresenter.obj
 0001:00016cf0       ??0iterator@?$_Tree@V?$_Tmap_traits@$$CBKKU?$less@$$CBK@std@@V?$allocator@U?$pair@$$CBKK@std@@@2@$0A@@std@@@std@@QAE@PAU_Node@?$_Tree_nod@V?$_Tmap_traits@$$CBKKU?$less@$$CBK@std@@V?$allocator@U?$pair@$$CBKK@std@@@2@$0A@@std@@@2@PBV12@@Z 10017cf0 f i AMDPCOMMixerPresenter.obj
 0001:00016cf0       ??0?$_Iterator@$00@?$list@PAUHINSTANCE__@@V?$allocator@PAUHINSTANCE__@@@std@@@std@@QAE@PAU_Node@?$_List_nod@PAUHINSTANCE__@@V?$allocator@PAUHINSTANCE__@@@std@@@2@PBV12@@Z 10017cf0 f i DynLibManager.obj
 0001:00016cf0       ??0const_iterator@?$_Tree@V?$_Tset_traits@W4_D3DFORMAT@@U?$less@W4_D3DFORMAT@@@std@@V?$allocator@W4_D3DFORMAT@@@3@$0A@@std@@@std@@QAE@PAU_Node@?$_Tree_nod@V?$_Tset_traits@W4_D3DFORMAT@@U?$less@W4_D3DFORMAT@@@std@@V?$allocator@W4_D3DFORMAT@@@3@$0A@@std@@@2@PBV12@@Z 10017cf0 f i DXVAHDVideoProcessor.obj
 0001:00016cf0       ??0?$_Const_iterator@$00@?$list@UD3D9Texture@CD3D9TexturePool@DispSvr@@V?$allocator@UD3D9Texture@CD3D9TexturePool@DispSvr@@@std@@@std@@QAE@PAU_Node@?$_List_nod@UD3D9Texture@CD3D9TexturePool@DispSvr@@V?$allocator@UD3D9Texture@CD3D9TexturePool@DispSvr@@@std@@@2@PBV12@@Z 10017cf0 f i D3D9TexturePool.obj
 0001:00016cf0       ??0?$_Iterator@$00@?$list@UClearRect@DispSvr@@V?$allocator@UClearRect@DispSvr@@@std@@@std@@QAE@PAU_Node@?$_List_nod@UClearRect@DispSvr@@V?$allocator@UClearRect@DispSvr@@@std@@@2@PBV12@@Z 10017cf0 f i D3D9VideoMixerModel.obj
 0001:00016cf0       ??0?$_Const_iterator@$00@?$list@PAUHINSTANCE__@@V?$allocator@PAUHINSTANCE__@@@std@@@std@@QAE@PAU_Node@?$_List_nod@PAUHINSTANCE__@@V?$allocator@PAUHINSTANCE__@@@std@@@2@PBV12@@Z 10017cf0 f i DynLibManager.obj
 0001:00016cf0       ??0const_iterator@?$_Tree@V?$_Tmap_traits@PAXUD3D9Texture@CD3D9TexturePool@DispSvr@@U?$less@PAX@std@@V?$allocator@U?$pair@QAXUD3D9Texture@CD3D9TexturePool@DispSvr@@@std@@@5@$0A@@std@@@std@@QAE@PAU_Node@?$_Tree_nod@V?$_Tmap_traits@PAXUD3D9Texture@CD3D9TexturePool@DispSvr@@U?$less@PAX@std@@V?$allocator@U?$pair@QAXUD3D9Texture@CD3D9TexturePool@DispSvr@@@std@@@5@$0A@@std@@@2@PBV12@@Z 10017cf0 f i D3D9TexturePool.obj
 0001:00016cf0       ??0iterator@?$_Tree@V?$_Tmap_traits@KKU?$less@K@std@@V?$allocator@U?$pair@$$CBKK@std@@@2@$0A@@std@@@std@@QAE@PAU_Node@?$_Tree_nod@V?$_Tmap_traits@KKU?$less@K@std@@V?$allocator@U?$pair@$$CBKK@std@@@2@$0A@@std@@@2@PBV12@@Z 10017cf0 f i IntelDxva2Device.obj
 0001:00016cf0       ??0?$_Const_iterator@$00@?$list@UPlugin@CResourceManager@DispSvr@@V?$allocator@UPlugin@CResourceManager@DispSvr@@@std@@@std@@QAE@PAU_Node@?$_List_nod@UPlugin@CResourceManager@DispSvr@@V?$allocator@UPlugin@CResourceManager@DispSvr@@@std@@@2@PBV12@@Z 10017cf0 f i ResourceManager.obj
 0001:00016cf0       ??0?$_Iterator@$00@?$list@UPlugin@CResourceManager@DispSvr@@V?$allocator@UPlugin@CResourceManager@DispSvr@@@std@@@std@@QAE@PAU_Node@?$_List_nod@UPlugin@CResourceManager@DispSvr@@V?$allocator@UPlugin@CResourceManager@DispSvr@@@std@@@2@PBV12@@Z 10017cf0 f i ResourceManager.obj
 0001:00016cf0       ??0iterator@?$_Tree@V?$_Tmap_traits@PAXUD3D9Texture@CD3D9TexturePool@DispSvr@@U?$less@PAX@std@@V?$allocator@U?$pair@QAXUD3D9Texture@CD3D9TexturePool@DispSvr@@@std@@@5@$0A@@std@@@std@@QAE@PAU_Node@?$_Tree_nod@V?$_Tmap_traits@PAXUD3D9Texture@CD3D9TexturePool@DispSvr@@U?$less@PAX@std@@V?$allocator@U?$pair@QAXUD3D9Texture@CD3D9TexturePool@DispSvr@@@std@@@5@$0A@@std@@@2@PBV12@@Z 10017cf0 f i D3D9TexturePool.obj
 0001:00016cf0       ??0iterator@?$_Tree@V?$_Tmap_traits@U_GUID@@UResourceGroup@CResourceManager@DispSvr@@U?$less@U_GUID@@@std@@V?$allocator@U?$pair@$$CBU_GUID@@UResourceGroup@CResourceManager@DispSvr@@@std@@@6@$0A@@std@@@std@@QAE@PAU_Node@?$_Tree_nod@V?$_Tmap_traits@U_GUID@@UResourceGroup@CResourceManager@DispSvr@@U?$less@U_GUID@@@std@@V?$allocator@U?$pair@$$CBU_GUID@@UResourceGroup@CResourceManager@DispSvr@@@std@@@6@$0A@@std@@@2@PBV12@@Z 10017cf0 f i ResourceManager.obj
 0001:00016cf0       ??0iterator@?$_Tree@V?$_Tmap_traits@PBUIDirect3DSurface9@@PAUNVDX_ObjectHandle__@@U?$less@PBUIDirect3DSurface9@@@std@@V?$allocator@U?$pair@QBUIDirect3DSurface9@@PAUNVDX_ObjectHandle__@@@std@@@4@$0A@@std@@@std@@QAE@PAU_Node@?$_Tree_nod@V?$_Tmap_traits@PBUIDirect3DSurface9@@PAUNVDX_ObjectHandle__@@U?$less@PBUIDirect3DSurface9@@@std@@V?$allocator@U?$pair@QBUIDirect3DSurface9@@PAUNVDX_ObjectHandle__@@@std@@@4@$0A@@std@@@2@PBV12@@Z 10017cf0 f i NvAPIPresenter.obj
 0001:00016cf0       ??0iterator@?$_Tree@V?$_Tmap_traits@W4PLANE_FORMAT@DispSvr@@UTextureCap@2@U?$less@W4PLANE_FORMAT@DispSvr@@@std@@V?$allocator@U?$pair@$$CBW4PLANE_FORMAT@DispSvr@@UTextureCap@2@@std@@@5@$0A@@std@@@std@@QAE@PAU_Node@?$_Tree_nod@V?$_Tmap_traits@W4PLANE_FORMAT@DispSvr@@UTextureCap@2@U?$less@W4PLANE_FORMAT@DispSvr@@@std@@V?$allocator@U?$pair@$$CBW4PLANE_FORMAT@DispSvr@@UTextureCap@2@@std@@@5@$0A@@std@@@2@PBV12@@Z 10017cf0 f i D3D9TexturePool.obj
 0001:00016cf0       ??0?$_Const_iterator@$00@?$list@UVideoProcessorStub@DispSvr@@V?$allocator@UVideoProcessorStub@DispSvr@@@std@@@std@@QAE@PAU_Node@?$_List_nod@UVideoProcessorStub@DispSvr@@V?$allocator@UVideoProcessorStub@DispSvr@@@std@@@2@PBV12@@Z 10017cf0 f i AMDPCOMMixerPresenter.obj
 0001:00016cf0       ??0const_iterator@?$_Tree@V?$_Tmap_traits@W4PLANE_FORMAT@DispSvr@@UTextureCap@2@U?$less@W4PLANE_FORMAT@DispSvr@@@std@@V?$allocator@U?$pair@$$CBW4PLANE_FORMAT@DispSvr@@UTextureCap@2@@std@@@5@$0A@@std@@@std@@QAE@PAU_Node@?$_Tree_nod@V?$_Tmap_traits@W4PLANE_FORMAT@DispSvr@@UTextureCap@2@U?$less@W4PLANE_FORMAT@DispSvr@@@std@@V?$allocator@U?$pair@$$CBW4PLANE_FORMAT@DispSvr@@UTextureCap@2@@std@@@5@$0A@@std@@@2@PBV12@@Z 10017cf0 f i D3D9TexturePool.obj
 0001:00016cf0       ??0?$_Iterator@$00@?$list@UD3D9Texture@CD3D9TexturePool@DispSvr@@V?$allocator@UD3D9Texture@CD3D9TexturePool@DispSvr@@@std@@@std@@QAE@PAU_Node@?$_List_nod@UD3D9Texture@CD3D9TexturePool@DispSvr@@V?$allocator@UD3D9Texture@CD3D9TexturePool@DispSvr@@@std@@@2@PBV12@@Z 10017cf0 f i D3D9TexturePool.obj
 0001:00016cf0       ??0iterator@?$_Tree@V?$_Tmap_traits@$$CBKW4_PCOM_STEREOSCOPIC_FORMAT@@U?$less@$$CBK@std@@V?$allocator@U?$pair@$$CBKW4_PCOM_STEREOSCOPIC_FORMAT@@@std@@@3@$0A@@std@@@std@@QAE@PAU_Node@?$_Tree_nod@V?$_Tmap_traits@$$CBKW4_PCOM_STEREOSCOPIC_FORMAT@@U?$less@$$CBK@std@@V?$allocator@U?$pair@$$CBKW4_PCOM_STEREOSCOPIC_FORMAT@@@std@@@3@$0A@@std@@@2@PBV12@@Z 10017cf0 f i AMDPCOMMixerPresenter.obj
 0001:00016cf0       ??0?$_Iterator@$00@?$list@UVideoProcessorStub@DispSvr@@V?$allocator@UVideoProcessorStub@DispSvr@@@std@@@std@@QAE@PAU_Node@?$_List_nod@UVideoProcessorStub@DispSvr@@V?$allocator@UVideoProcessorStub@DispSvr@@@std@@@2@PBV12@@Z 10017cf0 f i AMDPCOMMixerPresenter.obj
 0001:00016cf0       ??0const_iterator@?$_Tree@V?$_Tmap_traits@KUVideoSourceRate@CServerStateEventSink@DispSvr@@U?$less@K@std@@V?$allocator@U?$pair@$$CBKUVideoSourceRate@CServerStateEventSink@DispSvr@@@std@@@5@$0A@@std@@@std@@QAE@PAU_Node@?$_Tree_nod@V?$_Tmap_traits@KUVideoSourceRate@CServerStateEventSink@DispSvr@@U?$less@K@std@@V?$allocator@U?$pair@$$CBKUVideoSourceRate@CServerStateEventSink@DispSvr@@@std@@@5@$0A@@std@@@2@PBV12@@Z 10017cf0 f i ServerStateEventSink.obj
 0001:00016cf0       ??0const_iterator@?$_Tree@V?$_Tmap_traits@$$CBKKU?$less@$$CBK@std@@V?$allocator@U?$pair@$$CBKK@std@@@2@$0A@@std@@@std@@QAE@PAU_Node@?$_Tree_nod@V?$_Tmap_traits@$$CBKKU?$less@$$CBK@std@@V?$allocator@U?$pair@$$CBKK@std@@@2@$0A@@std@@@2@PBV12@@Z 10017cf0 f i AMDPCOMMixerPresenter.obj
 0001:00016cf0       ??0const_iterator@?$_Tree@V?$_Tmap_traits@$$CBKW4_PCOM_STEREOSCOPIC_FORMAT@@U?$less@$$CBK@std@@V?$allocator@U?$pair@$$CBKW4_PCOM_STEREOSCOPIC_FORMAT@@@std@@@3@$0A@@std@@@std@@QAE@PAU_Node@?$_Tree_nod@V?$_Tmap_traits@$$CBKW4_PCOM_STEREOSCOPIC_FORMAT@@U?$less@$$CBK@std@@V?$allocator@U?$pair@$$CBKW4_PCOM_STEREOSCOPIC_FORMAT@@@std@@@3@$0A@@std@@@2@PBV12@@Z 10017cf0 f i AMDPCOMMixerPresenter.obj
 0001:00016d10       ?max_size@?$allocator@UPlugin@CResourceManager@DispSvr@@@std@@QBEIXZ 10017d10 f i ResourceManager.obj
 0001:00016d10       ?max_size@?$list@UPlugin@CResourceManager@DispSvr@@V?$allocator@UPlugin@CResourceManager@DispSvr@@@std@@@std@@QBEIXZ 10017d10 f i ResourceManager.obj
 0001:00016d20       ?construct@?$allocator@UPlugin@CResourceManager@DispSvr@@@std@@QAEXPAUPlugin@CResourceManager@DispSvr@@ABU345@@Z 10017d20 f i ResourceManager.obj
 0001:00016d20       ??$_Construct@UPlugin@CResourceManager@DispSvr@@U123@@std@@YAXPAUPlugin@CResourceManager@DispSvr@@ABU123@@Z 10017d20 f i ResourceManager.obj
 0001:00016d40       ?_Color@?$_Tree@V?$_Tmap_traits@U_GUID@@UResourceGroup@CResourceManager@DispSvr@@U?$less@U_GUID@@@std@@V?$allocator@U?$pair@$$CBU_GUID@@UResourceGroup@CResourceManager@DispSvr@@@std@@@6@$0A@@std@@@std@@KAAADPAU_Node@?$_Tree_nod@V?$_Tmap_traits@U_GUID@@UResourceGroup@CResourceManager@DispSvr@@U?$less@U_GUID@@@std@@V?$allocator@U?$pair@$$CBU_GUID@@UResourceGroup@CResourceManager@DispSvr@@@std@@@6@$0A@@std@@@2@@Z 10017d40 f i ResourceManager.obj
 0001:00016d50       ?max_size@?$_Tree@V?$_Tmap_traits@U_GUID@@UResourceGroup@CResourceManager@DispSvr@@U?$less@U_GUID@@@std@@V?$allocator@U?$pair@$$CBU_GUID@@UResourceGroup@CResourceManager@DispSvr@@@std@@@6@$0A@@std@@@std@@QBEIXZ 10017d50 f i ResourceManager.obj
 0001:00016d50       ?max_size@?$allocator@U?$pair@$$CBU_GUID@@UResourceGroup@CResourceManager@DispSvr@@@std@@@std@@QBEIXZ 10017d50 f i ResourceManager.obj
 0001:00016d60       ?erase@?$_Tree@V?$_Tmap_traits@U_GUID@@UResourceGroup@CResourceManager@DispSvr@@U?$less@U_GUID@@@std@@V?$allocator@U?$pair@$$CBU_GUID@@UResourceGroup@CResourceManager@DispSvr@@@std@@@6@$0A@@std@@@std@@QAE?AViterator@12@V312@@Z 10017d60 f i ResourceManager.obj
 0001:00017020       ?clear@?$_Tree@V?$_Tmap_traits@U_GUID@@UResourceGroup@CResourceManager@DispSvr@@U?$less@U_GUID@@@std@@V?$allocator@U?$pair@$$CBU_GUID@@UResourceGroup@CResourceManager@DispSvr@@@std@@@6@$0A@@std@@@std@@QAEXXZ 10018020 f i ResourceManager.obj
 0001:00017050       ?_Lrotate@?$_Tree@V?$_Tmap_traits@U_GUID@@UResourceGroup@CResourceManager@DispSvr@@U?$less@U_GUID@@@std@@V?$allocator@U?$pair@$$CBU_GUID@@UResourceGroup@CResourceManager@DispSvr@@@std@@@6@$0A@@std@@@std@@IAEXPAU_Node@?$_Tree_nod@V?$_Tmap_traits@U_GUID@@UResourceGroup@CResourceManager@DispSvr@@U?$less@U_GUID@@@std@@V?$allocator@U?$pair@$$CBU_GUID@@UResourceGroup@CResourceManager@DispSvr@@@std@@@6@$0A@@std@@@2@@Z 10018050 f i ResourceManager.obj
 0001:000170a0       ?_Rrotate@?$_Tree@V?$_Tmap_traits@U_GUID@@UResourceGroup@CResourceManager@DispSvr@@U?$less@U_GUID@@@std@@V?$allocator@U?$pair@$$CBU_GUID@@UResourceGroup@CResourceManager@DispSvr@@@std@@@6@$0A@@std@@@std@@IAEXPAU_Node@?$_Tree_nod@V?$_Tmap_traits@U_GUID@@UResourceGroup@CResourceManager@DispSvr@@U?$less@U_GUID@@@std@@V?$allocator@U?$pair@$$CBU_GUID@@UResourceGroup@CResourceManager@DispSvr@@@std@@@6@$0A@@std@@@2@@Z 100180a0 f i ResourceManager.obj
 0001:000170f0       ?_Buynode@?$_Tree@V?$_Tmap_traits@U_GUID@@UResourceGroup@CResourceManager@DispSvr@@U?$less@U_GUID@@@std@@V?$allocator@U?$pair@$$CBU_GUID@@UResourceGroup@CResourceManager@DispSvr@@@std@@@6@$0A@@std@@@std@@IAEPAU_Node@?$_Tree_nod@V?$_Tmap_traits@U_GUID@@UResourceGroup@CResourceManager@DispSvr@@U?$less@U_GUID@@@std@@V?$allocator@U?$pair@$$CBU_GUID@@UResourceGroup@CResourceManager@DispSvr@@@std@@@6@$0A@@std@@@2@XZ 100180f0 f i ResourceManager.obj
 0001:00017130       ?_Buynode@?$_Tree@V?$_Tmap_traits@U_GUID@@UResourceGroup@CResourceManager@DispSvr@@U?$less@U_GUID@@@std@@V?$allocator@U?$pair@$$CBU_GUID@@UResourceGroup@CResourceManager@DispSvr@@@std@@@6@$0A@@std@@@std@@IAEPAU_Node@?$_Tree_nod@V?$_Tmap_traits@U_GUID@@UResourceGroup@CResourceManager@DispSvr@@U?$less@U_GUID@@@std@@V?$allocator@U?$pair@$$CBU_GUID@@UResourceGroup@CResourceManager@DispSvr@@@std@@@6@$0A@@std@@@2@PAU342@00ABU?$pair@$$CBU_GUID@@UResourceGroup@CResourceManager@DispSvr@@@2@D@Z 10018130 f i ResourceManager.obj
 0001:00017170       ??Eiterator@?$_Tree@V?$_Tmap_traits@U_GUID@@UResourceGroup@CResourceManager@DispSvr@@U?$less@U_GUID@@@std@@V?$allocator@U?$pair@$$CBU_GUID@@UResourceGroup@CResourceManager@DispSvr@@@std@@@6@$0A@@std@@@std@@QAE?AV012@H@Z 10018170 f i ResourceManager.obj
 0001:00017190       ?_Erase@?$_Tree@V?$_Tmap_traits@U_GUID@@UResourceGroup@CResourceManager@DispSvr@@U?$less@U_GUID@@@std@@V?$allocator@U?$pair@$$CBU_GUID@@UResourceGroup@CResourceManager@DispSvr@@@std@@@6@$0A@@std@@@std@@IAEXPAU_Node@?$_Tree_nod@V?$_Tmap_traits@U_GUID@@UResourceGroup@CResourceManager@DispSvr@@U?$less@U_GUID@@@std@@V?$allocator@U?$pair@$$CBU_GUID@@UResourceGroup@CResourceManager@DispSvr@@@std@@@6@$0A@@std@@@2@@Z 10018190 f i ResourceManager.obj
 0001:000171d0       ?_Max@?$_Tree@V?$_Tmap_traits@U_GUID@@UResourceGroup@CResourceManager@DispSvr@@U?$less@U_GUID@@@std@@V?$allocator@U?$pair@$$CBU_GUID@@UResourceGroup@CResourceManager@DispSvr@@@std@@@6@$0A@@std@@@std@@KAPAU_Node@?$_Tree_nod@V?$_Tmap_traits@U_GUID@@UResourceGroup@CResourceManager@DispSvr@@U?$less@U_GUID@@@std@@V?$allocator@U?$pair@$$CBU_GUID@@UResourceGroup@CResourceManager@DispSvr@@@std@@@6@$0A@@std@@@2@PAU342@@Z 100181d0 f i ResourceManager.obj
 0001:000171f0       ?allocate@?$allocator@U_Node@?$_Tree_nod@V?$_Tmap_traits@U_GUID@@UResourceGroup@CResourceManager@DispSvr@@U?$less@U_GUID@@@std@@V?$allocator@U?$pair@$$CBU_GUID@@UResourceGroup@CResourceManager@DispSvr@@@std@@@6@$0A@@std@@@std@@@std@@QAEPAU_Node@?$_Tree_nod@V?$_Tmap_traits@U_GUID@@UResourceGroup@CResourceManager@DispSvr@@U?$less@U_GUID@@@std@@V?$allocator@U?$pair@$$CBU_GUID@@UResourceGroup@CResourceManager@DispSvr@@@std@@@6@$0A@@std@@@2@I@Z 100181f0 f i ResourceManager.obj
 0001:00017200       ?_Dec@const_iterator@?$_Tree@V?$_Tmap_traits@U_GUID@@UResourceGroup@CResourceManager@DispSvr@@U?$less@U_GUID@@@std@@V?$allocator@U?$pair@$$CBU_GUID@@UResourceGroup@CResourceManager@DispSvr@@@std@@@6@$0A@@std@@@std@@QAEXXZ 10018200 f i ResourceManager.obj
 0001:00017290       ??0_Node@?$_Tree_nod@V?$_Tmap_traits@U_GUID@@UResourceGroup@CResourceManager@DispSvr@@U?$less@U_GUID@@@std@@V?$allocator@U?$pair@$$CBU_GUID@@UResourceGroup@CResourceManager@DispSvr@@@std@@@6@$0A@@std@@@std@@QAE@PAU012@00ABU?$pair@$$CBU_GUID@@UResourceGroup@CResourceManager@DispSvr@@@2@D@Z 10018290 f i ResourceManager.obj
 0001:000172c0       ??$?9V?$_Vector_iterator@UDisplayObjectInfo@IParentDisplayObjectImpl@@V?$allocator@UDisplayObjectInfo@IParentDisplayObjectImpl@@@std@@@std@@V01@@std@@YA_NABV?$reverse_iterator@V?$_Vector_iterator@UDisplayObjectInfo@IParentDisplayObjectImpl@@V?$allocator@UDisplayObjectInfo@IParentDisplayObjectImpl@@@std@@@std@@@0@0@Z 100182c0 f i CompositeDO.obj
 0001:000172c0       ??$?9V?$_Iterator@$00@?$list@UPlugin@CResourceManager@DispSvr@@V?$allocator@UPlugin@CResourceManager@DispSvr@@@std@@@std@@V012@@std@@YA_NABV?$reverse_iterator@V?$_Iterator@$00@?$list@UPlugin@CResourceManager@DispSvr@@V?$allocator@UPlugin@CResourceManager@DispSvr@@@std@@@std@@@0@0@Z 100182c0 f i ResourceManager.obj
 0001:000172f0       ??$_Allocate@U_Node@?$_Tree_nod@V?$_Tmap_traits@U_GUID@@UResourceGroup@CResourceManager@DispSvr@@U?$less@U_GUID@@@std@@V?$allocator@U?$pair@$$CBU_GUID@@UResourceGroup@CResourceManager@DispSvr@@@std@@@6@$0A@@std@@@std@@@std@@YAPAU_Node@?$_Tree_nod@V?$_Tmap_traits@U_GUID@@UResourceGroup@CResourceManager@DispSvr@@U?$less@U_GUID@@@std@@V?$allocator@U?$pair@$$CBU_GUID@@UResourceGroup@CResourceManager@DispSvr@@@std@@@6@$0A@@std@@@0@IPAU120@@Z 100182f0 f i ResourceManager.obj
 0001:00017340       ??$?8V?$_Vector_iterator@UDisplayObjectInfo@IParentDisplayObjectImpl@@V?$allocator@UDisplayObjectInfo@IParentDisplayObjectImpl@@@std@@@std@@V01@@std@@YA_NABV?$reverse_iterator@V?$_Vector_iterator@UDisplayObjectInfo@IParentDisplayObjectImpl@@V?$allocator@UDisplayObjectInfo@IParentDisplayObjectImpl@@@std@@@std@@@0@0@Z 10018340 f i CompositeDO.obj
 0001:00017340       ??$_Equal@V?$_Iterator@$00@?$list@UPlugin@CResourceManager@DispSvr@@V?$allocator@UPlugin@CResourceManager@DispSvr@@@std@@@std@@@?$reverse_iterator@V?$_Iterator@$00@?$list@UPlugin@CResourceManager@DispSvr@@V?$allocator@UPlugin@CResourceManager@DispSvr@@@std@@@std@@@std@@QBE_NABV01@@Z 10018340 f i ResourceManager.obj
 0001:00017340       ??$?8V?$_Iterator@$00@?$list@UPlugin@CResourceManager@DispSvr@@V?$allocator@UPlugin@CResourceManager@DispSvr@@@std@@@std@@V012@@std@@YA_NABV?$reverse_iterator@V?$_Iterator@$00@?$list@UPlugin@CResourceManager@DispSvr@@V?$allocator@UPlugin@CResourceManager@DispSvr@@@std@@@std@@@0@0@Z 10018340 f i ResourceManager.obj
 0001:00017340       ??$_Equal@V?$_Vector_iterator@UDisplayObjectInfo@IParentDisplayObjectImpl@@V?$allocator@UDisplayObjectInfo@IParentDisplayObjectImpl@@@std@@@std@@@?$reverse_iterator@V?$_Vector_iterator@UDisplayObjectInfo@IParentDisplayObjectImpl@@V?$allocator@UDisplayObjectInfo@IParentDisplayObjectImpl@@@std@@@std@@@std@@QBE_NABV01@@Z 10018340 f i CompositeDO.obj
 0001:00017370       ?base@?$reverse_iterator@V?$_Vector_iterator@UDisplayObjectInfo@IParentDisplayObjectImpl@@V?$allocator@UDisplayObjectInfo@IParentDisplayObjectImpl@@@std@@@std@@@std@@QBE?AV?$_Vector_iterator@UDisplayObjectInfo@IParentDisplayObjectImpl@@V?$allocator@UDisplayObjectInfo@IParentDisplayObjectImpl@@@std@@@2@XZ 10018370 f i CompositeDO.obj
 0001:00017370       ?base@?$reverse_iterator@V?$_Iterator@$00@?$list@UPlugin@CResourceManager@DispSvr@@V?$allocator@UPlugin@CResourceManager@DispSvr@@@std@@@std@@@std@@QBE?AV?$_Iterator@$00@?$list@UPlugin@CResourceManager@DispSvr@@V?$allocator@UPlugin@CResourceManager@DispSvr@@@std@@@2@XZ 10018370 f i ResourceManager.obj
 0001:00017380       ??0CRateCalculator@CServerStateEventSink@DispSvr@@QAE@XZ 10018380 f i ServerStateEventSink.obj
 0001:00017390       ?GetInstantRate@CRateCalculator@CServerStateEventSink@DispSvr@@QBENXZ 10018390 f i ServerStateEventSink.obj
 0001:000173b0       ?GetAverageRate@CRateCalculator@CServerStateEventSink@DispSvr@@QBENXZ 100183b0 f i ServerStateEventSink.obj
 0001:000173d0       ?Interval2Rate@CRateCalculator@CServerStateEventSink@DispSvr@@SANN@Z 100183d0 f i ServerStateEventSink.obj
 0001:000173f0       ??0CServerStateEventSink@DispSvr@@QAE@XZ 100183f0 f   ServerStateEventSink.obj
 0001:000174b0       ??_GCServerStateEventSink@DispSvr@@UAEPAXI@Z 100184b0 f i ServerStateEventSink.obj
 0001:000174b0       ??_ECServerStateEventSink@DispSvr@@UAEPAXI@Z 100184b0 f i  CIL library: CIL module
 0001:000174d0       ??0IDisplayServerStateEventSink@@QAE@XZ 100184d0 f i ServerStateEventSink.obj
 0001:000174e0       ??1CServerStateEventSink@DispSvr@@UAE@XZ 100184e0 f   ServerStateEventSink.obj
 0001:00017550       ?QueryInterface@CServerStateEventSink@DispSvr@@UAGJABU_GUID@@PAPAX@Z 10018550 f   ServerStateEventSink.obj
 0001:000175a0       ?Notify@CServerStateEventSink@DispSvr@@UAGJKKK@Z 100185a0 f   ServerStateEventSink.obj
 0001:00017750       ?GetStateTextA@CServerStateEventSink@DispSvr@@UAGJPADI@Z 10018750 f   ServerStateEventSink.obj
 0001:00017910       ?Update@CRateCalculator@CServerStateEventSink@DispSvr@@QAEXXZ 10018910 f   ServerStateEventSink.obj
 0001:000179a0       ?Reset@CRateCalculator@CServerStateEventSink@DispSvr@@QAEXXZ 100189a0 f   ServerStateEventSink.obj
 0001:000179c0       ??0?$Singleton@VCServerStateEventSink@DispSvr@@@DispSvr@@QAE@XZ 100189c0 f i ServerStateEventSink.obj
 0001:000179e0       ??1?$Singleton@VCServerStateEventSink@DispSvr@@@DispSvr@@QAE@XZ 100189e0 f i ServerStateEventSink.obj
 0001:000179f0       ??0?$map@KUVideoSourceRate@CServerStateEventSink@DispSvr@@U?$less@K@std@@V?$allocator@U?$pair@$$CBKUVideoSourceRate@CServerStateEventSink@DispSvr@@@std@@@5@@std@@QAE@XZ 100189f0 f i ServerStateEventSink.obj
 0001:000179f0       ??0?$_Tree@V?$_Tmap_traits@KUVideoSourceRate@CServerStateEventSink@DispSvr@@U?$less@K@std@@V?$allocator@U?$pair@$$CBKUVideoSourceRate@CServerStateEventSink@DispSvr@@@std@@@5@$0A@@std@@@std@@QAE@ABU?$less@K@1@ABV?$allocator@U?$pair@$$CBKUVideoSourceRate@CServerStateEventSink@DispSvr@@@std@@@1@@Z 100189f0 f i ServerStateEventSink.obj
 0001:00017a20       ??A?$map@KUVideoSourceRate@CServerStateEventSink@DispSvr@@U?$less@K@std@@V?$allocator@U?$pair@$$CBKUVideoSourceRate@CServerStateEventSink@DispSvr@@@std@@@5@@std@@QAEAAUVideoSourceRate@CServerStateEventSink@DispSvr@@ABK@Z 10018a20 f i ServerStateEventSink.obj
 0001:00017ae0       ??1?$map@KUVideoSourceRate@CServerStateEventSink@DispSvr@@U?$less@K@std@@V?$allocator@U?$pair@$$CBKUVideoSourceRate@CServerStateEventSink@DispSvr@@@std@@@5@@std@@QAE@XZ 10018ae0 f i ServerStateEventSink.obj
 0001:00017ae0       ??1?$_Tree@V?$_Tmap_traits@KUVideoSourceRate@CServerStateEventSink@DispSvr@@U?$less@K@std@@V?$allocator@U?$pair@$$CBKUVideoSourceRate@CServerStateEventSink@DispSvr@@@std@@@5@$0A@@std@@@std@@QAE@XZ 10018ae0 f i ServerStateEventSink.obj
 0001:00017af0       ?erase@?$_Tree@V?$_Tmap_traits@KUVideoSourceRate@CServerStateEventSink@DispSvr@@U?$less@K@std@@V?$allocator@U?$pair@$$CBKUVideoSourceRate@CServerStateEventSink@DispSvr@@@std@@@5@$0A@@std@@@std@@QAE?AViterator@12@V312@@Z 10018af0 f i ServerStateEventSink.obj
 0001:00017db0       ?find@?$_Tree@V?$_Tmap_traits@KUVideoSourceRate@CServerStateEventSink@DispSvr@@U?$less@K@std@@V?$allocator@U?$pair@$$CBKUVideoSourceRate@CServerStateEventSink@DispSvr@@@std@@@5@$0A@@std@@@std@@QAE?AViterator@12@ABK@Z 10018db0 f i ServerStateEventSink.obj
 0001:00017e20       ??9const_iterator@?$_Tree@V?$_Tmap_traits@PBUIDirect3DSurface9@@PAUNVDX_ObjectHandle__@@U?$less@PBUIDirect3DSurface9@@@std@@V?$allocator@U?$pair@QBUIDirect3DSurface9@@PAUNVDX_ObjectHandle__@@@std@@@4@$0A@@std@@@std@@QBE_NABV012@@Z 10018e20 f i NvAPIPresenter.obj
 0001:00017e20       ??9?$_Const_iterator@$00@?$list@UClearRect@DispSvr@@V?$allocator@UClearRect@DispSvr@@@std@@@std@@QBE_NABV012@@Z 10018e20 f i AMDPCOMMixerPresenter.obj
 0001:00017e20       ??9?$_Vector_const_iterator@UCEvrVideoSample@CVideoSamplePool@@V?$allocator@UCEvrVideoSample@CVideoSamplePool@@@std@@@std@@QBE_NABV01@@Z 10018e20 f i VideoSourceEvr.obj
 0001:00017e20       ??9const_iterator@?$_Tree@V?$_Tmap_traits@KUVideoSourceRate@CServerStateEventSink@DispSvr@@U?$less@K@std@@V?$allocator@U?$pair@$$CBKUVideoSourceRate@CServerStateEventSink@DispSvr@@@std@@@5@$0A@@std@@@std@@QBE_NABV012@@Z 10018e20 f i ServerStateEventSink.obj
 0001:00017e20       ??9const_iterator@?$_Tree@V?$_Tmap_traits@PAXUD3D9Texture@CD3D9TexturePool@DispSvr@@U?$less@PAX@std@@V?$allocator@U?$pair@QAXUD3D9Texture@CD3D9TexturePool@DispSvr@@@std@@@5@$0A@@std@@@std@@QBE_NABV012@@Z 10018e20 f i D3D9TexturePool.obj
 0001:00017e20       ??9?$_Const_iterator@$00@?$list@UPlugin@CResourceManager@DispSvr@@V?$allocator@UPlugin@CResourceManager@DispSvr@@@std@@@std@@QBE_NABV012@@Z 10018e20 f i ResourceManager.obj
 0001:00017e20       ??9?$_Vector_const_iterator@UEffect@CD3D9VideoEffect3DManager@DispSvr@@V?$allocator@UEffect@CD3D9VideoEffect3DManager@DispSvr@@@std@@@std@@QBE_NABV01@@Z 10018e20 f i D3D9VideoEffect3DManager.obj
 0001:00017e20       ??9const_iterator@?$_Tree@V?$_Tmap_traits@$$CBKW4_PCOM_STEREOSCOPIC_FORMAT@@U?$less@$$CBK@std@@V?$allocator@U?$pair@$$CBKW4_PCOM_STEREOSCOPIC_FORMAT@@@std@@@3@$0A@@std@@@std@@QBE_NABV012@@Z 10018e20 f i AMDPCOMMixerPresenter.obj
 0001:00017e20       ??9?$_Vector_const_iterator@PAVCVideoFrame@@V?$allocator@PAVCVideoFrame@@@std@@@std@@QBE_NABV01@@Z 10018e20 f i MixerControl.obj
 0001:00017e20       ??9const_iterator@?$_Tree@V?$_Tmap_traits@W4PLANE_FORMAT@DispSvr@@UTextureCap@2@U?$less@W4PLANE_FORMAT@DispSvr@@@std@@V?$allocator@U?$pair@$$CBW4PLANE_FORMAT@DispSvr@@UTextureCap@2@@std@@@5@$0A@@std@@@std@@QBE_NABV012@@Z 10018e20 f i D3D9TexturePool.obj
 0001:00017e20       ??9?$_Vector_const_iterator@PAUIDispSvrRenderEngineNotify@@V?$allocator@PAUIDispSvrRenderEngineNotify@@@std@@@std@@QBE_NABV01@@Z 10018e20 f i RenderEngine.obj
 0001:00017e20       ??9const_iterator@?$_Tree@V?$_Tmap_traits@U_GUID@@UResourceGroup@CResourceManager@DispSvr@@U?$less@U_GUID@@@std@@V?$allocator@U?$pair@$$CBU_GUID@@UResourceGroup@CResourceManager@DispSvr@@@std@@@6@$0A@@std@@@std@@QBE_NABV012@@Z 10018e20 f i ResourceManager.obj
 0001:00017e20       ??9const_iterator@?$_Tree@V?$_Tset_traits@W4_D3DFORMAT@@U?$less@W4_D3DFORMAT@@@std@@V?$allocator@W4_D3DFORMAT@@@3@$0A@@std@@@std@@QBE_NABV012@@Z 10018e20 f i DXVAHDVideoProcessor.obj
 0001:00017e20       ??9const_iterator@?$_Tree@V?$_Tmap_traits@$$CBKKU?$less@$$CBK@std@@V?$allocator@U?$pair@$$CBKK@std@@@2@$0A@@std@@@std@@QBE_NABV012@@Z 10018e20 f i AMDPCOMMixerPresenter.obj
 0001:00017e20       ??9?$_Const_iterator@$00@?$list@UVideoProcessorStub@DispSvr@@V?$allocator@UVideoProcessorStub@DispSvr@@@std@@@std@@QBE_NABV012@@Z 10018e20 f i AMDPCOMMixerPresenter.obj
 0001:00017e20       ??9?$_Const_iterator@$00@?$list@PAUHINSTANCE__@@V?$allocator@PAUHINSTANCE__@@@std@@@std@@QBE_NABV012@@Z 10018e20 f i DynLibManager.obj
 0001:00017e20       ??9?$_Const_iterator@$00@?$list@T?$PlaneVB@UD3D9ClearRectVertex@DispSvr@@@DispSvr@@V?$allocator@T?$PlaneVB@UD3D9ClearRectVertex@DispSvr@@@DispSvr@@@std@@@std@@QBE_NABV012@@Z 10018e20 f i D3D9VideoMixer.obj
 0001:00017e20       ??9const_iterator@?$_Tree@V?$_Tmap_traits@KKU?$less@K@std@@V?$allocator@U?$pair@$$CBKK@std@@@2@$0A@@std@@@std@@QBE_NABV012@@Z 10018e20 f i IntelDxva2Device.obj
 0001:00017e20       ??9?$_Vector_const_iterator@UDisplayObjectInfo@IParentDisplayObjectImpl@@V?$allocator@UDisplayObjectInfo@IParentDisplayObjectImpl@@@std@@@std@@QBE_NABV01@@Z 10018e20 f i CompositeDO.obj
 0001:00017e20       ??9?$_Vector_const_iterator@UEventHandler@CRenderEngine@@V?$allocator@UEventHandler@CRenderEngine@@@std@@@std@@QBE_NABV01@@Z 10018e20 f i RenderEngine.obj
 0001:00017e20       ??9?$_Vector_const_iterator@PAUIDisplayVideoSource@@V?$allocator@PAUIDisplayVideoSource@@@std@@@std@@QBE_NABV01@@Z 10018e20 f i VideoSourceMgr.obj
 0001:00017e40       ??0VideoSourceRate@CServerStateEventSink@DispSvr@@QAE@XZ 10018e40 f i ServerStateEventSink.obj
 0001:00017e60       ?_Color@?$_Tree@V?$_Tmap_traits@KUVideoSourceRate@CServerStateEventSink@DispSvr@@U?$less@K@std@@V?$allocator@U?$pair@$$CBKUVideoSourceRate@CServerStateEventSink@DispSvr@@@std@@@5@$0A@@std@@@std@@KAAADPAU_Node@?$_Tree_nod@V?$_Tmap_traits@KUVideoSourceRate@CServerStateEventSink@DispSvr@@U?$less@K@std@@V?$allocator@U?$pair@$$CBKUVideoSourceRate@CServerStateEventSink@DispSvr@@@std@@@5@$0A@@std@@@2@@Z 10018e60 f i ServerStateEventSink.obj
 0001:00017e70       ?_Isnil@?$_Tree@V?$_Tmap_traits@KUVideoSourceRate@CServerStateEventSink@DispSvr@@U?$less@K@std@@V?$allocator@U?$pair@$$CBKUVideoSourceRate@CServerStateEventSink@DispSvr@@@std@@@5@$0A@@std@@@std@@KAAADPAU_Node@?$_Tree_nod@V?$_Tmap_traits@KUVideoSourceRate@CServerStateEventSink@DispSvr@@U?$less@K@std@@V?$allocator@U?$pair@$$CBKUVideoSourceRate@CServerStateEventSink@DispSvr@@@std@@@5@$0A@@std@@@2@@Z 10018e70 f i ServerStateEventSink.obj
 0001:00017e80       ?insert@?$_Tree@V?$_Tmap_traits@KUVideoSourceRate@CServerStateEventSink@DispSvr@@U?$less@K@std@@V?$allocator@U?$pair@$$CBKUVideoSourceRate@CServerStateEventSink@DispSvr@@@std@@@5@$0A@@std@@@std@@QAE?AViterator@12@V312@ABU?$pair@$$CBKUVideoSourceRate@CServerStateEventSink@DispSvr@@@2@@Z 10018e80 f i ServerStateEventSink.obj
 0001:00018050       ?lower_bound@?$_Tree@V?$_Tmap_traits@KUVideoSourceRate@CServerStateEventSink@DispSvr@@U?$less@K@std@@V?$allocator@U?$pair@$$CBKUVideoSourceRate@CServerStateEventSink@DispSvr@@@std@@@5@$0A@@std@@@std@@QAE?AViterator@12@ABK@Z 10019050 f i ServerStateEventSink.obj
 0001:00018080       ?_Lrotate@?$_Tree@V?$_Tmap_traits@KUVideoSourceRate@CServerStateEventSink@DispSvr@@U?$less@K@std@@V?$allocator@U?$pair@$$CBKUVideoSourceRate@CServerStateEventSink@DispSvr@@@std@@@5@$0A@@std@@@std@@IAEXPAU_Node@?$_Tree_nod@V?$_Tmap_traits@KUVideoSourceRate@CServerStateEventSink@DispSvr@@U?$less@K@std@@V?$allocator@U?$pair@$$CBKUVideoSourceRate@CServerStateEventSink@DispSvr@@@std@@@5@$0A@@std@@@2@@Z 10019080 f i ServerStateEventSink.obj
 0001:000180d0       ?_Max@?$_Tree@V?$_Tmap_traits@KUVideoSourceRate@CServerStateEventSink@DispSvr@@U?$less@K@std@@V?$allocator@U?$pair@$$CBKUVideoSourceRate@CServerStateEventSink@DispSvr@@@std@@@5@$0A@@std@@@std@@KAPAU_Node@?$_Tree_nod@V?$_Tmap_traits@KUVideoSourceRate@CServerStateEventSink@DispSvr@@U?$less@K@std@@V?$allocator@U?$pair@$$CBKUVideoSourceRate@CServerStateEventSink@DispSvr@@@std@@@5@$0A@@std@@@2@PAU342@@Z 100190d0 f i ServerStateEventSink.obj
 0001:000180f0       ?_Min@?$_Tree@V?$_Tmap_traits@KUVideoSourceRate@CServerStateEventSink@DispSvr@@U?$less@K@std@@V?$allocator@U?$pair@$$CBKUVideoSourceRate@CServerStateEventSink@DispSvr@@@std@@@5@$0A@@std@@@std@@KAPAU_Node@?$_Tree_nod@V?$_Tmap_traits@KUVideoSourceRate@CServerStateEventSink@DispSvr@@U?$less@K@std@@V?$allocator@U?$pair@$$CBKUVideoSourceRate@CServerStateEventSink@DispSvr@@@std@@@5@$0A@@std@@@2@PAU342@@Z 100190f0 f i ServerStateEventSink.obj
 0001:00018110       ?_Rrotate@?$_Tree@V?$_Tmap_traits@KUVideoSourceRate@CServerStateEventSink@DispSvr@@U?$less@K@std@@V?$allocator@U?$pair@$$CBKUVideoSourceRate@CServerStateEventSink@DispSvr@@@std@@@5@$0A@@std@@@std@@IAEXPAU_Node@?$_Tree_nod@V?$_Tmap_traits@KUVideoSourceRate@CServerStateEventSink@DispSvr@@U?$less@K@std@@V?$allocator@U?$pair@$$CBKUVideoSourceRate@CServerStateEventSink@DispSvr@@@std@@@5@$0A@@std@@@2@@Z 10019110 f i ServerStateEventSink.obj
 0001:00018160       ?_Tidy@?$_Tree@V?$_Tmap_traits@KUVideoSourceRate@CServerStateEventSink@DispSvr@@U?$less@K@std@@V?$allocator@U?$pair@$$CBKUVideoSourceRate@CServerStateEventSink@DispSvr@@@std@@@5@$0A@@std@@@std@@IAEXXZ 10019160 f i ServerStateEventSink.obj
 0001:000181a0       ??Dconst_iterator@?$_Tree@V?$_Tmap_traits@KUVideoSourceRate@CServerStateEventSink@DispSvr@@U?$less@K@std@@V?$allocator@U?$pair@$$CBKUVideoSourceRate@CServerStateEventSink@DispSvr@@@std@@@5@$0A@@std@@@std@@QBEABU?$pair@$$CBKUVideoSourceRate@CServerStateEventSink@DispSvr@@@2@XZ 100191a0 f i ServerStateEventSink.obj
 0001:000181a0       ??Citerator@?$_Tree@V?$_Tmap_traits@KUVideoSourceRate@CServerStateEventSink@DispSvr@@U?$less@K@std@@V?$allocator@U?$pair@$$CBKUVideoSourceRate@CServerStateEventSink@DispSvr@@@std@@@5@$0A@@std@@@std@@QBEPAU?$pair@$$CBKUVideoSourceRate@CServerStateEventSink@DispSvr@@@2@XZ 100191a0 f i ServerStateEventSink.obj
 0001:000181a0       ??Diterator@?$_Tree@V?$_Tmap_traits@KUVideoSourceRate@CServerStateEventSink@DispSvr@@U?$less@K@std@@V?$allocator@U?$pair@$$CBKUVideoSourceRate@CServerStateEventSink@DispSvr@@@std@@@5@$0A@@std@@@std@@QBEAAU?$pair@$$CBKUVideoSourceRate@CServerStateEventSink@DispSvr@@@2@XZ 100191a0 f i ServerStateEventSink.obj
 0001:000181d0       ??Econst_iterator@?$_Tree@V?$_Tmap_traits@KUVideoSourceRate@CServerStateEventSink@DispSvr@@U?$less@K@std@@V?$allocator@U?$pair@$$CBKUVideoSourceRate@CServerStateEventSink@DispSvr@@@std@@@5@$0A@@std@@@std@@QAEAAV012@XZ 100191d0 f i ServerStateEventSink.obj
 0001:000181d0       ??Eiterator@?$_Tree@V?$_Tmap_traits@KUVideoSourceRate@CServerStateEventSink@DispSvr@@U?$less@K@std@@V?$allocator@U?$pair@$$CBKUVideoSourceRate@CServerStateEventSink@DispSvr@@@std@@@5@$0A@@std@@@std@@QAEAAV012@XZ 100191d0 f i ServerStateEventSink.obj
 0001:000181e0       ??0?$pair@$$CBKUVideoSourceRate@CServerStateEventSink@DispSvr@@@std@@QAE@ABKABUVideoSourceRate@CServerStateEventSink@DispSvr@@@Z 100191e0 f i ServerStateEventSink.obj
 0001:00018200       ?insert@?$_Tree@V?$_Tmap_traits@KUVideoSourceRate@CServerStateEventSink@DispSvr@@U?$less@K@std@@V?$allocator@U?$pair@$$CBKUVideoSourceRate@CServerStateEventSink@DispSvr@@@std@@@5@$0A@@std@@@std@@QAE?AU?$pair@Viterator@?$_Tree@V?$_Tmap_traits@KUVideoSourceRate@CServerStateEventSink@DispSvr@@U?$less@K@std@@V?$allocator@U?$pair@$$CBKUVideoSourceRate@CServerStateEventSink@DispSvr@@@std@@@5@$0A@@std@@@std@@_N@2@ABU?$pair@$$CBKUVideoSourceRate@CServerStateEventSink@DispSvr@@@2@@Z 10019200 f i ServerStateEventSink.obj
 0001:000182e0       ?erase@?$_Tree@V?$_Tmap_traits@KUVideoSourceRate@CServerStateEventSink@DispSvr@@U?$less@K@std@@V?$allocator@U?$pair@$$CBKUVideoSourceRate@CServerStateEventSink@DispSvr@@@std@@@5@$0A@@std@@@std@@QAE?AViterator@12@V312@0@Z 100192e0 f i ServerStateEventSink.obj
 0001:000183b0       ?_Init@?$_Tree@V?$_Tmap_traits@KUVideoSourceRate@CServerStateEventSink@DispSvr@@U?$less@K@std@@V?$allocator@U?$pair@$$CBKUVideoSourceRate@CServerStateEventSink@DispSvr@@@std@@@5@$0A@@std@@@std@@IAEXXZ 100193b0 f i ServerStateEventSink.obj
 0001:000183e0       ?_Insert@?$_Tree@V?$_Tmap_traits@KUVideoSourceRate@CServerStateEventSink@DispSvr@@U?$less@K@std@@V?$allocator@U?$pair@$$CBKUVideoSourceRate@CServerStateEventSink@DispSvr@@@std@@@5@$0A@@std@@@std@@IAE?AViterator@12@_NPAU_Node@?$_Tree_nod@V?$_Tmap_traits@KUVideoSourceRate@CServerStateEventSink@DispSvr@@U?$less@K@std@@V?$allocator@U?$pair@$$CBKUVideoSourceRate@CServerStateEventSink@DispSvr@@@std@@@5@$0A@@std@@@2@ABU?$pair@$$CBKUVideoSourceRate@CServerStateEventSink@DispSvr@@@2@@Z 100193e0 f i ServerStateEventSink.obj
 0001:00018610       ?_Lbound@?$_Tree@V?$_Tmap_traits@KUVideoSourceRate@CServerStateEventSink@DispSvr@@U?$less@K@std@@V?$allocator@U?$pair@$$CBKUVideoSourceRate@CServerStateEventSink@DispSvr@@@std@@@5@$0A@@std@@@std@@IBEPAU_Node@?$_Tree_nod@V?$_Tmap_traits@KUVideoSourceRate@CServerStateEventSink@DispSvr@@U?$less@K@std@@V?$allocator@U?$pair@$$CBKUVideoSourceRate@CServerStateEventSink@DispSvr@@@std@@@5@$0A@@std@@@2@ABK@Z 10019610 f i ServerStateEventSink.obj
 0001:00018640       ??Fiterator@?$_Tree@V?$_Tmap_traits@KUVideoSourceRate@CServerStateEventSink@DispSvr@@U?$less@K@std@@V?$allocator@U?$pair@$$CBKUVideoSourceRate@CServerStateEventSink@DispSvr@@@std@@@5@$0A@@std@@@std@@QAEAAV012@XZ 10019640 f i ServerStateEventSink.obj
 0001:00018640       ??Fconst_iterator@?$_Tree@V?$_Tmap_traits@KUVideoSourceRate@CServerStateEventSink@DispSvr@@U?$less@K@std@@V?$allocator@U?$pair@$$CBKUVideoSourceRate@CServerStateEventSink@DispSvr@@@std@@@5@$0A@@std@@@std@@QAEAAV012@XZ 10019640 f i ServerStateEventSink.obj
 0001:00018650       ?_Inc@const_iterator@?$_Tree@V?$_Tmap_traits@KUVideoSourceRate@CServerStateEventSink@DispSvr@@U?$less@K@std@@V?$allocator@U?$pair@$$CBKUVideoSourceRate@CServerStateEventSink@DispSvr@@@std@@@5@$0A@@std@@@std@@QAEXXZ 10019650 f i ServerStateEventSink.obj
 0001:000186c0       ?clear@?$_Tree@V?$_Tmap_traits@KUVideoSourceRate@CServerStateEventSink@DispSvr@@U?$less@K@std@@V?$allocator@U?$pair@$$CBKUVideoSourceRate@CServerStateEventSink@DispSvr@@@std@@@5@$0A@@std@@@std@@QAEXXZ 100196c0 f i ServerStateEventSink.obj
 0001:000186f0       ?_Buynode@?$_Tree@V?$_Tmap_traits@KUVideoSourceRate@CServerStateEventSink@DispSvr@@U?$less@K@std@@V?$allocator@U?$pair@$$CBKUVideoSourceRate@CServerStateEventSink@DispSvr@@@std@@@5@$0A@@std@@@std@@IAEPAU_Node@?$_Tree_nod@V?$_Tmap_traits@KUVideoSourceRate@CServerStateEventSink@DispSvr@@U?$less@K@std@@V?$allocator@U?$pair@$$CBKUVideoSourceRate@CServerStateEventSink@DispSvr@@@std@@@5@$0A@@std@@@2@XZ 100196f0 f i ServerStateEventSink.obj
 0001:00018730       ?_Buynode@?$_Tree@V?$_Tmap_traits@KUVideoSourceRate@CServerStateEventSink@DispSvr@@U?$less@K@std@@V?$allocator@U?$pair@$$CBKUVideoSourceRate@CServerStateEventSink@DispSvr@@@std@@@5@$0A@@std@@@std@@IAEPAU_Node@?$_Tree_nod@V?$_Tmap_traits@KUVideoSourceRate@CServerStateEventSink@DispSvr@@U?$less@K@std@@V?$allocator@U?$pair@$$CBKUVideoSourceRate@CServerStateEventSink@DispSvr@@@std@@@5@$0A@@std@@@2@PAU342@00ABU?$pair@$$CBKUVideoSourceRate@CServerStateEventSink@DispSvr@@@2@D@Z 10019730 f i ServerStateEventSink.obj
 0001:00018780       ??Eiterator@?$_Tree@V?$_Tmap_traits@KUVideoSourceRate@CServerStateEventSink@DispSvr@@U?$less@K@std@@V?$allocator@U?$pair@$$CBKUVideoSourceRate@CServerStateEventSink@DispSvr@@@std@@@5@$0A@@std@@@std@@QAE?AV012@H@Z 10019780 f i ServerStateEventSink.obj
 0001:000187a0       ??0?$pair@Viterator@?$_Tree@V?$_Tmap_traits@W4PLANE_FORMAT@DispSvr@@UTextureCap@2@U?$less@W4PLANE_FORMAT@DispSvr@@@std@@V?$allocator@U?$pair@$$CBW4PLANE_FORMAT@DispSvr@@UTextureCap@2@@std@@@5@$0A@@std@@@std@@_N@std@@QAE@ABViterator@?$_Tree@V?$_Tmap_traits@W4PLANE_FORMAT@DispSvr@@UTextureCap@2@U?$less@W4PLANE_FORMAT@DispSvr@@@std@@V?$allocator@U?$pair@$$CBW4PLANE_FORMAT@DispSvr@@UTextureCap@2@@std@@@5@$0A@@std@@@1@AB_N@Z 100197a0 f i D3D9TexturePool.obj
 0001:000187a0       ??0?$pair@Viterator@?$_Tree@V?$_Tmap_traits@KUVideoSourceRate@CServerStateEventSink@DispSvr@@U?$less@K@std@@V?$allocator@U?$pair@$$CBKUVideoSourceRate@CServerStateEventSink@DispSvr@@@std@@@5@$0A@@std@@@std@@_N@std@@QAE@ABViterator@?$_Tree@V?$_Tmap_traits@KUVideoSourceRate@CServerStateEventSink@DispSvr@@U?$less@K@std@@V?$allocator@U?$pair@$$CBKUVideoSourceRate@CServerStateEventSink@DispSvr@@@std@@@5@$0A@@std@@@1@AB_N@Z 100197a0 f i ServerStateEventSink.obj
 0001:000187a0       ??0?$pair@Viterator@?$_Tree@V?$_Tmap_traits@$$CBKKU?$less@$$CBK@std@@V?$allocator@U?$pair@$$CBKK@std@@@2@$0A@@std@@@std@@_N@std@@QAE@ABViterator@?$_Tree@V?$_Tmap_traits@$$CBKKU?$less@$$CBK@std@@V?$allocator@U?$pair@$$CBKK@std@@@2@$0A@@std@@@1@AB_N@Z 100197a0 f i AMDPCOMMixerPresenter.obj
 0001:000187a0       ??0?$pair@Viterator@?$_Tree@V?$_Tmap_traits@KKU?$less@K@std@@V?$allocator@U?$pair@$$CBKK@std@@@2@$0A@@std@@@std@@_N@std@@QAE@ABViterator@?$_Tree@V?$_Tmap_traits@KKU?$less@K@std@@V?$allocator@U?$pair@$$CBKK@std@@@2@$0A@@std@@@1@AB_N@Z 100197a0 f i IntelDxva2Device.obj
 0001:000187a0       ??0?$pair@Viterator@?$_Tree@V?$_Tmap_traits@$$CBKW4_PCOM_STEREOSCOPIC_FORMAT@@U?$less@$$CBK@std@@V?$allocator@U?$pair@$$CBKW4_PCOM_STEREOSCOPIC_FORMAT@@@std@@@3@$0A@@std@@@std@@_N@std@@QAE@ABViterator@?$_Tree@V?$_Tmap_traits@$$CBKW4_PCOM_STEREOSCOPIC_FORMAT@@U?$less@$$CBK@std@@V?$allocator@U?$pair@$$CBKW4_PCOM_STEREOSCOPIC_FORMAT@@@std@@@3@$0A@@std@@@1@AB_N@Z 100197a0 f i AMDPCOMMixerPresenter.obj
 0001:000187a0       ??0?$pair@Viterator@?$_Tree@V?$_Tmap_traits@PBUIDirect3DSurface9@@PAUNVDX_ObjectHandle__@@U?$less@PBUIDirect3DSurface9@@@std@@V?$allocator@U?$pair@QBUIDirect3DSurface9@@PAUNVDX_ObjectHandle__@@@std@@@4@$0A@@std@@@std@@_N@std@@QAE@ABViterator@?$_Tree@V?$_Tmap_traits@PBUIDirect3DSurface9@@PAUNVDX_ObjectHandle__@@U?$less@PBUIDirect3DSurface9@@@std@@V?$allocator@U?$pair@QBUIDirect3DSurface9@@PAUNVDX_ObjectHandle__@@@std@@@4@$0A@@std@@@1@AB_N@Z 100197a0 f i NvAPIPresenter.obj
 0001:000187a0       ??0?$pair@Viterator@?$_Tree@V?$_Tmap_traits@PAXUD3D9Texture@CD3D9TexturePool@DispSvr@@U?$less@PAX@std@@V?$allocator@U?$pair@QAXUD3D9Texture@CD3D9TexturePool@DispSvr@@@std@@@5@$0A@@std@@@std@@_N@std@@QAE@ABViterator@?$_Tree@V?$_Tmap_traits@PAXUD3D9Texture@CD3D9TexturePool@DispSvr@@U?$less@PAX@std@@V?$allocator@U?$pair@QAXUD3D9Texture@CD3D9TexturePool@DispSvr@@@std@@@5@$0A@@std@@@1@AB_N@Z 100197a0 f i D3D9TexturePool.obj
 0001:000187a0       ??0?$pair@Viterator@?$_Tree@V?$_Tmap_traits@U_GUID@@UResourceGroup@CResourceManager@DispSvr@@U?$less@U_GUID@@@std@@V?$allocator@U?$pair@$$CBU_GUID@@UResourceGroup@CResourceManager@DispSvr@@@std@@@6@$0A@@std@@@std@@_N@std@@QAE@ABViterator@?$_Tree@V?$_Tmap_traits@U_GUID@@UResourceGroup@CResourceManager@DispSvr@@U?$less@U_GUID@@@std@@V?$allocator@U?$pair@$$CBU_GUID@@UResourceGroup@CResourceManager@DispSvr@@@std@@@6@$0A@@std@@@1@AB_N@Z 100197a0 f i ResourceManager.obj
 0001:000187a0       ??0?$pair@Viterator@?$_Tree@V?$_Tset_traits@W4_D3DFORMAT@@U?$less@W4_D3DFORMAT@@@std@@V?$allocator@W4_D3DFORMAT@@@3@$0A@@std@@@std@@_N@std@@QAE@ABViterator@?$_Tree@V?$_Tset_traits@W4_D3DFORMAT@@U?$less@W4_D3DFORMAT@@@std@@V?$allocator@W4_D3DFORMAT@@@3@$0A@@std@@@1@AB_N@Z 100197a0 f i DXVAHDVideoProcessor.obj
 0001:000187c0       ?_Erase@?$_Tree@V?$_Tmap_traits@KUVideoSourceRate@CServerStateEventSink@DispSvr@@U?$less@K@std@@V?$allocator@U?$pair@$$CBKUVideoSourceRate@CServerStateEventSink@DispSvr@@@std@@@5@$0A@@std@@@std@@IAEXPAU_Node@?$_Tree_nod@V?$_Tmap_traits@KUVideoSourceRate@CServerStateEventSink@DispSvr@@U?$less@K@std@@V?$allocator@U?$pair@$$CBKUVideoSourceRate@CServerStateEventSink@DispSvr@@@std@@@5@$0A@@std@@@2@@Z 100197c0 f i ServerStateEventSink.obj
 0001:00018800       ?max_size@?$_Tree@V?$_Tmap_traits@KUVideoSourceRate@CServerStateEventSink@DispSvr@@U?$less@K@std@@V?$allocator@U?$pair@$$CBKUVideoSourceRate@CServerStateEventSink@DispSvr@@@std@@@5@$0A@@std@@@std@@QBEIXZ 10019800 f i ServerStateEventSink.obj
 0001:00018800       ?max_size@?$allocator@U?$pair@$$CBKUVideoSourceRate@CServerStateEventSink@DispSvr@@@std@@@std@@QBEIXZ 10019800 f i ServerStateEventSink.obj
 0001:00018810       ?allocate@?$allocator@U_Node@?$_Tree_nod@V?$_Tmap_traits@KUVideoSourceRate@CServerStateEventSink@DispSvr@@U?$less@K@std@@V?$allocator@U?$pair@$$CBKUVideoSourceRate@CServerStateEventSink@DispSvr@@@std@@@5@$0A@@std@@@std@@@std@@QAEPAU_Node@?$_Tree_nod@V?$_Tmap_traits@KUVideoSourceRate@CServerStateEventSink@DispSvr@@U?$less@K@std@@V?$allocator@U?$pair@$$CBKUVideoSourceRate@CServerStateEventSink@DispSvr@@@std@@@5@$0A@@std@@@2@I@Z 10019810 f i ServerStateEventSink.obj
 0001:00018820       ?_Dec@const_iterator@?$_Tree@V?$_Tmap_traits@KUVideoSourceRate@CServerStateEventSink@DispSvr@@U?$less@K@std@@V?$allocator@U?$pair@$$CBKUVideoSourceRate@CServerStateEventSink@DispSvr@@@std@@@5@$0A@@std@@@std@@QAEXXZ 10019820 f i ServerStateEventSink.obj
 0001:000188b0       ??0_Node@?$_Tree_nod@V?$_Tmap_traits@KUVideoSourceRate@CServerStateEventSink@DispSvr@@U?$less@K@std@@V?$allocator@U?$pair@$$CBKUVideoSourceRate@CServerStateEventSink@DispSvr@@@std@@@5@$0A@@std@@@std@@QAE@PAU012@00ABU?$pair@$$CBKUVideoSourceRate@CServerStateEventSink@DispSvr@@@2@D@Z 100198b0 f i ServerStateEventSink.obj
 0001:000188e0       ??$_Allocate@U_Node@?$_Tree_nod@V?$_Tmap_traits@KUVideoSourceRate@CServerStateEventSink@DispSvr@@U?$less@K@std@@V?$allocator@U?$pair@$$CBKUVideoSourceRate@CServerStateEventSink@DispSvr@@@std@@@5@$0A@@std@@@std@@@std@@YAPAU_Node@?$_Tree_nod@V?$_Tmap_traits@KUVideoSourceRate@CServerStateEventSink@DispSvr@@U?$less@K@std@@V?$allocator@U?$pair@$$CBKUVideoSourceRate@CServerStateEventSink@DispSvr@@@std@@@5@$0A@@std@@@0@IPAU120@@Z 100198e0 f i ServerStateEventSink.obj
 0001:00018930       ??0CVideoSourceManager@@QAE@PAUIDisplayLock@@PAUIDisplayVideoSink@@@Z 10019930 f   VideoSourceMgr.obj
 0001:000189b0       ??_ECVideoSourceManager@@UAEPAXI@Z 100199b0 f i  CIL library: CIL module
 0001:000189b0       ??_GCVideoSourceManager@@UAEPAXI@Z 100199b0 f i VideoSourceMgr.obj
 0001:000189d0       ?NonDelegatingQueryInterface@CVideoSourceManager@@UAGJABU_GUID@@PAPAX@Z 100199d0 f   VideoSourceMgr.obj
 0001:00018a30       ??1CVideoSourceManager@@UAE@XZ 10019a30 f   VideoSourceMgr.obj
 0001:00018ac0       ?Cleanup@CVideoSourceManager@@QAEXXZ 10019ac0 f   VideoSourceMgr.obj
 0001:00018b10       ?AddVideoSource@CVideoSourceManager@@UAGJPAUIBaseFilter@@PAPAUIDisplayVideoSource@@@Z 10019b10 f   VideoSourceMgr.obj
 0001:00018cb0       ?RemoveVideoSource@CVideoSourceManager@@UAGJPAUIDisplayVideoSource@@@Z 10019cb0 f   VideoSourceMgr.obj
 0001:00018e60       ?GetVideoSourceCount@CVideoSourceManager@@UAGJPAJ@Z 10019e60 f   VideoSourceMgr.obj
 0001:00018ea0       ?GetVideoSourceByIndex@CVideoSourceManager@@UAGJJPAPAUIDisplayVideoSource@@@Z 10019ea0 f   VideoSourceMgr.obj
 0001:00018f10       ?BeginDeviceLoss@CVideoSourceManager@@UAGJXZ 10019f10 f   VideoSourceMgr.obj
 0001:00018f80       ?EndDeviceLoss@CVideoSourceManager@@UAGJPAUIUnknown@@@Z 10019f80 f   VideoSourceMgr.obj
 0001:00019020       ?end@?$vector@PAUIDisplayVideoSource@@V?$allocator@PAUIDisplayVideoSource@@@std@@@std@@QAE?AV?$_Vector_iterator@PAUIDisplayVideoSource@@V?$allocator@PAUIDisplayVideoSource@@@std@@@2@XZ 1001a020 f i VideoSourceMgr.obj
 0001:00019020       ?end@?$vector@UEventHandler@CRenderEngine@@V?$allocator@UEventHandler@CRenderEngine@@@std@@@std@@QAE?AV?$_Vector_iterator@UEventHandler@CRenderEngine@@V?$allocator@UEventHandler@CRenderEngine@@@std@@@2@XZ 1001a020 f i RenderEngine.obj
 0001:00019020       ?end@?$vector@PAVCVideoFrame@@V?$allocator@PAVCVideoFrame@@@std@@@std@@QAE?AV?$_Vector_iterator@PAVCVideoFrame@@V?$allocator@PAVCVideoFrame@@@std@@@2@XZ 1001a020 f i MixerControl.obj
 0001:00019020       ?end@?$vector@UDisplayObjectInfo@IParentDisplayObjectImpl@@V?$allocator@UDisplayObjectInfo@IParentDisplayObjectImpl@@@std@@@std@@QAE?AV?$_Vector_iterator@UDisplayObjectInfo@IParentDisplayObjectImpl@@V?$allocator@UDisplayObjectInfo@IParentDisplayObjectImpl@@@std@@@2@XZ 1001a020 f i CompositeDO.obj
 0001:00019020       ?end@?$vector@UCEvrVideoSample@CVideoSamplePool@@V?$allocator@UCEvrVideoSample@CVideoSamplePool@@@std@@@std@@QAE?AV?$_Vector_iterator@UCEvrVideoSample@CVideoSamplePool@@V?$allocator@UCEvrVideoSample@CVideoSamplePool@@@std@@@2@XZ 1001a020 f i VideoSourceEvr.obj
 0001:00019020       ?end@?$vector@UEffect@CD3D9VideoEffect3DManager@DispSvr@@V?$allocator@UEffect@CD3D9VideoEffect3DManager@DispSvr@@@std@@@std@@QAE?AV?$_Vector_iterator@UEffect@CD3D9VideoEffect3DManager@DispSvr@@V?$allocator@UEffect@CD3D9VideoEffect3DManager@DispSvr@@@std@@@2@XZ 1001a020 f i D3D9VideoEffect3DManager.obj
 0001:00019020       ?end@?$vector@PAUIDispSvrRenderEngineNotify@@V?$allocator@PAUIDispSvrRenderEngineNotify@@@std@@@std@@QAE?AV?$_Vector_iterator@PAUIDispSvrRenderEngineNotify@@V?$allocator@PAUIDispSvrRenderEngineNotify@@@std@@@2@XZ 1001a020 f i RenderEngine.obj
 0001:00019040       ?size@?$vector@PAUIDispSvrRenderEngineNotify@@V?$allocator@PAUIDispSvrRenderEngineNotify@@@std@@@std@@QBEIXZ 1001a040 f i RenderEngine.obj
 0001:00019040       ?size@?$vector@PAVCVideoFrame@@V?$allocator@PAVCVideoFrame@@@std@@@std@@QBEIXZ 1001a040 f i MixerControl.obj
 0001:00019040       ?size@?$vector@PAUIDisplayVideoSource@@V?$allocator@PAUIDisplayVideoSource@@@std@@@std@@QBEIXZ 1001a040 f i VideoSourceMgr.obj
 0001:00019060       ?empty@?$vector@PAUIDisplayVideoSource@@V?$allocator@PAUIDisplayVideoSource@@@std@@@std@@QBE_NXZ 1001a060 f i VideoSourceMgr.obj
 0001:00019090       ?push_back@?$vector@PAVCVideoFrame@@V?$allocator@PAVCVideoFrame@@@std@@@std@@QAEXABQAVCVideoFrame@@@Z 1001a090 f i MixerControl.obj
 0001:00019090       ?push_back@?$vector@PAUIDisplayVideoSource@@V?$allocator@PAUIDisplayVideoSource@@@std@@@std@@QAEXABQAUIDisplayVideoSource@@@Z 1001a090 f i VideoSourceMgr.obj
 0001:000190f0       ??0?$CComQIPtr@UIMFVideoRenderer@@$1?_GUID_dfdfd197_a9ca_43d8_b341_6af3503792cd@@3U__s_GUID@@B@ATL@@QAE@PAUIUnknown@@@Z 1001a0f0 f i VideoSourceMgr.obj
 0001:00019110       ?insert@?$vector@PAUIDisplayVideoSource@@V?$allocator@PAUIDisplayVideoSource@@@std@@@std@@QAE?AV?$_Vector_iterator@PAUIDisplayVideoSource@@V?$allocator@PAUIDisplayVideoSource@@@std@@@2@V32@ABQAUIDisplayVideoSource@@@Z 1001a110 f i VideoSourceMgr.obj
 0001:00019110       ?insert@?$vector@PAVCVideoFrame@@V?$allocator@PAVCVideoFrame@@@std@@@std@@QAE?AV?$_Vector_iterator@PAVCVideoFrame@@V?$allocator@PAVCVideoFrame@@@std@@@2@V32@ABQAVCVideoFrame@@@Z 1001a110 f i MixerControl.obj
 0001:00019110       ?insert@?$vector@PAUIDispSvrRenderEngineNotify@@V?$allocator@PAUIDispSvrRenderEngineNotify@@@std@@@std@@QAE?AV?$_Vector_iterator@PAUIDispSvrRenderEngineNotify@@V?$allocator@PAUIDispSvrRenderEngineNotify@@@std@@@2@V32@ABQAUIDispSvrRenderEngineNotify@@@Z 1001a110 f i RenderEngine.obj
 0001:000191a0       ?_Ufill@?$vector@PAVCVideoFrame@@V?$allocator@PAVCVideoFrame@@@std@@@std@@IAEPAPAVCVideoFrame@@PAPAV3@IABQAV3@@Z 1001a1a0 f i MixerControl.obj
 0001:000191a0       ?_Ufill@?$vector@PAUIDispSvrRenderEngineNotify@@V?$allocator@PAUIDispSvrRenderEngineNotify@@@std@@@std@@IAEPAPAUIDispSvrRenderEngineNotify@@PAPAU3@IABQAU3@@Z 1001a1a0 f i RenderEngine.obj
 0001:000191a0       ?_Ufill@?$vector@PAUIDisplayVideoSource@@V?$allocator@PAUIDisplayVideoSource@@@std@@@std@@IAEPAPAUIDisplayVideoSource@@PAPAU3@IABQAU3@@Z 1001a1a0 f i VideoSourceMgr.obj
 0001:000191d0       ??0?$_Vector_const_iterator@UCEvrVideoSample@CVideoSamplePool@@V?$allocator@UCEvrVideoSample@CVideoSamplePool@@@std@@@std@@QAE@PAUCEvrVideoSample@CVideoSamplePool@@PBU_Container_base@1@@Z 1001a1d0 f i VideoSourceEvr.obj
 0001:000191d0       ??0?$_Vector_iterator@PAUIDisplayVideoSource@@V?$allocator@PAUIDisplayVideoSource@@@std@@@std@@QAE@PAPAUIDisplayVideoSource@@PBU_Container_base@1@@Z 1001a1d0 f i VideoSourceMgr.obj
 0001:000191d0       ??0?$_Vector_iterator@UDisplayObjectInfo@IParentDisplayObjectImpl@@V?$allocator@UDisplayObjectInfo@IParentDisplayObjectImpl@@@std@@@std@@QAE@PAUDisplayObjectInfo@IParentDisplayObjectImpl@@PBU_Container_base@1@@Z 1001a1d0 f i CompositeDO.obj
 0001:000191d0       ??0?$_Vector_const_iterator@UEventHandler@CRenderEngine@@V?$allocator@UEventHandler@CRenderEngine@@@std@@@std@@QAE@PAUEventHandler@CRenderEngine@@PBU_Container_base@1@@Z 1001a1d0 f i RenderEngine.obj
 0001:000191d0       ??0?$_Vector_const_iterator@PAUIDispSvrRenderEngineNotify@@V?$allocator@PAUIDispSvrRenderEngineNotify@@@std@@@std@@QAE@PAPAUIDispSvrRenderEngineNotify@@PBU_Container_base@1@@Z 1001a1d0 f i RenderEngine.obj
 0001:000191d0       ??0?$_Vector_iterator@UCEvrVideoSample@CVideoSamplePool@@V?$allocator@UCEvrVideoSample@CVideoSamplePool@@@std@@@std@@QAE@PAUCEvrVideoSample@CVideoSamplePool@@PBU_Container_base@1@@Z 1001a1d0 f i VideoSourceEvr.obj
 0001:000191d0       ??0?$_Vector_iterator@UEventHandler@CRenderEngine@@V?$allocator@UEventHandler@CRenderEngine@@@std@@@std@@QAE@PAUEventHandler@CRenderEngine@@PBU_Container_base@1@@Z 1001a1d0 f i RenderEngine.obj
 0001:000191d0       ??0?$_Vector_iterator@PAVCVideoFrame@@V?$allocator@PAVCVideoFrame@@@std@@@std@@QAE@PAPAVCVideoFrame@@PBU_Container_base@1@@Z 1001a1d0 f i MixerControl.obj
 0001:000191d0       ??0?$_Vector_iterator@PAUIDispSvrRenderEngineNotify@@V?$allocator@PAUIDispSvrRenderEngineNotify@@@std@@@std@@QAE@PAPAUIDispSvrRenderEngineNotify@@PBU_Container_base@1@@Z 1001a1d0 f i RenderEngine.obj
 0001:000191d0       ??0?$_Vector_const_iterator@UEffect@CD3D9VideoEffect3DManager@DispSvr@@V?$allocator@UEffect@CD3D9VideoEffect3DManager@DispSvr@@@std@@@std@@QAE@PAUEffect@CD3D9VideoEffect3DManager@DispSvr@@PBU_Container_base@1@@Z 1001a1d0 f i D3D9VideoEffect3DManager.obj
 0001:000191d0       ??0?$_Vector_iterator@UEffect@CD3D9VideoEffect3DManager@DispSvr@@V?$allocator@UEffect@CD3D9VideoEffect3DManager@DispSvr@@@std@@@std@@QAE@PAUEffect@CD3D9VideoEffect3DManager@DispSvr@@PBU_Container_base@1@@Z 1001a1d0 f i D3D9VideoEffect3DManager.obj
 0001:000191d0       ??0?$_Vector_const_iterator@UDisplayObjectInfo@IParentDisplayObjectImpl@@V?$allocator@UDisplayObjectInfo@IParentDisplayObjectImpl@@@std@@@std@@QAE@PAUDisplayObjectInfo@IParentDisplayObjectImpl@@PBU_Container_base@1@@Z 1001a1d0 f i CompositeDO.obj
 0001:000191d0       ??0?$_Vector_const_iterator@PAUIDisplayVideoSource@@V?$allocator@PAUIDisplayVideoSource@@@std@@@std@@QAE@PAPAUIDisplayVideoSource@@PBU_Container_base@1@@Z 1001a1d0 f i VideoSourceMgr.obj
 0001:000191d0       ??0?$_Vector_const_iterator@PAVCVideoFrame@@V?$allocator@PAVCVideoFrame@@@std@@@std@@QAE@PAPAVCVideoFrame@@PBU_Container_base@1@@Z 1001a1d0 f i MixerControl.obj
 0001:00019200       ?_Insert_n@?$vector@PAUIDispSvrRenderEngineNotify@@V?$allocator@PAUIDispSvrRenderEngineNotify@@@std@@@std@@IAEXV?$_Vector_iterator@PAUIDispSvrRenderEngineNotify@@V?$allocator@PAUIDispSvrRenderEngineNotify@@@std@@@2@IABQAUIDispSvrRenderEngineNotify@@@Z 1001a200 f i RenderEngine.obj
 0001:00019200       ?_Insert_n@?$vector@PAVCVideoFrame@@V?$allocator@PAVCVideoFrame@@@std@@@std@@IAEXV?$_Vector_iterator@PAVCVideoFrame@@V?$allocator@PAVCVideoFrame@@@std@@@2@IABQAVCVideoFrame@@@Z 1001a200 f i MixerControl.obj
 0001:00019200       ?_Insert_n@?$vector@PAUIDisplayVideoSource@@V?$allocator@PAUIDisplayVideoSource@@@std@@@std@@IAEXV?$_Vector_iterator@PAUIDisplayVideoSource@@V?$allocator@PAUIDisplayVideoSource@@@std@@@2@IABQAUIDisplayVideoSource@@@Z 1001a200 f i VideoSourceMgr.obj
 0001:000193f0       ??$_Umove@PAPAUIDispSvrRenderEngineNotify@@@?$vector@PAUIDispSvrRenderEngineNotify@@V?$allocator@PAUIDispSvrRenderEngineNotify@@@std@@@std@@IAEPAPAUIDispSvrRenderEngineNotify@@PAPAU2@00@Z 1001a3f0 f i RenderEngine.obj
 0001:000193f0       ??$_Unchecked_uninitialized_move@PAPAUIDispSvrRenderEngineNotify@@PAPAU1@V?$allocator@PAUIDispSvrRenderEngineNotify@@@std@@@stdext@@YAPAPAUIDispSvrRenderEngineNotify@@PAPAU1@00AAV?$allocator@PAUIDispSvrRenderEngineNotify@@@std@@@Z 1001a3f0 f i RenderEngine.obj
 0001:000193f0       ??$_Unchecked_uninitialized_move@PAPAVCVideoFrame@@PAPAV1@V?$allocator@PAVCVideoFrame@@@std@@@stdext@@YAPAPAVCVideoFrame@@PAPAV1@00AAV?$allocator@PAVCVideoFrame@@@std@@@Z 1001a3f0 f i MixerControl.obj
 0001:000193f0       ??$_Uninit_move@PAPAUIDispSvrRenderEngineNotify@@PAPAU1@V?$allocator@PAUIDispSvrRenderEngineNotify@@@std@@U_Undefined_move_tag@3@@std@@YAPAPAUIDispSvrRenderEngineNotify@@PAPAU1@00AAV?$allocator@PAUIDispSvrRenderEngineNotify@@@0@U_Undefined_move_tag@0@U_Range_checked_iterator_tag@0@@Z 1001a3f0 f i RenderEngine.obj
 0001:000193f0       ??$_Umove@PAPAUIDisplayVideoSource@@@?$vector@PAUIDisplayVideoSource@@V?$allocator@PAUIDisplayVideoSource@@@std@@@std@@IAEPAPAUIDisplayVideoSource@@PAPAU2@00@Z 1001a3f0 f i VideoSourceMgr.obj
 0001:000193f0       ??$unchecked_uninitialized_copy@PAPAPAUIMFSample@@PAPAPAU1@V?$allocator@PAPAUIMFSample@@@std@@@stdext@@YAPAPAPAUIMFSample@@PAPAPAU1@00AAV?$allocator@PAPAUIMFSample@@@std@@@Z 1001a3f0 f i VideoSourceEvr.obj
 0001:000193f0       ??$_Uninit_move@PAPAUIDisplayVideoSource@@PAPAU1@V?$allocator@PAUIDisplayVideoSource@@@std@@U_Undefined_move_tag@3@@std@@YAPAPAUIDisplayVideoSource@@PAPAU1@00AAV?$allocator@PAUIDisplayVideoSource@@@0@U_Undefined_move_tag@0@U_Range_checked_iterator_tag@0@@Z 1001a3f0 f i VideoSourceMgr.obj
 0001:000193f0       ??$unchecked_uninitialized_copy@PAPAUIDisplayVideoSource@@PAPAU1@V?$allocator@PAUIDisplayVideoSource@@@std@@@stdext@@YAPAPAUIDisplayVideoSource@@PAPAU1@00AAV?$allocator@PAUIDisplayVideoSource@@@std@@@Z 1001a3f0 f i VideoSourceMgr.obj
 0001:000193f0       ??$unchecked_uninitialized_copy@PAPAVCVideoFrame@@PAPAV1@V?$allocator@PAVCVideoFrame@@@std@@@stdext@@YAPAPAVCVideoFrame@@PAPAV1@00AAV?$allocator@PAVCVideoFrame@@@std@@@Z 1001a3f0 f i MixerControl.obj
 0001:000193f0       ??$unchecked_uninitialized_copy@PAPAUIDispSvrRenderEngineNotify@@PAPAU1@V?$allocator@PAUIDispSvrRenderEngineNotify@@@std@@@stdext@@YAPAPAUIDispSvrRenderEngineNotify@@PAPAU1@00AAV?$allocator@PAUIDispSvrRenderEngineNotify@@@std@@@Z 1001a3f0 f i RenderEngine.obj
 0001:000193f0       ??$_Umove@PAPAVCVideoFrame@@@?$vector@PAVCVideoFrame@@V?$allocator@PAVCVideoFrame@@@std@@@std@@IAEPAPAVCVideoFrame@@PAPAV2@00@Z 1001a3f0 f i MixerControl.obj
 0001:000193f0       ??$_Unchecked_uninitialized_move@PAPAUIDisplayVideoSource@@PAPAU1@V?$allocator@PAUIDisplayVideoSource@@@std@@@stdext@@YAPAPAUIDisplayVideoSource@@PAPAU1@00AAV?$allocator@PAUIDisplayVideoSource@@@std@@@Z 1001a3f0 f i VideoSourceMgr.obj
 0001:000193f0       ??$unchecked_uninitialized_copy@PAPAUVideoReferenceSample@DispSvr@@PAPAU12@V?$allocator@PAUVideoReferenceSample@DispSvr@@@std@@@stdext@@YAPAPAUVideoReferenceSample@DispSvr@@PAPAU12@00AAV?$allocator@PAUVideoReferenceSample@DispSvr@@@std@@@Z 1001a3f0 f i D3D9VideoPlane.obj
 0001:000193f0       ??$_Uninit_move@PAPAVCVideoFrame@@PAPAV1@V?$allocator@PAVCVideoFrame@@@std@@U_Undefined_move_tag@3@@std@@YAPAPAVCVideoFrame@@PAPAV1@00AAV?$allocator@PAVCVideoFrame@@@0@U_Undefined_move_tag@0@U_Range_checked_iterator_tag@0@@Z 1001a3f0 f i MixerControl.obj
 0001:00019420       ??0CAutoLock@@QAE@PAVCCritSec@@@Z 1001a420 f i MixerControl.obj
 0001:00019420       ??0_CAutoLock@@QAE@PAU_RTL_CRITICAL_SECTION@@@Z 1001a420 f i Wizard.obj
 0001:00019430       ??0CWizard@@QAE@PAUIUnknown@@PAJ@Z 1001a430 f   Wizard.obj
 0001:000194e0       ??_ECWizard@@UAEPAXI@Z     1001a4e0 f i  CIL library: CIL module
 0001:000194e0       ??_GCWizard@@UAEPAXI@Z     1001a4e0 f i Wizard.obj
 0001:00019500       ??1CWizard@@UAE@XZ         1001a500 f   Wizard.obj
 0001:000195b0       ?NonDelegatingQueryInterface@CWizard@@UAGJABU_GUID@@PAPAX@Z 1001a5b0 f   Wizard.obj
 0001:00019630       ?Initialize@CWizard@@UAGJKPAUHWND__@@PAUIDisplayRenderEngine@@@Z 1001a630 f   Wizard.obj
 0001:000198d0       ?Terminate@CWizard@@UAGJXZ 1001a8d0 f   Wizard.obj
 0001:000199c0       ?GetRenderEngine@CWizard@@UAGJPAPAUIDisplayRenderEngine@@@Z 1001a9c0 f   Wizard.obj
 0001:00019a00       ?GetMessageWindow@CWizard@@UAGJPAPAUHWND__@@@Z 1001aa00 f   Wizard.obj
 0001:00019a20       ?SetMessageWindow@CWizard@@UAGJPAUHWND__@@@Z 1001aa20 f   Wizard.obj
 0001:00019a50       ?Lock@CWizard@@UAGJXZ      1001aa50 f   Wizard.obj
 0001:00019a70       ?Unlock@CWizard@@UAGJXZ    1001aa70 f   Wizard.obj
 0001:00019a90       ?TryLock@CWizard@@UAGJXZ   1001aa90 f   Wizard.obj
 0001:00019ab0       ?CreateDebugObject@CWizard@@AAEJXZ 1001aab0 f   Wizard.obj
 0001:00019ac0       ?ReleaseDebugObject@CWizard@@AAEJXZ 1001aac0 f   Wizard.obj
 0001:00019af0       ??0?$CObjectCounter@VCWizard@@@DispSvr@@QAE@XZ 1001aaf0 f i Wizard.obj
 0001:00019b10       ??1?$CObjectCounter@VCWizard@@@DispSvr@@QAE@XZ 1001ab10 f i Wizard.obj
 0001:00019b20       ??0?$Singleton@VCWizard@@@DispSvr@@QAE@XZ 1001ab20 f i Wizard.obj
 0001:00019b40       ??1?$Singleton@VCWizard@@@DispSvr@@QAE@XZ 1001ab40 f i Wizard.obj
 0001:00019b50       ?GetViewTextureHandle@D3D9Plane@DispSvr@@QBEPAXI@Z 1001ab50 f i AMDPCOMMixerPresenter.obj
 0001:00019b80       ?IsValid@D3D9Plane@DispSvr@@QBE_NXZ 1001ab80 f i AMDPCOMMixerPresenter.obj
 0001:00019bb0       ?GetPlane@CD3D9VideoMixerModel@DispSvr@@QAEAAUD3D9Plane@2@I@Z 1001abb0 f i AMDPCOMMixerPresenter.obj
 0001:00019bc0       ?GetDestination@CD3D9VideoMixerModel@DispSvr@@QBEABU_NORMALIZEDRECT@@XZ 1001abc0 f i AMDPCOMMixerPresenter.obj
 0001:00019bd0       ?GetClearRectangles@CD3D9VideoMixerModel@DispSvr@@QBEABV?$list@UClearRect@DispSvr@@V?$allocator@UClearRect@DispSvr@@@std@@@std@@XZ 1001abd0 f i AMDPCOMMixerPresenter.obj
 0001:00019be0       ?GetMixerStereoMode@CD3D9VideoMixerBase@DispSvr@@IBE?AW4MIXER_STEREO_MODE@2@XZ 1001abe0 f i AMDPCOMMixerPresenter.obj
 0001:00019c00       ?AddRef@CAMDPCOMMixerPresenter@DispSvr@@UAGKXZ 1001ac00 f i AMDPCOMMixerPresenter.obj
 0001:00019c20       ?Release@CAMDPCOMMixerPresenter@DispSvr@@UAGKXZ 1001ac20 f i AMDPCOMMixerPresenter.obj
 0001:0001a2a0       ??0CAMDPCOMMixerPresenter@DispSvr@@QAE@XZ 1001b2a0 f   AMDPCOMMixerPresenter.obj
 0001:0001a4a0       ??_ECAMDPCOMMixerPresenter@DispSvr@@UAEPAXI@Z 1001b4a0 f i  CIL library: CIL module
 0001:0001a4a0       ??_GCAMDPCOMMixerPresenter@DispSvr@@UAEPAXI@Z 1001b4a0 f i AMDPCOMMixerPresenter.obj
 0001:0001a4e0       ??_DCAMDPCOMMixerPresenter@DispSvr@@QAEXXZ 1001b4e0 f i AMDPCOMMixerPresenter.obj
 0001:0001a510       ??1CAMDPCOMMixerPresenter@DispSvr@@UAE@XZ 1001b510 f   AMDPCOMMixerPresenter.obj
 0001:0001a680       ?QueryInterface@CAMDPCOMMixerPresenter@DispSvr@@UAGJABU_GUID@@PAPAX@Z 1001b680 f   AMDPCOMMixerPresenter.obj
 0001:0001a700       ?ProcessMessage@CAMDPCOMMixerPresenter@DispSvr@@UAGJW4RESOURCE_MESSAGE_TYPE@@PAX@Z 1001b700 f   AMDPCOMMixerPresenter.obj
 0001:0001a720       ?_QueryPlaneCaps@CAMDPCOMMixerPresenter@DispSvr@@EAGJHW4PLANE_FORMAT@2@PAUPlaneCaps@2@@Z 1001b720 f   AMDPCOMMixerPresenter.obj
 0001:0001a750       ?SetDisplayRect@CAMDPCOMMixerPresenter@DispSvr@@UAGJPBUtagRECT@@0@Z 1001b750 f   AMDPCOMMixerPresenter.obj
 0001:0001a870       ?Present@CAMDPCOMMixerPresenter@DispSvr@@UAGJPBUPresentHints@2@@Z 1001b870 f   AMDPCOMMixerPresenter.obj
 0001:0001a8f0       ?Clear@CAMDPCOMMixerPresenter@DispSvr@@UAGJXZ 1001b8f0 f   AMDPCOMMixerPresenter.obj
 0001:0001a930       ?SetColorKey@CAMDPCOMMixerPresenter@DispSvr@@UAGJK@Z 1001b930 f   AMDPCOMMixerPresenter.obj
 0001:0001a9c0       ?SetGamutMetadata@CAMDPCOMMixerPresenter@DispSvr@@UAGJKPAX@Z 1001b9c0 f   AMDPCOMMixerPresenter.obj
 0001:0001ac30       ?SetScreenCaptureDefense@CAMDPCOMMixerPresenter@DispSvr@@UAGJH@Z 1001bc30 f   AMDPCOMMixerPresenter.obj
 0001:0001ac90       ?_SetDevice@CAMDPCOMMixerPresenter@DispSvr@@EAGJPAUIUnknown@@@Z 1001bc90 f   AMDPCOMMixerPresenter.obj
 0001:0001add0       ?_ReleaseDevice@CAMDPCOMMixerPresenter@DispSvr@@EAGJXZ 1001bdd0 f   AMDPCOMMixerPresenter.obj
 0001:0001ae50       ?_Execute@CAMDPCOMMixerPresenter@DispSvr@@EAGJPAUIDirect3DSurface9@@ABUtagRECT@@1@Z 1001be50 f   AMDPCOMMixerPresenter.obj
 0001:0001b2d0       ?SetProperty@CAMDPCOMMixerPresenter@DispSvr@@EAGJPBUMixerProperty@2@@Z 1001c2d0 f   AMDPCOMMixerPresenter.obj
 0001:0001b360       ?CreatePCOM@CAMDPCOMMixerPresenter@DispSvr@@AAEJXZ 1001c360 f   AMDPCOMMixerPresenter.obj
 0001:0001b5e0       ?DestroyPCOM@CAMDPCOMMixerPresenter@DispSvr@@AAEJXZ 1001c5e0 f   AMDPCOMMixerPresenter.obj
 0001:0001b610       ?InsertPCOMVP@CAMDPCOMMixerPresenter@DispSvr@@AAEJXZ 1001c610 f   AMDPCOMMixerPresenter.obj
 0001:0001b7b0       ?BeginFramePCOM@CAMDPCOMMixerPresenter@DispSvr@@AAEJABUtagRECT@@@Z 1001c7b0 f   AMDPCOMMixerPresenter.obj
 0001:0001b960       ?ExecutePCOM@CAMDPCOMMixerPresenter@DispSvr@@AAEJPAU_PCOM_EXECUTE_INPUT@@@Z 1001c960 f   AMDPCOMMixerPresenter.obj
 0001:0001b990       ?EndFramePCOM@CAMDPCOMMixerPresenter@DispSvr@@AAEJXZ 1001c990 f   AMDPCOMMixerPresenter.obj
 0001:0001b9c0       ?PresentPCOM@CAMDPCOMMixerPresenter@DispSvr@@AAEJXZ 1001c9c0 f   AMDPCOMMixerPresenter.obj
 0001:0001ba50       ?PresentEx@CAMDPCOMMixerPresenter@DispSvr@@AAEJXZ 1001ca50 f   AMDPCOMMixerPresenter.obj
 0001:0001baa0       ?ClearPCOM@CAMDPCOMMixerPresenter@DispSvr@@AAEJXZ 1001caa0 f   AMDPCOMMixerPresenter.obj
 0001:0001bae0       ?CalculatePCOMRect@CAMDPCOMMixerPresenter@DispSvr@@AAEJIAAU_PCOM_RECT@@0ABUD3D9Plane@2@AAUtagRECT@@ABU5@3M@Z 1001cae0 f   AMDPCOMMixerPresenter.obj
 0001:0001bc50       ?PlaneToPCOMPlane@CAMDPCOMMixerPresenter@DispSvr@@AAEJHPAU_PCOM_EXECUTE_INPUT@@AAUtagRECT@@ABU4@M@Z 1001cc50 f   AMDPCOMMixerPresenter.obj
 0001:0001c5b0       ??0CAMDDeviceExtensionAdapter@DispSvr@@AAE@XZ 1001d5b0 f   AMDPCOMMixerPresenter.obj
 0001:0001c620       ??_ECAMDDeviceExtensionAdapter@DispSvr@@UAEPAXI@Z 1001d620 f i  CIL library: CIL module
 0001:0001c620       ??_GCAMDDeviceExtensionAdapter@DispSvr@@UAEPAXI@Z 1001d620 f i AMDPCOMMixerPresenter.obj
 0001:0001c640       ??0CAMDDeviceExtensionAdapter@DispSvr@@AAE@PAUIDirect3DDevice9@@@Z 1001d640 f   AMDPCOMMixerPresenter.obj
 0001:0001c6f0       ??1CAMDDeviceExtensionAdapter@DispSvr@@UAE@XZ 1001d6f0 f   AMDPCOMMixerPresenter.obj
 0001:0001c760       ?SetDevice@CAMDDeviceExtensionAdapter@DispSvr@@UAEJPAUIDirect3DDevice9@@@Z 1001d760 f   AMDPCOMMixerPresenter.obj
 0001:0001c7a0       ?CreateMCOM@CAMDDeviceExtensionAdapter@DispSvr@@AAEJPAUHWND__@@@Z 1001d7a0 f   AMDPCOMMixerPresenter.obj
 0001:0001c810       ?DestroyMCOM@CAMDDeviceExtensionAdapter@DispSvr@@AAEJXZ 1001d810 f   AMDPCOMMixerPresenter.obj
 0001:0001c830       ?QueryDecodeStreamCaps@CAMDDeviceExtensionAdapter@DispSvr@@AAEJXZ 1001d830 f   AMDPCOMMixerPresenter.obj
 0001:0001c8b0       ?GetAdapter@CAMDDeviceExtensionAdapter@DispSvr@@SAJPAPAUIDriverExtensionAdapter@2@@Z 1001d8b0 f   AMDPCOMMixerPresenter.obj
 0001:0001c8e0       ?QueryPresenterCaps@CAMDDeviceExtensionAdapter@DispSvr@@UAEJKPAUPresenterCaps@2@@Z 1001d8e0 f   AMDPCOMMixerPresenter.obj
 0001:0001ca20       ?QueryHDMIStereoModeCaps@CAMDDeviceExtensionAdapter@DispSvr@@UAEJPAUHWND__@@PAPAUDriverExtHDMIStereoModeCap@2@PAI@Z 1001da20 f   AMDPCOMMixerPresenter.obj
 0001:0001cb10       ?EnableHDMIStereoMode@CAMDDeviceExtensionAdapter@DispSvr@@UAEJHPAUDriverExtHDMIStereoModeCap@2@PAH@Z 1001db10 f   AMDPCOMMixerPresenter.obj
 0001:0001cc80       ?QueryAdapterInfo@CAMDDeviceExtensionAdapter@DispSvr@@UAEJPAUHWND__@@PAUHMONITOR__@@PAUDrvExtAdapterInfo@2@@Z 1001dc80 f   AMDPCOMMixerPresenter.obj
 0001:0001ccc0       ?GetPCOMCaps@CAMDDeviceExtensionAdapter@DispSvr@@AAEJPAUHWND__@@@Z 1001dcc0 f   AMDPCOMMixerPresenter.obj
 0001:0001ce60       ?CreateFakeD3DDevice@CAMDDeviceExtensionAdapter@DispSvr@@AAEJPAUHWND__@@PAPAUIDirect3DDevice9@@@Z 1001de60 f   AMDPCOMMixerPresenter.obj
 0001:0001cf50       ?empty@?$list@UVideoProcessorStub@DispSvr@@V?$allocator@UVideoProcessorStub@DispSvr@@@std@@@std@@QBE_NXZ 1001df50 f i D3D9VideoMixerBase.obj
 0001:0001cf50       ?empty@?$list@T?$PlaneVB@UD3D9ClearRectVertex@DispSvr@@@DispSvr@@V?$allocator@T?$PlaneVB@UD3D9ClearRectVertex@DispSvr@@@DispSvr@@@std@@@std@@QBE_NXZ 1001df50 f i D3D9VideoMixer.obj
 0001:0001cf50       ?empty@?$list@UD3D9Texture@CD3D9TexturePool@DispSvr@@V?$allocator@UD3D9Texture@CD3D9TexturePool@DispSvr@@@std@@@std@@QBE_NXZ 1001df50 f i D3D9TexturePool.obj
 0001:0001cf50       ?empty@?$list@UClearRect@DispSvr@@V?$allocator@UClearRect@DispSvr@@@std@@@std@@QBE_NXZ 1001df50 f i AMDPCOMMixerPresenter.obj
 0001:0001cf50       ?empty@?$list@UPlugin@CResourceManager@DispSvr@@V?$allocator@UPlugin@CResourceManager@DispSvr@@@std@@@std@@QBE_NXZ 1001df50 f i ResourceManager.obj
 0001:0001cf60       ?push_back@?$list@UVideoProcessorStub@DispSvr@@V?$allocator@UVideoProcessorStub@DispSvr@@@std@@@std@@QAEXABUVideoProcessorStub@DispSvr@@@Z 1001df60 f i AMDPCOMMixerPresenter.obj
 0001:0001cfa0       ??A?$map@$$CBKW4_PCOM_STEREOSCOPIC_FORMAT@@U?$less@$$CBK@std@@V?$allocator@U?$pair@$$CBKW4_PCOM_STEREOSCOPIC_FORMAT@@@std@@@3@@std@@QAEAAW4_PCOM_STEREOSCOPIC_FORMAT@@ABK@Z 1001dfa0 f i AMDPCOMMixerPresenter.obj
 0001:0001cfa0       ??A?$map@KKU?$less@K@std@@V?$allocator@U?$pair@$$CBKK@std@@@2@@std@@QAEAAKABK@Z 1001dfa0 f i IntelDxva2Device.obj
 0001:0001cfa0       ??A?$map@PBUIDirect3DSurface9@@PAUNVDX_ObjectHandle__@@U?$less@PBUIDirect3DSurface9@@@std@@V?$allocator@U?$pair@QBUIDirect3DSurface9@@PAUNVDX_ObjectHandle__@@@std@@@4@@std@@QAEAAPAUNVDX_ObjectHandle__@@ABQBUIDirect3DSurface9@@@Z 1001dfa0 f i NvAPIPresenter.obj
 0001:0001cfa0       ??A?$map@$$CBKKU?$less@$$CBK@std@@V?$allocator@U?$pair@$$CBKK@std@@@2@@std@@QAEAAKABK@Z 1001dfa0 f i AMDPCOMMixerPresenter.obj
 0001:0001d020       ?find@?$_Tree@V?$_Tmap_traits@KKU?$less@K@std@@V?$allocator@U?$pair@$$CBKK@std@@@2@$0A@@std@@@std@@QAE?AViterator@12@ABK@Z 1001e020 f i IntelDxva2Device.obj
 0001:0001d020       ?find@?$_Tree@V?$_Tmap_traits@$$CBKW4_PCOM_STEREOSCOPIC_FORMAT@@U?$less@$$CBK@std@@V?$allocator@U?$pair@$$CBKW4_PCOM_STEREOSCOPIC_FORMAT@@@std@@@3@$0A@@std@@@std@@QAE?AViterator@12@ABK@Z 1001e020 f i AMDPCOMMixerPresenter.obj
 0001:0001d020       ?find@?$_Tree@V?$_Tmap_traits@$$CBKKU?$less@$$CBK@std@@V?$allocator@U?$pair@$$CBKK@std@@@2@$0A@@std@@@std@@QAE?AViterator@12@ABK@Z 1001e020 f i AMDPCOMMixerPresenter.obj
 0001:0001d020       ?find@?$_Tree@V?$_Tmap_traits@PBUIDirect3DSurface9@@PAUNVDX_ObjectHandle__@@U?$less@PBUIDirect3DSurface9@@@std@@V?$allocator@U?$pair@QBUIDirect3DSurface9@@PAUNVDX_ObjectHandle__@@@std@@@4@$0A@@std@@@std@@QAE?AViterator@12@ABQBUIDirect3DSurface9@@@Z 1001e020 f i NvAPIPresenter.obj
 0001:0001d090       ??D?$_Const_iterator@$00@?$list@UD3D9Texture@CD3D9TexturePool@DispSvr@@V?$allocator@UD3D9Texture@CD3D9TexturePool@DispSvr@@@std@@@std@@QBEABUD3D9Texture@CD3D9TexturePool@DispSvr@@XZ 1001e090 f i D3D9TexturePool.obj
 0001:0001d090       ??D?$_Iterator@$00@?$list@UPlugin@CResourceManager@DispSvr@@V?$allocator@UPlugin@CResourceManager@DispSvr@@@std@@@std@@QBEAAUPlugin@CResourceManager@DispSvr@@XZ 1001e090 f i ResourceManager.obj
 0001:0001d090       ??D?$_Const_iterator@$00@?$list@UPlugin@CResourceManager@DispSvr@@V?$allocator@UPlugin@CResourceManager@DispSvr@@@std@@@std@@QBEABUPlugin@CResourceManager@DispSvr@@XZ 1001e090 f i ResourceManager.obj
 0001:0001d090       ??C?$_Iterator@$00@?$list@UPlugin@CResourceManager@DispSvr@@V?$allocator@UPlugin@CResourceManager@DispSvr@@@std@@@std@@QBEPAUPlugin@CResourceManager@DispSvr@@XZ 1001e090 f i ResourceManager.obj
 0001:0001d090       ??C?$_Const_iterator@$00@?$list@UClearRect@DispSvr@@V?$allocator@UClearRect@DispSvr@@@std@@@std@@QBEPBUClearRect@DispSvr@@XZ 1001e090 f i AMDPCOMMixerPresenter.obj
 0001:0001d090       ??D?$_Const_iterator@$00@?$list@UVideoProcessorStub@DispSvr@@V?$allocator@UVideoProcessorStub@DispSvr@@@std@@@std@@QBEABUVideoProcessorStub@DispSvr@@XZ 1001e090 f i AMDPCOMMixerPresenter.obj
 0001:0001d090       ??D?$_Const_iterator@$00@?$list@UClearRect@DispSvr@@V?$allocator@UClearRect@DispSvr@@@std@@@std@@QBEABUClearRect@DispSvr@@XZ 1001e090 f i AMDPCOMMixerPresenter.obj
 0001:0001d090       ??D?$_Iterator@$00@?$list@UD3D9Texture@CD3D9TexturePool@DispSvr@@V?$allocator@UD3D9Texture@CD3D9TexturePool@DispSvr@@@std@@@std@@QBEAAUD3D9Texture@CD3D9TexturePool@DispSvr@@XZ 1001e090 f i D3D9TexturePool.obj
 0001:0001d090       ??D?$_Const_iterator@$00@?$list@PAUHINSTANCE__@@V?$allocator@PAUHINSTANCE__@@@std@@@std@@QBEABQAUHINSTANCE__@@XZ 1001e090 f i DynLibManager.obj
 0001:0001d090       ??C?$_Const_iterator@$00@?$list@UVideoProcessorStub@DispSvr@@V?$allocator@UVideoProcessorStub@DispSvr@@@std@@@std@@QBEPBUVideoProcessorStub@DispSvr@@XZ 1001e090 f i D3D9VideoMixerBase.obj
 0001:0001d090       ??D?$_Const_iterator@$00@?$list@T?$PlaneVB@UD3D9ClearRectVertex@DispSvr@@@DispSvr@@V?$allocator@T?$PlaneVB@UD3D9ClearRectVertex@DispSvr@@@DispSvr@@@std@@@std@@QBEABT?$PlaneVB@UD3D9ClearRectVertex@DispSvr@@@DispSvr@@XZ 1001e090 f i D3D9VideoMixer.obj
 0001:0001d090       ??C?$_Iterator@$00@?$list@UVideoProcessorStub@DispSvr@@V?$allocator@UVideoProcessorStub@DispSvr@@@std@@@std@@QBEPAUVideoProcessorStub@DispSvr@@XZ 1001e090 f i AMDPCOMMixerPresenter.obj
 0001:0001d090       ??D?$_Iterator@$00@?$list@UVideoProcessorStub@DispSvr@@V?$allocator@UVideoProcessorStub@DispSvr@@@std@@@std@@QBEAAUVideoProcessorStub@DispSvr@@XZ 1001e090 f i AMDPCOMMixerPresenter.obj
 0001:0001d0c0       ?_Insert@?$list@UVideoProcessorStub@DispSvr@@V?$allocator@UVideoProcessorStub@DispSvr@@@std@@@std@@QAEXV?$_Iterator@$00@12@ABUVideoProcessorStub@DispSvr@@@Z 1001e0c0 f i AMDPCOMMixerPresenter.obj
 0001:0001d0f0       ?insert@?$_Tree@V?$_Tmap_traits@$$CBKKU?$less@$$CBK@std@@V?$allocator@U?$pair@$$CBKK@std@@@2@$0A@@std@@@std@@QAE?AViterator@12@V312@ABU?$pair@$$CBKK@2@@Z 1001e0f0 f i AMDPCOMMixerPresenter.obj
 0001:0001d0f0       ?insert@?$_Tree@V?$_Tmap_traits@$$CBKW4_PCOM_STEREOSCOPIC_FORMAT@@U?$less@$$CBK@std@@V?$allocator@U?$pair@$$CBKW4_PCOM_STEREOSCOPIC_FORMAT@@@std@@@3@$0A@@std@@@std@@QAE?AViterator@12@V312@ABU?$pair@$$CBKW4_PCOM_STEREOSCOPIC_FORMAT@@@2@@Z 1001e0f0 f i AMDPCOMMixerPresenter.obj
 0001:0001d0f0       ?insert@?$_Tree@V?$_Tmap_traits@PBUIDirect3DSurface9@@PAUNVDX_ObjectHandle__@@U?$less@PBUIDirect3DSurface9@@@std@@V?$allocator@U?$pair@QBUIDirect3DSurface9@@PAUNVDX_ObjectHandle__@@@std@@@4@$0A@@std@@@std@@QAE?AViterator@12@V312@ABU?$pair@QBUIDirect3DSurface9@@PAUNVDX_ObjectHandle__@@@2@@Z 1001e0f0 f i NvAPIPresenter.obj
 0001:0001d0f0       ?insert@?$_Tree@V?$_Tmap_traits@KKU?$less@K@std@@V?$allocator@U?$pair@$$CBKK@std@@@2@$0A@@std@@@std@@QAE?AViterator@12@V312@ABU?$pair@$$CBKK@2@@Z 1001e0f0 f i IntelDxva2Device.obj
 0001:0001d2d0       ??Dconst_iterator@?$_Tree@V?$_Tmap_traits@KKU?$less@K@std@@V?$allocator@U?$pair@$$CBKK@std@@@2@$0A@@std@@@std@@QBEABU?$pair@$$CBKK@2@XZ 1001e2d0 f i IntelDxva2Device.obj
 0001:0001d2d0       ??Diterator@?$_Tree@V?$_Tmap_traits@$$CBKKU?$less@$$CBK@std@@V?$allocator@U?$pair@$$CBKK@std@@@2@$0A@@std@@@std@@QBEAAU?$pair@$$CBKK@2@XZ 1001e2d0 f i AMDPCOMMixerPresenter.obj
 0001:0001d2d0       ??Dconst_iterator@?$_Tree@V?$_Tmap_traits@PBUIDirect3DSurface9@@PAUNVDX_ObjectHandle__@@U?$less@PBUIDirect3DSurface9@@@std@@V?$allocator@U?$pair@QBUIDirect3DSurface9@@PAUNVDX_ObjectHandle__@@@std@@@4@$0A@@std@@@std@@QBEABU?$pair@QBUIDirect3DSurface9@@PAUNVDX_ObjectHandle__@@@2@XZ 1001e2d0 f i NvAPIPresenter.obj
 0001:0001d2d0       ??Citerator@?$_Tree@V?$_Tmap_traits@PAXUD3D9Texture@CD3D9TexturePool@DispSvr@@U?$less@PAX@std@@V?$allocator@U?$pair@QAXUD3D9Texture@CD3D9TexturePool@DispSvr@@@std@@@5@$0A@@std@@@std@@QBEPAU?$pair@QAXUD3D9Texture@CD3D9TexturePool@DispSvr@@@2@XZ 1001e2d0 f i D3D9TexturePool.obj
 0001:0001d2d0       ??Citerator@?$_Tree@V?$_Tmap_traits@$$CBKW4_PCOM_STEREOSCOPIC_FORMAT@@U?$less@$$CBK@std@@V?$allocator@U?$pair@$$CBKW4_PCOM_STEREOSCOPIC_FORMAT@@@std@@@3@$0A@@std@@@std@@QBEPAU?$pair@$$CBKW4_PCOM_STEREOSCOPIC_FORMAT@@@2@XZ 1001e2d0 f i AMDPCOMMixerPresenter.obj
 0001:0001d2d0       ??Diterator@?$_Tree@V?$_Tmap_traits@KKU?$less@K@std@@V?$allocator@U?$pair@$$CBKK@std@@@2@$0A@@std@@@std@@QBEAAU?$pair@$$CBKK@2@XZ 1001e2d0 f i IntelDxva2Device.obj
 0001:0001d2d0       ??Diterator@?$_Tree@V?$_Tmap_traits@PBUIDirect3DSurface9@@PAUNVDX_ObjectHandle__@@U?$less@PBUIDirect3DSurface9@@@std@@V?$allocator@U?$pair@QBUIDirect3DSurface9@@PAUNVDX_ObjectHandle__@@@std@@@4@$0A@@std@@@std@@QBEAAU?$pair@QBUIDirect3DSurface9@@PAUNVDX_ObjectHandle__@@@2@XZ 1001e2d0 f i NvAPIPresenter.obj
 0001:0001d2d0       ??Citerator@?$_Tree@V?$_Tmap_traits@W4PLANE_FORMAT@DispSvr@@UTextureCap@2@U?$less@W4PLANE_FORMAT@DispSvr@@@std@@V?$allocator@U?$pair@$$CBW4PLANE_FORMAT@DispSvr@@UTextureCap@2@@std@@@5@$0A@@std@@@std@@QBEPAU?$pair@$$CBW4PLANE_FORMAT@DispSvr@@UTextureCap@2@@2@XZ 1001e2d0 f i D3D9TexturePool.obj
 0001:0001d2d0       ??Diterator@?$_Tree@V?$_Tmap_traits@$$CBKW4_PCOM_STEREOSCOPIC_FORMAT@@U?$less@$$CBK@std@@V?$allocator@U?$pair@$$CBKW4_PCOM_STEREOSCOPIC_FORMAT@@@std@@@3@$0A@@std@@@std@@QBEAAU?$pair@$$CBKW4_PCOM_STEREOSCOPIC_FORMAT@@@2@XZ 1001e2d0 f i AMDPCOMMixerPresenter.obj
 0001:0001d2d0       ??Diterator@?$_Tree@V?$_Tmap_traits@W4PLANE_FORMAT@DispSvr@@UTextureCap@2@U?$less@W4PLANE_FORMAT@DispSvr@@@std@@V?$allocator@U?$pair@$$CBW4PLANE_FORMAT@DispSvr@@UTextureCap@2@@std@@@5@$0A@@std@@@std@@QBEAAU?$pair@$$CBW4PLANE_FORMAT@DispSvr@@UTextureCap@2@@2@XZ 1001e2d0 f i D3D9TexturePool.obj
 0001:0001d2d0       ??Dconst_iterator@?$_Tree@V?$_Tmap_traits@W4PLANE_FORMAT@DispSvr@@UTextureCap@2@U?$less@W4PLANE_FORMAT@DispSvr@@@std@@V?$allocator@U?$pair@$$CBW4PLANE_FORMAT@DispSvr@@UTextureCap@2@@std@@@5@$0A@@std@@@std@@QBEABU?$pair@$$CBW4PLANE_FORMAT@DispSvr@@UTextureCap@2@@2@XZ 1001e2d0 f i D3D9TexturePool.obj
 0001:0001d2d0       ??Dconst_iterator@?$_Tree@V?$_Tmap_traits@$$CBKKU?$less@$$CBK@std@@V?$allocator@U?$pair@$$CBKK@std@@@2@$0A@@std@@@std@@QBEABU?$pair@$$CBKK@2@XZ 1001e2d0 f i AMDPCOMMixerPresenter.obj
 0001:0001d2d0       ??Cconst_iterator@?$_Tree@V?$_Tmap_traits@U_GUID@@UResourceGroup@CResourceManager@DispSvr@@U?$less@U_GUID@@@std@@V?$allocator@U?$pair@$$CBU_GUID@@UResourceGroup@CResourceManager@DispSvr@@@std@@@6@$0A@@std@@@std@@QBEPBU?$pair@$$CBU_GUID@@UResourceGroup@CResourceManager@DispSvr@@@2@XZ 1001e2d0 f i ResourceManager.obj
 0001:0001d2d0       ??Citerator@?$_Tree@V?$_Tmap_traits@U_GUID@@UResourceGroup@CResourceManager@DispSvr@@U?$less@U_GUID@@@std@@V?$allocator@U?$pair@$$CBU_GUID@@UResourceGroup@CResourceManager@DispSvr@@@std@@@6@$0A@@std@@@std@@QBEPAU?$pair@$$CBU_GUID@@UResourceGroup@CResourceManager@DispSvr@@@2@XZ 1001e2d0 f i ResourceManager.obj
 0001:0001d2d0       ??Dconst_iterator@?$_Tree@V?$_Tmap_traits@PAXUD3D9Texture@CD3D9TexturePool@DispSvr@@U?$less@PAX@std@@V?$allocator@U?$pair@QAXUD3D9Texture@CD3D9TexturePool@DispSvr@@@std@@@5@$0A@@std@@@std@@QBEABU?$pair@QAXUD3D9Texture@CD3D9TexturePool@DispSvr@@@2@XZ 1001e2d0 f i D3D9TexturePool.obj
 0001:0001d2d0       ??Citerator@?$_Tree@V?$_Tmap_traits@$$CBKKU?$less@$$CBK@std@@V?$allocator@U?$pair@$$CBKK@std@@@2@$0A@@std@@@std@@QBEPAU?$pair@$$CBKK@2@XZ 1001e2d0 f i AMDPCOMMixerPresenter.obj
 0001:0001d2d0       ??Dconst_iterator@?$_Tree@V?$_Tmap_traits@$$CBKW4_PCOM_STEREOSCOPIC_FORMAT@@U?$less@$$CBK@std@@V?$allocator@U?$pair@$$CBKW4_PCOM_STEREOSCOPIC_FORMAT@@@std@@@3@$0A@@std@@@std@@QBEABU?$pair@$$CBKW4_PCOM_STEREOSCOPIC_FORMAT@@@2@XZ 1001e2d0 f i AMDPCOMMixerPresenter.obj
 0001:0001d2d0       ??Diterator@?$_Tree@V?$_Tmap_traits@PAXUD3D9Texture@CD3D9TexturePool@DispSvr@@U?$less@PAX@std@@V?$allocator@U?$pair@QAXUD3D9Texture@CD3D9TexturePool@DispSvr@@@std@@@5@$0A@@std@@@std@@QBEAAU?$pair@QAXUD3D9Texture@CD3D9TexturePool@DispSvr@@@2@XZ 1001e2d0 f i D3D9TexturePool.obj
 0001:0001d2d0       ??Diterator@?$_Tree@V?$_Tmap_traits@U_GUID@@UResourceGroup@CResourceManager@DispSvr@@U?$less@U_GUID@@@std@@V?$allocator@U?$pair@$$CBU_GUID@@UResourceGroup@CResourceManager@DispSvr@@@std@@@6@$0A@@std@@@std@@QBEAAU?$pair@$$CBU_GUID@@UResourceGroup@CResourceManager@DispSvr@@@2@XZ 1001e2d0 f i ResourceManager.obj
 0001:0001d2d0       ??Dconst_iterator@?$_Tree@V?$_Tmap_traits@U_GUID@@UResourceGroup@CResourceManager@DispSvr@@U?$less@U_GUID@@@std@@V?$allocator@U?$pair@$$CBU_GUID@@UResourceGroup@CResourceManager@DispSvr@@@std@@@6@$0A@@std@@@std@@QBEABU?$pair@$$CBU_GUID@@UResourceGroup@CResourceManager@DispSvr@@@2@XZ 1001e2d0 f i ResourceManager.obj
 0001:0001d2d0       ??Cconst_iterator@?$_Tree@V?$_Tmap_traits@PBUIDirect3DSurface9@@PAUNVDX_ObjectHandle__@@U?$less@PBUIDirect3DSurface9@@@std@@V?$allocator@U?$pair@QBUIDirect3DSurface9@@PAUNVDX_ObjectHandle__@@@std@@@4@$0A@@std@@@std@@QBEPBU?$pair@QBUIDirect3DSurface9@@PAUNVDX_ObjectHandle__@@@2@XZ 1001e2d0 f i NvAPIPresenter.obj
 0001:0001d300       ?_Buynode@?$list@UVideoProcessorStub@DispSvr@@V?$allocator@UVideoProcessorStub@DispSvr@@@std@@@std@@IAEPAU_Node@?$_List_nod@UVideoProcessorStub@DispSvr@@V?$allocator@UVideoProcessorStub@DispSvr@@@std@@@2@PAU342@0ABUVideoProcessorStub@DispSvr@@@Z 1001e300 f i AMDPCOMMixerPresenter.obj
 0001:0001d340       ?_Incsize@?$list@UVideoProcessorStub@DispSvr@@V?$allocator@UVideoProcessorStub@DispSvr@@@std@@@std@@IAEXI@Z 1001e340 f i AMDPCOMMixerPresenter.obj
 0001:0001d3d0       ?size@?$_Tree@V?$_Tmap_traits@PBUIDirect3DSurface9@@PAUNVDX_ObjectHandle__@@U?$less@PBUIDirect3DSurface9@@@std@@V?$allocator@U?$pair@QBUIDirect3DSurface9@@PAUNVDX_ObjectHandle__@@@std@@@4@$0A@@std@@@std@@QBEIXZ 1001e3d0 f i NvAPIPresenter.obj
 0001:0001d3d0       ?size@?$_Tree@V?$_Tmap_traits@W4PLANE_FORMAT@DispSvr@@UTextureCap@2@U?$less@W4PLANE_FORMAT@DispSvr@@@std@@V?$allocator@U?$pair@$$CBW4PLANE_FORMAT@DispSvr@@UTextureCap@2@@std@@@5@$0A@@std@@@std@@QBEIXZ 1001e3d0 f i D3D9TexturePool.obj
 0001:0001d3d0       ?size@?$list@UVideoProcessorStub@DispSvr@@V?$allocator@UVideoProcessorStub@DispSvr@@@std@@@std@@QBEIXZ 1001e3d0 f i D3D9VideoMixerBase.obj
 0001:0001d3d0       ?Front@?$List@PAUIMFSample@@@@IBEPAUNode@1@XZ 1001e3d0 f i EvrPresentScheduler.obj
 0001:0001d3d0       ?size@?$_Tree@V?$_Tmap_traits@KKU?$less@K@std@@V?$allocator@U?$pair@$$CBKK@std@@@2@$0A@@std@@@std@@QBEIXZ 1001e3d0 f i IntelDxva2Device.obj
 0001:0001d3d0       ?size@?$_Tree@V?$_Tmap_traits@KUVideoSourceRate@CServerStateEventSink@DispSvr@@U?$less@K@std@@V?$allocator@U?$pair@$$CBKUVideoSourceRate@CServerStateEventSink@DispSvr@@@std@@@5@$0A@@std@@@std@@QBEIXZ 1001e3d0 f i ServerStateEventSink.obj
 0001:0001d3d0       ?size@?$list@UClearRect@DispSvr@@V?$allocator@UClearRect@DispSvr@@@std@@@std@@QBEIXZ 1001e3d0 f i AMDPCOMMixerPresenter.obj
 0001:0001d3d0       ?size@?$_Tree@V?$_Tmap_traits@$$CBKKU?$less@$$CBK@std@@V?$allocator@U?$pair@$$CBKK@std@@@2@$0A@@std@@@std@@QBEIXZ 1001e3d0 f i AMDPCOMMixerPresenter.obj
 0001:0001d3d0       ?size@?$_Tree@V?$_Tmap_traits@PAXUD3D9Texture@CD3D9TexturePool@DispSvr@@U?$less@PAX@std@@V?$allocator@U?$pair@QAXUD3D9Texture@CD3D9TexturePool@DispSvr@@@std@@@5@$0A@@std@@@std@@QBEIXZ 1001e3d0 f i D3D9TexturePool.obj
 0001:0001d3d0       ?size@?$_Tree@V?$_Tmap_traits@$$CBKW4_PCOM_STEREOSCOPIC_FORMAT@@U?$less@$$CBK@std@@V?$allocator@U?$pair@$$CBKW4_PCOM_STEREOSCOPIC_FORMAT@@@std@@@3@$0A@@std@@@std@@QBEIXZ 1001e3d0 f i AMDPCOMMixerPresenter.obj
 0001:0001d3d0       ?size@?$_Tree@V?$_Tset_traits@W4_D3DFORMAT@@U?$less@W4_D3DFORMAT@@@std@@V?$allocator@W4_D3DFORMAT@@@3@$0A@@std@@@std@@QBEIXZ 1001e3d0 f i DXVAHDVideoProcessor.obj
 0001:0001d3d0       ?size@?$_Tree@V?$_Tmap_traits@U_GUID@@UResourceGroup@CResourceManager@DispSvr@@U?$less@U_GUID@@@std@@V?$allocator@U?$pair@$$CBU_GUID@@UResourceGroup@CResourceManager@DispSvr@@@std@@@6@$0A@@std@@@std@@QBEIXZ 1001e3d0 f i ResourceManager.obj
 0001:0001d3e0       ?insert@?$_Tree@V?$_Tmap_traits@$$CBKKU?$less@$$CBK@std@@V?$allocator@U?$pair@$$CBKK@std@@@2@$0A@@std@@@std@@QAE?AU?$pair@Viterator@?$_Tree@V?$_Tmap_traits@$$CBKKU?$less@$$CBK@std@@V?$allocator@U?$pair@$$CBKK@std@@@2@$0A@@std@@@std@@_N@2@ABU?$pair@$$CBKK@2@@Z 1001e3e0 f i AMDPCOMMixerPresenter.obj
 0001:0001d3e0       ?insert@?$_Tree@V?$_Tmap_traits@PBUIDirect3DSurface9@@PAUNVDX_ObjectHandle__@@U?$less@PBUIDirect3DSurface9@@@std@@V?$allocator@U?$pair@QBUIDirect3DSurface9@@PAUNVDX_ObjectHandle__@@@std@@@4@$0A@@std@@@std@@QAE?AU?$pair@Viterator@?$_Tree@V?$_Tmap_traits@PBUIDirect3DSurface9@@PAUNVDX_ObjectHandle__@@U?$less@PBUIDirect3DSurface9@@@std@@V?$allocator@U?$pair@QBUIDirect3DSurface9@@PAUNVDX_ObjectHandle__@@@std@@@4@$0A@@std@@@std@@_N@2@ABU?$pair@QBUIDirect3DSurface9@@PAUNVDX_ObjectHandle__@@@2@@Z 1001e3e0 f i NvAPIPresenter.obj
 0001:0001d3e0       ?insert@?$_Tree@V?$_Tmap_traits@$$CBKW4_PCOM_STEREOSCOPIC_FORMAT@@U?$less@$$CBK@std@@V?$allocator@U?$pair@$$CBKW4_PCOM_STEREOSCOPIC_FORMAT@@@std@@@3@$0A@@std@@@std@@QAE?AU?$pair@Viterator@?$_Tree@V?$_Tmap_traits@$$CBKW4_PCOM_STEREOSCOPIC_FORMAT@@U?$less@$$CBK@std@@V?$allocator@U?$pair@$$CBKW4_PCOM_STEREOSCOPIC_FORMAT@@@std@@@3@$0A@@std@@@std@@_N@2@ABU?$pair@$$CBKW4_PCOM_STEREOSCOPIC_FORMAT@@@2@@Z 1001e3e0 f i AMDPCOMMixerPresenter.obj
 0001:0001d3e0       ?insert@?$_Tree@V?$_Tmap_traits@KKU?$less@K@std@@V?$allocator@U?$pair@$$CBKK@std@@@2@$0A@@std@@@std@@QAE?AU?$pair@Viterator@?$_Tree@V?$_Tmap_traits@KKU?$less@K@std@@V?$allocator@U?$pair@$$CBKK@std@@@2@$0A@@std@@@std@@_N@2@ABU?$pair@$$CBKK@2@@Z 1001e3e0 f i IntelDxva2Device.obj
 0001:0001d4c0       ?_Insert@?$_Tree@V?$_Tmap_traits@KKU?$less@K@std@@V?$allocator@U?$pair@$$CBKK@std@@@2@$0A@@std@@@std@@IAE?AViterator@12@_NPAU_Node@?$_Tree_nod@V?$_Tmap_traits@KKU?$less@K@std@@V?$allocator@U?$pair@$$CBKK@std@@@2@$0A@@std@@@2@ABU?$pair@$$CBKK@2@@Z 1001e4c0 f i IntelDxva2Device.obj
 0001:0001d4c0       ?_Insert@?$_Tree@V?$_Tmap_traits@$$CBKW4_PCOM_STEREOSCOPIC_FORMAT@@U?$less@$$CBK@std@@V?$allocator@U?$pair@$$CBKW4_PCOM_STEREOSCOPIC_FORMAT@@@std@@@3@$0A@@std@@@std@@IAE?AViterator@12@_NPAU_Node@?$_Tree_nod@V?$_Tmap_traits@$$CBKW4_PCOM_STEREOSCOPIC_FORMAT@@U?$less@$$CBK@std@@V?$allocator@U?$pair@$$CBKW4_PCOM_STEREOSCOPIC_FORMAT@@@std@@@3@$0A@@std@@@2@ABU?$pair@$$CBKW4_PCOM_STEREOSCOPIC_FORMAT@@@2@@Z 1001e4c0 f i AMDPCOMMixerPresenter.obj
 0001:0001d4c0       ?_Insert@?$_Tree@V?$_Tmap_traits@PBUIDirect3DSurface9@@PAUNVDX_ObjectHandle__@@U?$less@PBUIDirect3DSurface9@@@std@@V?$allocator@U?$pair@QBUIDirect3DSurface9@@PAUNVDX_ObjectHandle__@@@std@@@4@$0A@@std@@@std@@IAE?AViterator@12@_NPAU_Node@?$_Tree_nod@V?$_Tmap_traits@PBUIDirect3DSurface9@@PAUNVDX_ObjectHandle__@@U?$less@PBUIDirect3DSurface9@@@std@@V?$allocator@U?$pair@QBUIDirect3DSurface9@@PAUNVDX_ObjectHandle__@@@std@@@4@$0A@@std@@@2@ABU?$pair@QBUIDirect3DSurface9@@PAUNVDX_ObjectHandle__@@@2@@Z 1001e4c0 f i NvAPIPresenter.obj
 0001:0001d4c0       ?_Insert@?$_Tree@V?$_Tmap_traits@$$CBKKU?$less@$$CBK@std@@V?$allocator@U?$pair@$$CBKK@std@@@2@$0A@@std@@@std@@IAE?AViterator@12@_NPAU_Node@?$_Tree_nod@V?$_Tmap_traits@$$CBKKU?$less@$$CBK@std@@V?$allocator@U?$pair@$$CBKK@std@@@2@$0A@@std@@@2@ABU?$pair@$$CBKK@2@@Z 1001e4c0 f i AMDPCOMMixerPresenter.obj
 0001:0001d700       ?_Lbound@?$_Tree@V?$_Tmap_traits@$$CBKW4_PCOM_STEREOSCOPIC_FORMAT@@U?$less@$$CBK@std@@V?$allocator@U?$pair@$$CBKW4_PCOM_STEREOSCOPIC_FORMAT@@@std@@@3@$0A@@std@@@std@@IBEPAU_Node@?$_Tree_nod@V?$_Tmap_traits@$$CBKW4_PCOM_STEREOSCOPIC_FORMAT@@U?$less@$$CBK@std@@V?$allocator@U?$pair@$$CBKW4_PCOM_STEREOSCOPIC_FORMAT@@@std@@@3@$0A@@std@@@2@ABK@Z 1001e700 f i AMDPCOMMixerPresenter.obj
 0001:0001d700       ?_Lbound@?$_Tree@V?$_Tmap_traits@PBUIDirect3DSurface9@@PAUNVDX_ObjectHandle__@@U?$less@PBUIDirect3DSurface9@@@std@@V?$allocator@U?$pair@QBUIDirect3DSurface9@@PAUNVDX_ObjectHandle__@@@std@@@4@$0A@@std@@@std@@IBEPAU_Node@?$_Tree_nod@V?$_Tmap_traits@PBUIDirect3DSurface9@@PAUNVDX_ObjectHandle__@@U?$less@PBUIDirect3DSurface9@@@std@@V?$allocator@U?$pair@QBUIDirect3DSurface9@@PAUNVDX_ObjectHandle__@@@std@@@4@$0A@@std@@@2@ABQBUIDirect3DSurface9@@@Z 1001e700 f i NvAPIPresenter.obj
 0001:0001d700       ?_Lbound@?$_Tree@V?$_Tmap_traits@$$CBKKU?$less@$$CBK@std@@V?$allocator@U?$pair@$$CBKK@std@@@2@$0A@@std@@@std@@IBEPAU_Node@?$_Tree_nod@V?$_Tmap_traits@$$CBKKU?$less@$$CBK@std@@V?$allocator@U?$pair@$$CBKK@std@@@2@$0A@@std@@@2@ABK@Z 1001e700 f i AMDPCOMMixerPresenter.obj
 0001:0001d700       ?_Lbound@?$_Tree@V?$_Tmap_traits@KKU?$less@K@std@@V?$allocator@U?$pair@$$CBKK@std@@@2@$0A@@std@@@std@@IBEPAU_Node@?$_Tree_nod@V?$_Tmap_traits@KKU?$less@K@std@@V?$allocator@U?$pair@$$CBKK@std@@@2@$0A@@std@@@2@ABK@Z 1001e700 f i IntelDxva2Device.obj
 0001:0001d730       ?max_size@?$list@UVideoProcessorStub@DispSvr@@V?$allocator@UVideoProcessorStub@DispSvr@@@std@@@std@@QBEIXZ 1001e730 f i AMDPCOMMixerPresenter.obj
 0001:0001d730       ?max_size@?$allocator@UVideoProcessorStub@DispSvr@@@std@@QBEIXZ 1001e730 f i AMDPCOMMixerPresenter.obj
 0001:0001d740       ?construct@?$allocator@UVideoProcessorStub@DispSvr@@@std@@QAEXPAUVideoProcessorStub@DispSvr@@ABU34@@Z 1001e740 f i AMDPCOMMixerPresenter.obj
 0001:0001d740       ??$_Construct@UVideoProcessorStub@DispSvr@@U12@@std@@YAXPAUVideoProcessorStub@DispSvr@@ABU12@@Z 1001e740 f i AMDPCOMMixerPresenter.obj
 0001:0001d760       ?allocate@?$allocator@U_Node@?$_List_nod@UVideoProcessorStub@DispSvr@@V?$allocator@UVideoProcessorStub@DispSvr@@@std@@@std@@@std@@QAEPAU_Node@?$_List_nod@UVideoProcessorStub@DispSvr@@V?$allocator@UVideoProcessorStub@DispSvr@@@std@@@2@I@Z 1001e760 f i AMDPCOMMixerPresenter.obj
 0001:0001d770       ?_Color@?$_Tree@V?$_Tmap_traits@$$CBKW4_PCOM_STEREOSCOPIC_FORMAT@@U?$less@$$CBK@std@@V?$allocator@U?$pair@$$CBKW4_PCOM_STEREOSCOPIC_FORMAT@@@std@@@3@$0A@@std@@@std@@KAAADPAU_Node@?$_Tree_nod@V?$_Tmap_traits@$$CBKW4_PCOM_STEREOSCOPIC_FORMAT@@U?$less@$$CBK@std@@V?$allocator@U?$pair@$$CBKW4_PCOM_STEREOSCOPIC_FORMAT@@@std@@@3@$0A@@std@@@2@@Z 1001e770 f i AMDPCOMMixerPresenter.obj
 0001:0001d770       ?_Color@?$_Tree@V?$_Tmap_traits@$$CBKKU?$less@$$CBK@std@@V?$allocator@U?$pair@$$CBKK@std@@@2@$0A@@std@@@std@@KAAADPAU_Node@?$_Tree_nod@V?$_Tmap_traits@$$CBKKU?$less@$$CBK@std@@V?$allocator@U?$pair@$$CBKK@std@@@2@$0A@@std@@@2@@Z 1001e770 f i AMDPCOMMixerPresenter.obj
 0001:0001d770       ?_Color@?$_Tree@V?$_Tmap_traits@PBUIDirect3DSurface9@@PAUNVDX_ObjectHandle__@@U?$less@PBUIDirect3DSurface9@@@std@@V?$allocator@U?$pair@QBUIDirect3DSurface9@@PAUNVDX_ObjectHandle__@@@std@@@4@$0A@@std@@@std@@KAAADPAU_Node@?$_Tree_nod@V?$_Tmap_traits@PBUIDirect3DSurface9@@PAUNVDX_ObjectHandle__@@U?$less@PBUIDirect3DSurface9@@@std@@V?$allocator@U?$pair@QBUIDirect3DSurface9@@PAUNVDX_ObjectHandle__@@@std@@@4@$0A@@std@@@2@@Z 1001e770 f i NvAPIPresenter.obj
 0001:0001d770       ?_Color@?$_Tree@V?$_Tmap_traits@KKU?$less@K@std@@V?$allocator@U?$pair@$$CBKK@std@@@2@$0A@@std@@@std@@KAAADPAU_Node@?$_Tree_nod@V?$_Tmap_traits@KKU?$less@K@std@@V?$allocator@U?$pair@$$CBKK@std@@@2@$0A@@std@@@2@@Z 1001e770 f i IntelDxva2Device.obj
 0001:0001d780       ?_Lrotate@?$_Tree@V?$_Tmap_traits@$$CBKW4_PCOM_STEREOSCOPIC_FORMAT@@U?$less@$$CBK@std@@V?$allocator@U?$pair@$$CBKW4_PCOM_STEREOSCOPIC_FORMAT@@@std@@@3@$0A@@std@@@std@@IAEXPAU_Node@?$_Tree_nod@V?$_Tmap_traits@$$CBKW4_PCOM_STEREOSCOPIC_FORMAT@@U?$less@$$CBK@std@@V?$allocator@U?$pair@$$CBKW4_PCOM_STEREOSCOPIC_FORMAT@@@std@@@3@$0A@@std@@@2@@Z 1001e780 f i AMDPCOMMixerPresenter.obj
 0001:0001d780       ?_Lrotate@?$_Tree@V?$_Tmap_traits@$$CBKKU?$less@$$CBK@std@@V?$allocator@U?$pair@$$CBKK@std@@@2@$0A@@std@@@std@@IAEXPAU_Node@?$_Tree_nod@V?$_Tmap_traits@$$CBKKU?$less@$$CBK@std@@V?$allocator@U?$pair@$$CBKK@std@@@2@$0A@@std@@@2@@Z 1001e780 f i AMDPCOMMixerPresenter.obj
 0001:0001d780       ?_Lrotate@?$_Tree@V?$_Tmap_traits@PBUIDirect3DSurface9@@PAUNVDX_ObjectHandle__@@U?$less@PBUIDirect3DSurface9@@@std@@V?$allocator@U?$pair@QBUIDirect3DSurface9@@PAUNVDX_ObjectHandle__@@@std@@@4@$0A@@std@@@std@@IAEXPAU_Node@?$_Tree_nod@V?$_Tmap_traits@PBUIDirect3DSurface9@@PAUNVDX_ObjectHandle__@@U?$less@PBUIDirect3DSurface9@@@std@@V?$allocator@U?$pair@QBUIDirect3DSurface9@@PAUNVDX_ObjectHandle__@@@std@@@4@$0A@@std@@@2@@Z 1001e780 f i NvAPIPresenter.obj
 0001:0001d780       ?_Lrotate@?$_Tree@V?$_Tmap_traits@KKU?$less@K@std@@V?$allocator@U?$pair@$$CBKK@std@@@2@$0A@@std@@@std@@IAEXPAU_Node@?$_Tree_nod@V?$_Tmap_traits@KKU?$less@K@std@@V?$allocator@U?$pair@$$CBKK@std@@@2@$0A@@std@@@2@@Z 1001e780 f i IntelDxva2Device.obj
 0001:0001d7d0       ??Eiterator@?$_Tree@V?$_Tmap_traits@$$CBKKU?$less@$$CBK@std@@V?$allocator@U?$pair@$$CBKK@std@@@2@$0A@@std@@@std@@QAEAAV012@XZ 1001e7d0 f i AMDPCOMMixerPresenter.obj
 0001:0001d7d0       ??Econst_iterator@?$_Tree@V?$_Tmap_traits@$$CBKW4_PCOM_STEREOSCOPIC_FORMAT@@U?$less@$$CBK@std@@V?$allocator@U?$pair@$$CBKW4_PCOM_STEREOSCOPIC_FORMAT@@@std@@@3@$0A@@std@@@std@@QAEAAV012@XZ 1001e7d0 f i AMDPCOMMixerPresenter.obj
 0001:0001d7d0       ??Econst_iterator@?$_Tree@V?$_Tmap_traits@KKU?$less@K@std@@V?$allocator@U?$pair@$$CBKK@std@@@2@$0A@@std@@@std@@QAEAAV012@XZ 1001e7d0 f i IntelDxva2Device.obj
 0001:0001d7d0       ??Eiterator@?$_Tree@V?$_Tmap_traits@PBUIDirect3DSurface9@@PAUNVDX_ObjectHandle__@@U?$less@PBUIDirect3DSurface9@@@std@@V?$allocator@U?$pair@QBUIDirect3DSurface9@@PAUNVDX_ObjectHandle__@@@std@@@4@$0A@@std@@@std@@QAEAAV012@XZ 1001e7d0 f i NvAPIPresenter.obj
 0001:0001d7d0       ??Eiterator@?$_Tree@V?$_Tmap_traits@KKU?$less@K@std@@V?$allocator@U?$pair@$$CBKK@std@@@2@$0A@@std@@@std@@QAEAAV012@XZ 1001e7d0 f i IntelDxva2Device.obj
 0001:0001d7d0       ??Econst_iterator@?$_Tree@V?$_Tmap_traits@$$CBKKU?$less@$$CBK@std@@V?$allocator@U?$pair@$$CBKK@std@@@2@$0A@@std@@@std@@QAEAAV012@XZ 1001e7d0 f i AMDPCOMMixerPresenter.obj
 0001:0001d7d0       ??Eiterator@?$_Tree@V?$_Tmap_traits@$$CBKW4_PCOM_STEREOSCOPIC_FORMAT@@U?$less@$$CBK@std@@V?$allocator@U?$pair@$$CBKW4_PCOM_STEREOSCOPIC_FORMAT@@@std@@@3@$0A@@std@@@std@@QAEAAV012@XZ 1001e7d0 f i AMDPCOMMixerPresenter.obj
 0001:0001d7d0       ??Econst_iterator@?$_Tree@V?$_Tmap_traits@PBUIDirect3DSurface9@@PAUNVDX_ObjectHandle__@@U?$less@PBUIDirect3DSurface9@@@std@@V?$allocator@U?$pair@QBUIDirect3DSurface9@@PAUNVDX_ObjectHandle__@@@std@@@4@$0A@@std@@@std@@QAEAAV012@XZ 1001e7d0 f i NvAPIPresenter.obj
 0001:0001d7e0       ?clear@?$_Tree@V?$_Tmap_traits@$$CBKKU?$less@$$CBK@std@@V?$allocator@U?$pair@$$CBKK@std@@@2@$0A@@std@@@std@@QAEXXZ 1001e7e0 f i AMDPCOMMixerPresenter.obj
 0001:0001d7e0       ?clear@?$_Tree@V?$_Tmap_traits@PBUIDirect3DSurface9@@PAUNVDX_ObjectHandle__@@U?$less@PBUIDirect3DSurface9@@@std@@V?$allocator@U?$pair@QBUIDirect3DSurface9@@PAUNVDX_ObjectHandle__@@@std@@@4@$0A@@std@@@std@@QAEXXZ 1001e7e0 f i NvAPIPresenter.obj
 0001:0001d7e0       ?clear@?$_Tree@V?$_Tmap_traits@$$CBKW4_PCOM_STEREOSCOPIC_FORMAT@@U?$less@$$CBK@std@@V?$allocator@U?$pair@$$CBKW4_PCOM_STEREOSCOPIC_FORMAT@@@std@@@3@$0A@@std@@@std@@QAEXXZ 1001e7e0 f i AMDPCOMMixerPresenter.obj
 0001:0001d7e0       ?clear@?$_Tree@V?$_Tmap_traits@KKU?$less@K@std@@V?$allocator@U?$pair@$$CBKK@std@@@2@$0A@@std@@@std@@QAEXXZ 1001e7e0 f i IntelDxva2Device.obj
 0001:0001d810       ?_Rrotate@?$_Tree@V?$_Tmap_traits@KKU?$less@K@std@@V?$allocator@U?$pair@$$CBKK@std@@@2@$0A@@std@@@std@@IAEXPAU_Node@?$_Tree_nod@V?$_Tmap_traits@KKU?$less@K@std@@V?$allocator@U?$pair@$$CBKK@std@@@2@$0A@@std@@@2@@Z 1001e810 f i IntelDxva2Device.obj
 0001:0001d810       ?_Rrotate@?$_Tree@V?$_Tmap_traits@$$CBKKU?$less@$$CBK@std@@V?$allocator@U?$pair@$$CBKK@std@@@2@$0A@@std@@@std@@IAEXPAU_Node@?$_Tree_nod@V?$_Tmap_traits@$$CBKKU?$less@$$CBK@std@@V?$allocator@U?$pair@$$CBKK@std@@@2@$0A@@std@@@2@@Z 1001e810 f i AMDPCOMMixerPresenter.obj
 0001:0001d810       ?_Rrotate@?$_Tree@V?$_Tmap_traits@PBUIDirect3DSurface9@@PAUNVDX_ObjectHandle__@@U?$less@PBUIDirect3DSurface9@@@std@@V?$allocator@U?$pair@QBUIDirect3DSurface9@@PAUNVDX_ObjectHandle__@@@std@@@4@$0A@@std@@@std@@IAEXPAU_Node@?$_Tree_nod@V?$_Tmap_traits@PBUIDirect3DSurface9@@PAUNVDX_ObjectHandle__@@U?$less@PBUIDirect3DSurface9@@@std@@V?$allocator@U?$pair@QBUIDirect3DSurface9@@PAUNVDX_ObjectHandle__@@@std@@@4@$0A@@std@@@2@@Z 1001e810 f i NvAPIPresenter.obj
 0001:0001d810       ?_Rrotate@?$_Tree@V?$_Tmap_traits@$$CBKW4_PCOM_STEREOSCOPIC_FORMAT@@U?$less@$$CBK@std@@V?$allocator@U?$pair@$$CBKW4_PCOM_STEREOSCOPIC_FORMAT@@@std@@@3@$0A@@std@@@std@@IAEXPAU_Node@?$_Tree_nod@V?$_Tmap_traits@$$CBKW4_PCOM_STEREOSCOPIC_FORMAT@@U?$less@$$CBK@std@@V?$allocator@U?$pair@$$CBKW4_PCOM_STEREOSCOPIC_FORMAT@@@std@@@3@$0A@@std@@@2@@Z 1001e810 f i AMDPCOMMixerPresenter.obj
 0001:0001d860       ??Eiterator@?$_Tree@V?$_Tmap_traits@$$CBKW4_PCOM_STEREOSCOPIC_FORMAT@@U?$less@$$CBK@std@@V?$allocator@U?$pair@$$CBKW4_PCOM_STEREOSCOPIC_FORMAT@@@std@@@3@$0A@@std@@@std@@QAE?AV012@H@Z 1001e860 f i AMDPCOMMixerPresenter.obj
 0001:0001d860       ??Eiterator@?$_Tree@V?$_Tmap_traits@KKU?$less@K@std@@V?$allocator@U?$pair@$$CBKK@std@@@2@$0A@@std@@@std@@QAE?AV012@H@Z 1001e860 f i IntelDxva2Device.obj
 0001:0001d860       ??Eiterator@?$_Tree@V?$_Tmap_traits@$$CBKKU?$less@$$CBK@std@@V?$allocator@U?$pair@$$CBKK@std@@@2@$0A@@std@@@std@@QAE?AV012@H@Z 1001e860 f i AMDPCOMMixerPresenter.obj
 0001:0001d860       ??Eiterator@?$_Tree@V?$_Tmap_traits@PBUIDirect3DSurface9@@PAUNVDX_ObjectHandle__@@U?$less@PBUIDirect3DSurface9@@@std@@V?$allocator@U?$pair@QBUIDirect3DSurface9@@PAUNVDX_ObjectHandle__@@@std@@@4@$0A@@std@@@std@@QAE?AV012@H@Z 1001e860 f i NvAPIPresenter.obj
 0001:0001d880       ??Fiterator@?$_Tree@V?$_Tmap_traits@KKU?$less@K@std@@V?$allocator@U?$pair@$$CBKK@std@@@2@$0A@@std@@@std@@QAEAAV012@XZ 1001e880 f i IntelDxva2Device.obj
 0001:0001d880       ??Fiterator@?$_Tree@V?$_Tmap_traits@$$CBKW4_PCOM_STEREOSCOPIC_FORMAT@@U?$less@$$CBK@std@@V?$allocator@U?$pair@$$CBKW4_PCOM_STEREOSCOPIC_FORMAT@@@std@@@3@$0A@@std@@@std@@QAEAAV012@XZ 1001e880 f i AMDPCOMMixerPresenter.obj
 0001:0001d880       ??Fiterator@?$_Tree@V?$_Tmap_traits@$$CBKKU?$less@$$CBK@std@@V?$allocator@U?$pair@$$CBKK@std@@@2@$0A@@std@@@std@@QAEAAV012@XZ 1001e880 f i AMDPCOMMixerPresenter.obj
 0001:0001d880       ??Fconst_iterator@?$_Tree@V?$_Tmap_traits@KKU?$less@K@std@@V?$allocator@U?$pair@$$CBKK@std@@@2@$0A@@std@@@std@@QAEAAV012@XZ 1001e880 f i IntelDxva2Device.obj
 0001:0001d880       ??Fconst_iterator@?$_Tree@V?$_Tmap_traits@$$CBKKU?$less@$$CBK@std@@V?$allocator@U?$pair@$$CBKK@std@@@2@$0A@@std@@@std@@QAEAAV012@XZ 1001e880 f i AMDPCOMMixerPresenter.obj
 0001:0001d880       ??Fconst_iterator@?$_Tree@V?$_Tmap_traits@$$CBKW4_PCOM_STEREOSCOPIC_FORMAT@@U?$less@$$CBK@std@@V?$allocator@U?$pair@$$CBKW4_PCOM_STEREOSCOPIC_FORMAT@@@std@@@3@$0A@@std@@@std@@QAEAAV012@XZ 1001e880 f i AMDPCOMMixerPresenter.obj
 0001:0001d880       ??Fconst_iterator@?$_Tree@V?$_Tmap_traits@PBUIDirect3DSurface9@@PAUNVDX_ObjectHandle__@@U?$less@PBUIDirect3DSurface9@@@std@@V?$allocator@U?$pair@QBUIDirect3DSurface9@@PAUNVDX_ObjectHandle__@@@std@@@4@$0A@@std@@@std@@QAEAAV012@XZ 1001e880 f i NvAPIPresenter.obj
 0001:0001d880       ??Fiterator@?$_Tree@V?$_Tmap_traits@PBUIDirect3DSurface9@@PAUNVDX_ObjectHandle__@@U?$less@PBUIDirect3DSurface9@@@std@@V?$allocator@U?$pair@QBUIDirect3DSurface9@@PAUNVDX_ObjectHandle__@@@std@@@4@$0A@@std@@@std@@QAEAAV012@XZ 1001e880 f i NvAPIPresenter.obj
 0001:0001d890       ?allocate@?$allocator@U_Node@?$_Tree_nod@V?$_Tmap_traits@KKU?$less@K@std@@V?$allocator@U?$pair@$$CBKK@std@@@2@$0A@@std@@@std@@@std@@QAEPAU_Node@?$_Tree_nod@V?$_Tmap_traits@KKU?$less@K@std@@V?$allocator@U?$pair@$$CBKK@std@@@2@$0A@@std@@@2@I@Z 1001e890 f i IntelDxva2Device.obj
 0001:0001d890       ?allocate@?$allocator@U_Node@?$_Tree_nod@V?$_Tmap_traits@PBUIDirect3DSurface9@@PAUNVDX_ObjectHandle__@@U?$less@PBUIDirect3DSurface9@@@std@@V?$allocator@U?$pair@QBUIDirect3DSurface9@@PAUNVDX_ObjectHandle__@@@std@@@4@$0A@@std@@@std@@@std@@QAEPAU_Node@?$_Tree_nod@V?$_Tmap_traits@PBUIDirect3DSurface9@@PAUNVDX_ObjectHandle__@@U?$less@PBUIDirect3DSurface9@@@std@@V?$allocator@U?$pair@QBUIDirect3DSurface9@@PAUNVDX_ObjectHandle__@@@std@@@4@$0A@@std@@@2@I@Z 1001e890 f i NvAPIPresenter.obj
 0001:0001d890       ?allocate@?$allocator@U_Node@?$_Tree_nod@V?$_Tmap_traits@$$CBKKU?$less@$$CBK@std@@V?$allocator@U?$pair@$$CBKK@std@@@2@$0A@@std@@@std@@@std@@QAEPAU_Node@?$_Tree_nod@V?$_Tmap_traits@$$CBKKU?$less@$$CBK@std@@V?$allocator@U?$pair@$$CBKK@std@@@2@$0A@@std@@@2@I@Z 1001e890 f i AMDPCOMMixerPresenter.obj
 0001:0001d890       ?allocate@?$allocator@U_Node@?$_Tree_nod@V?$_Tmap_traits@$$CBKW4_PCOM_STEREOSCOPIC_FORMAT@@U?$less@$$CBK@std@@V?$allocator@U?$pair@$$CBKW4_PCOM_STEREOSCOPIC_FORMAT@@@std@@@3@$0A@@std@@@std@@@std@@QAEPAU_Node@?$_Tree_nod@V?$_Tmap_traits@$$CBKW4_PCOM_STEREOSCOPIC_FORMAT@@U?$less@$$CBK@std@@V?$allocator@U?$pair@$$CBKW4_PCOM_STEREOSCOPIC_FORMAT@@@std@@@3@$0A@@std@@@2@I@Z 1001e890 f i AMDPCOMMixerPresenter.obj
 0001:0001d8a0       ?_Inc@const_iterator@?$_Tree@V?$_Tmap_traits@PBUIDirect3DSurface9@@PAUNVDX_ObjectHandle__@@U?$less@PBUIDirect3DSurface9@@@std@@V?$allocator@U?$pair@QBUIDirect3DSurface9@@PAUNVDX_ObjectHandle__@@@std@@@4@$0A@@std@@@std@@QAEXXZ 1001e8a0 f i NvAPIPresenter.obj
 0001:0001d8a0       ?_Inc@const_iterator@?$_Tree@V?$_Tmap_traits@$$CBKKU?$less@$$CBK@std@@V?$allocator@U?$pair@$$CBKK@std@@@2@$0A@@std@@@std@@QAEXXZ 1001e8a0 f i AMDPCOMMixerPresenter.obj
 0001:0001d8a0       ?_Inc@const_iterator@?$_Tree@V?$_Tmap_traits@$$CBKW4_PCOM_STEREOSCOPIC_FORMAT@@U?$less@$$CBK@std@@V?$allocator@U?$pair@$$CBKW4_PCOM_STEREOSCOPIC_FORMAT@@@std@@@3@$0A@@std@@@std@@QAEXXZ 1001e8a0 f i AMDPCOMMixerPresenter.obj
 0001:0001d8a0       ?_Inc@const_iterator@?$_Tree@V?$_Tmap_traits@KKU?$less@K@std@@V?$allocator@U?$pair@$$CBKK@std@@@2@$0A@@std@@@std@@QAEXXZ 1001e8a0 f i IntelDxva2Device.obj
 0001:0001d910       ?_Erase@?$_Tree@V?$_Tmap_traits@$$CBKKU?$less@$$CBK@std@@V?$allocator@U?$pair@$$CBKK@std@@@2@$0A@@std@@@std@@IAEXPAU_Node@?$_Tree_nod@V?$_Tmap_traits@$$CBKKU?$less@$$CBK@std@@V?$allocator@U?$pair@$$CBKK@std@@@2@$0A@@std@@@2@@Z 1001e910 f i AMDPCOMMixerPresenter.obj
 0001:0001d910       ?_Erase@?$_Tree@V?$_Tmap_traits@$$CBKW4_PCOM_STEREOSCOPIC_FORMAT@@U?$less@$$CBK@std@@V?$allocator@U?$pair@$$CBKW4_PCOM_STEREOSCOPIC_FORMAT@@@std@@@3@$0A@@std@@@std@@IAEXPAU_Node@?$_Tree_nod@V?$_Tmap_traits@$$CBKW4_PCOM_STEREOSCOPIC_FORMAT@@U?$less@$$CBK@std@@V?$allocator@U?$pair@$$CBKW4_PCOM_STEREOSCOPIC_FORMAT@@@std@@@3@$0A@@std@@@2@@Z 1001e910 f i AMDPCOMMixerPresenter.obj
 0001:0001d910       ?_Erase@?$_Tree@V?$_Tmap_traits@PBUIDirect3DSurface9@@PAUNVDX_ObjectHandle__@@U?$less@PBUIDirect3DSurface9@@@std@@V?$allocator@U?$pair@QBUIDirect3DSurface9@@PAUNVDX_ObjectHandle__@@@std@@@4@$0A@@std@@@std@@IAEXPAU_Node@?$_Tree_nod@V?$_Tmap_traits@PBUIDirect3DSurface9@@PAUNVDX_ObjectHandle__@@U?$less@PBUIDirect3DSurface9@@@std@@V?$allocator@U?$pair@QBUIDirect3DSurface9@@PAUNVDX_ObjectHandle__@@@std@@@4@$0A@@std@@@2@@Z 1001e910 f i NvAPIPresenter.obj
 0001:0001d910       ?_Erase@?$_Tree@V?$_Tmap_traits@KKU?$less@K@std@@V?$allocator@U?$pair@$$CBKK@std@@@2@$0A@@std@@@std@@IAEXPAU_Node@?$_Tree_nod@V?$_Tmap_traits@KKU?$less@K@std@@V?$allocator@U?$pair@$$CBKK@std@@@2@$0A@@std@@@2@@Z 1001e910 f i IntelDxva2Device.obj
 0001:0001d950       ?_Min@?$_Tree@V?$_Tmap_traits@KKU?$less@K@std@@V?$allocator@U?$pair@$$CBKK@std@@@2@$0A@@std@@@std@@KAPAU_Node@?$_Tree_nod@V?$_Tmap_traits@KKU?$less@K@std@@V?$allocator@U?$pair@$$CBKK@std@@@2@$0A@@std@@@2@PAU342@@Z 1001e950 f i IntelDxva2Device.obj
 0001:0001d950       ?_Min@?$_Tree@V?$_Tmap_traits@$$CBKKU?$less@$$CBK@std@@V?$allocator@U?$pair@$$CBKK@std@@@2@$0A@@std@@@std@@KAPAU_Node@?$_Tree_nod@V?$_Tmap_traits@$$CBKKU?$less@$$CBK@std@@V?$allocator@U?$pair@$$CBKK@std@@@2@$0A@@std@@@2@PAU342@@Z 1001e950 f i AMDPCOMMixerPresenter.obj
 0001:0001d950       ?_Min@?$_Tree@V?$_Tmap_traits@$$CBKW4_PCOM_STEREOSCOPIC_FORMAT@@U?$less@$$CBK@std@@V?$allocator@U?$pair@$$CBKW4_PCOM_STEREOSCOPIC_FORMAT@@@std@@@3@$0A@@std@@@std@@KAPAU_Node@?$_Tree_nod@V?$_Tmap_traits@$$CBKW4_PCOM_STEREOSCOPIC_FORMAT@@U?$less@$$CBK@std@@V?$allocator@U?$pair@$$CBKW4_PCOM_STEREOSCOPIC_FORMAT@@@std@@@3@$0A@@std@@@2@PAU342@@Z 1001e950 f i AMDPCOMMixerPresenter.obj
 0001:0001d950       ?_Min@?$_Tree@V?$_Tmap_traits@PBUIDirect3DSurface9@@PAUNVDX_ObjectHandle__@@U?$less@PBUIDirect3DSurface9@@@std@@V?$allocator@U?$pair@QBUIDirect3DSurface9@@PAUNVDX_ObjectHandle__@@@std@@@4@$0A@@std@@@std@@KAPAU_Node@?$_Tree_nod@V?$_Tmap_traits@PBUIDirect3DSurface9@@PAUNVDX_ObjectHandle__@@U?$less@PBUIDirect3DSurface9@@@std@@V?$allocator@U?$pair@QBUIDirect3DSurface9@@PAUNVDX_ObjectHandle__@@@std@@@4@$0A@@std@@@2@PAU342@@Z 1001e950 f i NvAPIPresenter.obj
 0001:0001d970       ?_Dec@const_iterator@?$_Tree@V?$_Tmap_traits@PBUIDirect3DSurface9@@PAUNVDX_ObjectHandle__@@U?$less@PBUIDirect3DSurface9@@@std@@V?$allocator@U?$pair@QBUIDirect3DSurface9@@PAUNVDX_ObjectHandle__@@@std@@@4@$0A@@std@@@std@@QAEXXZ 1001e970 f i NvAPIPresenter.obj
 0001:0001d970       ?_Dec@const_iterator@?$_Tree@V?$_Tmap_traits@KKU?$less@K@std@@V?$allocator@U?$pair@$$CBKK@std@@@2@$0A@@std@@@std@@QAEXXZ 1001e970 f i IntelDxva2Device.obj
 0001:0001d970       ?_Dec@const_iterator@?$_Tree@V?$_Tmap_traits@$$CBKW4_PCOM_STEREOSCOPIC_FORMAT@@U?$less@$$CBK@std@@V?$allocator@U?$pair@$$CBKW4_PCOM_STEREOSCOPIC_FORMAT@@@std@@@3@$0A@@std@@@std@@QAEXXZ 1001e970 f i AMDPCOMMixerPresenter.obj
 0001:0001d970       ?_Dec@const_iterator@?$_Tree@V?$_Tmap_traits@$$CBKKU?$less@$$CBK@std@@V?$allocator@U?$pair@$$CBKK@std@@@2@$0A@@std@@@std@@QAEXXZ 1001e970 f i AMDPCOMMixerPresenter.obj
 0001:0001da00       ??0_Node@?$_Tree_nod@V?$_Tmap_traits@$$CBKKU?$less@$$CBK@std@@V?$allocator@U?$pair@$$CBKK@std@@@2@$0A@@std@@@std@@QAE@PAU012@00ABU?$pair@$$CBKK@2@D@Z 1001ea00 f i AMDPCOMMixerPresenter.obj
 0001:0001da00       ??0_Node@?$_Tree_nod@V?$_Tmap_traits@$$CBKW4_PCOM_STEREOSCOPIC_FORMAT@@U?$less@$$CBK@std@@V?$allocator@U?$pair@$$CBKW4_PCOM_STEREOSCOPIC_FORMAT@@@std@@@3@$0A@@std@@@std@@QAE@PAU012@00ABU?$pair@$$CBKW4_PCOM_STEREOSCOPIC_FORMAT@@@2@D@Z 1001ea00 f i AMDPCOMMixerPresenter.obj
 0001:0001da00       ??0_Node@?$_Tree_nod@V?$_Tmap_traits@PBUIDirect3DSurface9@@PAUNVDX_ObjectHandle__@@U?$less@PBUIDirect3DSurface9@@@std@@V?$allocator@U?$pair@QBUIDirect3DSurface9@@PAUNVDX_ObjectHandle__@@@std@@@4@$0A@@std@@@std@@QAE@PAU012@00ABU?$pair@QBUIDirect3DSurface9@@PAUNVDX_ObjectHandle__@@@2@D@Z 1001ea00 f i NvAPIPresenter.obj
 0001:0001da00       ??0_Node@?$_Tree_nod@V?$_Tmap_traits@KKU?$less@K@std@@V?$allocator@U?$pair@$$CBKK@std@@@2@$0A@@std@@@std@@QAE@PAU012@00ABU?$pair@$$CBKK@2@D@Z 1001ea00 f i IntelDxva2Device.obj
 0001:0001da30       ??$_Allocate@U_Node@?$_List_nod@UVideoProcessorStub@DispSvr@@V?$allocator@UVideoProcessorStub@DispSvr@@@std@@@std@@@std@@YAPAU_Node@?$_List_nod@UVideoProcessorStub@DispSvr@@V?$allocator@UVideoProcessorStub@DispSvr@@@std@@@0@IPAU120@@Z 1001ea30 f i AMDPCOMMixerPresenter.obj
 0001:0001da90       ??$_Allocate@U_Node@?$_Tree_nod@V?$_Tmap_traits@$$CBKW4_PCOM_STEREOSCOPIC_FORMAT@@U?$less@$$CBK@std@@V?$allocator@U?$pair@$$CBKW4_PCOM_STEREOSCOPIC_FORMAT@@@std@@@3@$0A@@std@@@std@@@std@@YAPAU_Node@?$_Tree_nod@V?$_Tmap_traits@$$CBKW4_PCOM_STEREOSCOPIC_FORMAT@@U?$less@$$CBK@std@@V?$allocator@U?$pair@$$CBKW4_PCOM_STEREOSCOPIC_FORMAT@@@std@@@3@$0A@@std@@@0@IPAU120@@Z 1001ea90 f i AMDPCOMMixerPresenter.obj
 0001:0001da90       ??$_Allocate@U_Node@?$_Tree_nod@V?$_Tmap_traits@PBUIDirect3DSurface9@@PAUNVDX_ObjectHandle__@@U?$less@PBUIDirect3DSurface9@@@std@@V?$allocator@U?$pair@QBUIDirect3DSurface9@@PAUNVDX_ObjectHandle__@@@std@@@4@$0A@@std@@@std@@@std@@YAPAU_Node@?$_Tree_nod@V?$_Tmap_traits@PBUIDirect3DSurface9@@PAUNVDX_ObjectHandle__@@U?$less@PBUIDirect3DSurface9@@@std@@V?$allocator@U?$pair@QBUIDirect3DSurface9@@PAUNVDX_ObjectHandle__@@@std@@@4@$0A@@std@@@0@IPAU120@@Z 1001ea90 f i NvAPIPresenter.obj
 0001:0001da90       ??$_Allocate@U_Node@?$_Tree_nod@V?$_Tmap_traits@KKU?$less@K@std@@V?$allocator@U?$pair@$$CBKK@std@@@2@$0A@@std@@@std@@@std@@YAPAU_Node@?$_Tree_nod@V?$_Tmap_traits@KKU?$less@K@std@@V?$allocator@U?$pair@$$CBKK@std@@@2@$0A@@std@@@0@IPAU120@@Z 1001ea90 f i IntelDxva2Device.obj
 0001:0001da90       ??$_Allocate@U_Node@?$_Tree_nod@V?$_Tmap_traits@$$CBKKU?$less@$$CBK@std@@V?$allocator@U?$pair@$$CBKK@std@@@2@$0A@@std@@@std@@@std@@YAPAU_Node@?$_Tree_nod@V?$_Tmap_traits@$$CBKKU?$less@$$CBK@std@@V?$allocator@U?$pair@$$CBKK@std@@@2@$0A@@std@@@0@IPAU120@@Z 1001ea90 f i AMDPCOMMixerPresenter.obj
 0001:0001daf0       ?AddRef@CAMDPCOMMixerPresenter@DispSvr@@$4PPPPPPPM@BNI@AGKXZ 1001eaf0 f i AMDPCOMMixerPresenter.obj
 0001:0001db10       ?SetProperty@CAMDPCOMMixerPresenter@DispSvr@@$0PPPPPPPM@A@AGJPBUMixerProperty@2@@Z 1001eb10 f i AMDPCOMMixerPresenter.obj
 0001:0001db20       ?Present@CAMDPCOMMixerPresenter@DispSvr@@$4PPPPPPPM@A@AGJPBUPresentHints@2@@Z 1001eb20 f i AMDPCOMMixerPresenter.obj
 0001:0001db30       ?Release@CAMDPCOMMixerPresenter@DispSvr@@$4PPPPPPPM@BMI@AGKXZ 1001eb30 f i AMDPCOMMixerPresenter.obj
 0001:0001db50       ?SetFilterValue@CD3D9VideoMixerBase@DispSvr@@$R2EIA@CE@PPPPPPPM@CBE@AGJW4VIDEO_FILTER@2@M@Z 1001eb50 f i AMDPCOMMixerPresenter.obj
 0001:0001db70       ?SetProperty@CD3D9VideoPresenterBase@DispSvr@@$R4COM@M@PPPPPPPM@BLE@AGJPBUPresenterProperty@2@@Z 1001eb70 f i AMDPCOMMixerPresenter.obj
 0001:0001db90       ?OnDestroyPlane@CD3D9VideoMixerBase@DispSvr@@$R2EJI@CE@PPPPPPPM@CCM@AGXH@Z 1001eb90 f i AMDPCOMMixerPresenter.obj
 0001:0001dbb0       ?QueryInterface@CAMDPCOMMixerPresenter@DispSvr@@$4PPPPPPPM@BNA@AGJABU_GUID@@PAPAX@Z 1001ebb0 f i AMDPCOMMixerPresenter.obj
 0001:0001dbd0       ?QueryInterface@CAMDPCOMMixerPresenter@DispSvr@@$4PPPPPPPM@A@AGJABU_GUID@@PAPAX@Z 1001ebd0 f i AMDPCOMMixerPresenter.obj
 0001:0001dbe0       ?AddRef@CAMDPCOMMixerPresenter@DispSvr@@$4PPPPPPPM@CM@AGKXZ 1001ebe0 f i AMDPCOMMixerPresenter.obj
 0001:0001dc00       ?_SetDevice@CAMDPCOMMixerPresenter@DispSvr@@$0PPPPPPPM@A@AGJPAUIUnknown@@@Z 1001ec00 f i AMDPCOMMixerPresenter.obj
 0001:0001dc10       ?_QueryPlaneCaps@CAMDPCOMMixerPresenter@DispSvr@@$0PPPPPPPM@A@AGJHW4PLANE_FORMAT@2@PAUPlaneCaps@2@@Z 1001ec10 f i AMDPCOMMixerPresenter.obj
 0001:0001dc20       ?GetVideoProcessorMode@CD3D9VideoMixerBase@DispSvr@@$R2EIA@CE@PPPPPPPM@CBE@AGJPAU_GUID@@@Z 1001ec20 f i AMDPCOMMixerPresenter.obj
 0001:0001dc40       ?AddRef@CAMDPCOMMixerPresenter@DispSvr@@$4PPPPPPPM@BMA@AGKXZ 1001ec40 f i AMDPCOMMixerPresenter.obj
 0001:0001dc60       ?SetBackgroundColor@CD3D9VideoMixerBase@DispSvr@@$R2EHI@CE@PPPPPPPM@CAM@AGJK@Z 1001ec60 f i AMDPCOMMixerPresenter.obj
 0001:0001dc80       ?CreatePlane@CD3D9VideoMixerBase@DispSvr@@$R2EHI@CE@PPPPPPPM@CAM@AGJPAUPlaneInit@2@ABU_GUID@@PAPAX@Z 1001ec80 f i AMDPCOMMixerPresenter.obj
 0001:0001dca0       ?SetColorKey@CAMDPCOMMixerPresenter@DispSvr@@$4PPPPPPPM@A@AGJK@Z 1001eca0 f i AMDPCOMMixerPresenter.obj
 0001:0001dcb0       ?GetAvailableVideoProcessorModes@CD3D9VideoMixerBase@DispSvr@@$R2EIA@CE@PPPPPPPM@CBE@AGJPAU_GUID@@@Z 1001ecb0 f i AMDPCOMMixerPresenter.obj
 0001:0001dcd0       ?GetProperty@CD3D9VideoMixerBase@DispSvr@@$R2EHI@CE@PPPPPPPM@CAM@AGJPAUMixerProperty@2@@Z 1001ecd0 f i AMDPCOMMixerPresenter.obj
 0001:0001dcf0       ?EndRender@CD3D9VideoPresenterBase@DispSvr@@$R4COM@M@PPPPPPPM@BLE@AGJXZ 1001ecf0 f i AMDPCOMMixerPresenter.obj
 0001:0001dd10       ?Release@CAMDPCOMMixerPresenter@DispSvr@@$4PPPPPPPM@BNA@AGKXZ 1001ed10 f i AMDPCOMMixerPresenter.obj
 0001:0001dd30       ?QueryInterface@CAMDPCOMMixerPresenter@DispSvr@@$4PPPPPPPM@BLI@AGJABU_GUID@@PAPAX@Z 1001ed30 f i AMDPCOMMixerPresenter.obj
 0001:0001dd50       ?QueryInterface@CAMDPCOMMixerPresenter@DispSvr@@$4PPPPPPPM@BNI@AGJABU_GUID@@PAPAX@Z 1001ed50 f i AMDPCOMMixerPresenter.obj
 0001:0001dd70       ?GetFilterValue@CD3D9VideoMixerBase@DispSvr@@$R2EIA@CE@PPPPPPPM@CBE@AGJW4VIDEO_FILTER@2@PAM@Z 1001ed70 f i AMDPCOMMixerPresenter.obj
 0001:0001dd90       ?QueryCaps@CD3D9VideoMixerBase@DispSvr@@$R2EHI@CE@PPPPPPPM@CAM@AGJPAUMixerCaps@2@@Z 1001ed90 f i AMDPCOMMixerPresenter.obj
 0001:0001ddb0       ?Release@CAMDPCOMMixerPresenter@DispSvr@@$4PPPPPPPM@A@AGKXZ 1001edb0 f i AMDPCOMMixerPresenter.obj
 0001:0001ddc0       ?OnCreatePlane@CD3D9VideoMixerBase@DispSvr@@$R2EJI@CE@PPPPPPPM@CCM@AGJABUPlaneInit@2@@Z 1001edc0 f i AMDPCOMMixerPresenter.obj
 0001:0001dde0       ?GetVideoEffectManager@CD3D9VideoMixerBase@DispSvr@@$R2EII@CE@PPPPPPPM@CBM@AGJPAPAUIUnknown@@@Z 1001ede0 f i AMDPCOMMixerPresenter.obj
 0001:0001de00       ?SetVideoEffectManager@CD3D9VideoMixerBase@DispSvr@@$R2EII@CE@PPPPPPPM@CBM@AGJPAUIUnknown@@@Z 1001ee00 f i AMDPCOMMixerPresenter.obj
 0001:0001de20       ?GetAvailableVideoProcessorModeCount@CD3D9VideoMixerBase@DispSvr@@$R2EIA@CE@PPPPPPPM@CBE@AGJPAI@Z 1001ee20 f i AMDPCOMMixerPresenter.obj
 0001:0001de40       ?AddRef@CAMDPCOMMixerPresenter@DispSvr@@$4PPPPPPPM@BMI@AGKXZ 1001ee40 f i AMDPCOMMixerPresenter.obj
 0001:0001de60       ?SetScreenCaptureDefense@CAMDPCOMMixerPresenter@DispSvr@@$4PPPPPPPM@A@AGJH@Z 1001ee60 f i AMDPCOMMixerPresenter.obj
 0001:0001de70       ?QueryCaps@CD3D9VideoPresenterBase@DispSvr@@$R4COM@M@PPPPPPPM@BLE@AGJPAUPresenterCaps@2@@Z 1001ee70 f i AMDPCOMMixerPresenter.obj
 0001:0001de90       ??_ECAMDPCOMMixerPresenter@DispSvr@@$4PPPPPPPM@A@AEPAXI@Z 1001ee90 f i AMDPCOMMixerPresenter.obj
 0001:0001dea0       ?_Execute@CAMDPCOMMixerPresenter@DispSvr@@$0PPPPPPPM@A@AGJPAUIDirect3DSurface9@@ABUtagRECT@@1@Z 1001eea0 f i AMDPCOMMixerPresenter.obj
 0001:0001deb0       ?OnVideoPositionChange@CD3D9VideoMixerBase@DispSvr@@$R2EJI@CE@PPPPPPPM@CCM@AGXXZ 1001eeb0 f i AMDPCOMMixerPresenter.obj
 0001:0001ded0       ?OnNotify@CD3D9VideoMixerBase@DispSvr@@$R2EJA@CE@PPPPPPPM@CCE@AGJKABU_GUID@@W4XVE_EVENT_TYPE@XVE@@K@Z 1001eed0 f i AMDPCOMMixerPresenter.obj
 0001:0001def0       ?Execute@CD3D9VideoMixerBase@DispSvr@@$R2EHI@CE@PPPPPPPM@CAM@AGJXZ 1001eef0 f i AMDPCOMMixerPresenter.obj
 0001:0001df10       ?SetDisplayRect@CAMDPCOMMixerPresenter@DispSvr@@$4PPPPPPPM@A@AGJPBUtagRECT@@0@Z 1001ef10 f i AMDPCOMMixerPresenter.obj
 0001:0001df20       ?GetLumaKey@CD3D9VideoMixerBase@DispSvr@@$R2EHI@CE@PPPPPPPM@CAM@AGJPAULumaKey@2@@Z 1001ef20 f i AMDPCOMMixerPresenter.obj
 0001:0001df40       ?Release@CAMDPCOMMixerPresenter@DispSvr@@$4PPPPPPPM@BLI@AGKXZ 1001ef40 f i AMDPCOMMixerPresenter.obj
 0001:0001df60       ?QueryInterface@CAMDPCOMMixerPresenter@DispSvr@@$4PPPPPPPM@CM@AGJABU_GUID@@PAPAX@Z 1001ef60 f i AMDPCOMMixerPresenter.obj
 0001:0001df80       ?Release@CAMDPCOMMixerPresenter@DispSvr@@$4PPPPPPPM@BNI@AGKXZ 1001ef80 f i AMDPCOMMixerPresenter.obj
 0001:0001dfa0       ?GetVideoProcessorCaps@CD3D9VideoMixerBase@DispSvr@@$R2EIA@CE@PPPPPPPM@CBE@AGJPBU_GUID@@PAUVideoProcessorCaps@2@@Z 1001efa0 f i AMDPCOMMixerPresenter.obj
 0001:0001dfc0       ?QueryInterface@CAMDPCOMMixerPresenter@DispSvr@@$4PPPPPPPM@BMA@AGJABU_GUID@@PAPAX@Z 1001efc0 f i AMDPCOMMixerPresenter.obj
 0001:0001dfe0       ?SetClearRectangles@CD3D9VideoMixerBase@DispSvr@@$R2EHI@CE@PPPPPPPM@CAM@AGJIPAUClearRect@2@@Z 1001efe0 f i AMDPCOMMixerPresenter.obj
 0001:0001e000       ?Clear@CAMDPCOMMixerPresenter@DispSvr@@$4PPPPPPPM@A@AGJXZ 1001f000 f i AMDPCOMMixerPresenter.obj
 0001:0001e010       ?GetProperty@CD3D9VideoPresenterBase@DispSvr@@$R4COM@M@PPPPPPPM@BLE@AGJPAUPresenterProperty@2@@Z 1001f010 f i AMDPCOMMixerPresenter.obj
 0001:0001e030       ?SetLumaKey@CD3D9VideoMixerBase@DispSvr@@$R2EHI@CE@PPPPPPPM@CAM@AGJPBULumaKey@2@@Z 1001f030 f i AMDPCOMMixerPresenter.obj
 0001:0001e050       ?BeginRender@CD3D9VideoPresenterBase@DispSvr@@$R4COM@M@PPPPPPPM@BLE@AGJXZ 1001f050 f i AMDPCOMMixerPresenter.obj
 0001:0001e070       ?AddRef@CAMDPCOMMixerPresenter@DispSvr@@$4PPPPPPPM@BNA@AGKXZ 1001f070 f i AMDPCOMMixerPresenter.obj
 0001:0001e090       ?QueryPlaneFormat@CD3D9VideoMixerBase@DispSvr@@$R2EHI@CE@PPPPPPPM@CAM@AGJHPAW4PLANE_FORMAT@2@@Z 1001f090 f i AMDPCOMMixerPresenter.obj
 0001:0001e0b0       ?AddRef@CAMDPCOMMixerPresenter@DispSvr@@$4PPPPPPPM@A@AGKXZ 1001f0b0 f i AMDPCOMMixerPresenter.obj
 0001:0001e0c0       ?GetFilterValueRange@CD3D9VideoMixerBase@DispSvr@@$R2EIA@CE@PPPPPPPM@CBE@AGJW4VIDEO_FILTER@2@PAUValueRange@2@@Z 1001f0c0 f i AMDPCOMMixerPresenter.obj
 0001:0001e0e0       ?Release@CAMDPCOMMixerPresenter@DispSvr@@$4PPPPPPPM@CM@AGKXZ 1001f0e0 f i AMDPCOMMixerPresenter.obj
 0001:0001e100       ?_ReleaseDevice@CAMDPCOMMixerPresenter@DispSvr@@$0PPPPPPPM@A@AGJXZ 1001f100 f i AMDPCOMMixerPresenter.obj
 0001:0001e110       ?SetVideoProcessorMode@CD3D9VideoMixerBase@DispSvr@@$R2EIA@CE@PPPPPPPM@CBE@AGJPBU_GUID@@@Z 1001f110 f i AMDPCOMMixerPresenter.obj
 0001:0001e130       ?Release@CAMDPCOMMixerPresenter@DispSvr@@$4PPPPPPPM@BMA@AGKXZ 1001f130 f i AMDPCOMMixerPresenter.obj
 0001:0001e150       ?GetBackgroundColor@CD3D9VideoMixerBase@DispSvr@@$R2EHI@CE@PPPPPPPM@CAM@AGJPAK@Z 1001f150 f i AMDPCOMMixerPresenter.obj
 0001:0001e170       ?QueryInterface@CAMDPCOMMixerPresenter@DispSvr@@$4PPPPPPPM@BMI@AGJABU_GUID@@PAPAX@Z 1001f170 f i AMDPCOMMixerPresenter.obj
 0001:0001e190       ?QueryPlaneCaps@CD3D9VideoMixerBase@DispSvr@@$R2EHI@CE@PPPPPPPM@CAM@AGJHW4PLANE_FORMAT@2@PAUPlaneCaps@2@@Z 1001f190 f i AMDPCOMMixerPresenter.obj
 0001:0001e1b0       ?QueryPlaneFormatCount@CD3D9VideoMixerBase@DispSvr@@$R2EHI@CE@PPPPPPPM@CAM@AGJHPAI@Z 1001f1b0 f i AMDPCOMMixerPresenter.obj
 0001:0001e1d0       ?SetGamutMetadata@CAMDPCOMMixerPresenter@DispSvr@@$4PPPPPPPM@A@AGJKPAX@Z 1001f1d0 f i AMDPCOMMixerPresenter.obj
 0001:0001e1e0       ?GetPlaneConfig@CD3D9VideoMixerBase@DispSvr@@$R2EJI@CE@PPPPPPPM@CCM@AEABUD3D9PlaneConfig@2@H@Z 1001f1e0 f i AMDPCOMMixerPresenter.obj
 0001:0001e200       ?SetDestination@CD3D9VideoMixerBase@DispSvr@@$R2EHI@CE@PPPPPPPM@CAM@AGJPAUIUnknown@@PBU_NORMALIZEDRECT@@@Z 1001f200 f i AMDPCOMMixerPresenter.obj
 0001:0001e220       ?GetColorKey@CD3D9VideoPresenterBase@DispSvr@@$R4COM@M@PPPPPPPM@BLE@AGJPAK@Z 1001f220 f i AMDPCOMMixerPresenter.obj
 0001:0001e240       ?ProcessMessage@CAMDPCOMMixerPresenter@DispSvr@@$4PPPPPPPM@A@AGJW4RESOURCE_MESSAGE_TYPE@@PAX@Z 1001f240 f i AMDPCOMMixerPresenter.obj
 0001:0001e250       ?AddRef@CAMDPCOMMixerPresenter@DispSvr@@$4PPPPPPPM@BLI@AGKXZ 1001f250 f i AMDPCOMMixerPresenter.obj
 0001:0001e370       _ceilf                     1001f370 f i AMDPCOMMixerPresenter.obj
 0001:0001e370       ?ceil@@YAMM@Z              1001f370 f i AMDPCOMMixerPresenter.obj
 0001:0001e3a0       ?GetMaxInputStream@CDXVAHDVP@DispSvr@@QBEIXZ 1001f3a0 f i D3D9Dxva2HDVideoMixer.obj
 0001:0001e3b0       ?IsNativeDXVAHD@CDXVAHDVP@DispSvr@@QBE_NXZ 1001f3b0 f i D3D9Dxva2HDVideoMixer.obj
 0001:0001e3c0       ?AddRef@CD3D9VideoMixerBase@DispSvr@@UAGKXZ 1001f3c0 f i D3D9Dxva2HDVideoMixer.obj
 0001:0001e3e0       ?Release@CD3D9VideoMixerBase@DispSvr@@UAGKXZ 1001f3e0 f i D3D9Dxva2HDVideoMixer.obj
 0001:0001e400       ??0CD3D9Dxva2HDVideoMixer@DispSvr@@QAE@XZ 1001f400 f   D3D9Dxva2HDVideoMixer.obj
 0001:0001e540       ??_ECD3D9Dxva2HDVideoMixer@DispSvr@@UAEPAXI@Z 1001f540 f i  CIL library: CIL module
 0001:0001e540       ??_GCD3D9Dxva2HDVideoMixer@DispSvr@@UAEPAXI@Z 1001f540 f i D3D9Dxva2HDVideoMixer.obj
 0001:0001e570       ??_DCD3D9Dxva2HDVideoMixer@DispSvr@@QAEXXZ 1001f570 f i D3D9Dxva2HDVideoMixer.obj
 0001:0001e580       ??1CD3D9Dxva2HDVideoMixer@DispSvr@@UAE@XZ 1001f580 f   D3D9Dxva2HDVideoMixer.obj
 0001:0001e690       ?_SetDevice@CD3D9Dxva2HDVideoMixer@DispSvr@@MAGJPAUIUnknown@@@Z 1001f690 f   D3D9Dxva2HDVideoMixer.obj
 0001:0001e870       ?_ReleaseDevice@CD3D9Dxva2HDVideoMixer@DispSvr@@MAGJXZ 1001f870 f   D3D9Dxva2HDVideoMixer.obj
 0001:0001e8b0       ?_QueryPlaneCaps@CD3D9Dxva2HDVideoMixer@DispSvr@@MAGJHW4PLANE_FORMAT@2@PAUPlaneCaps@2@@Z 1001f8b0 f   D3D9Dxva2HDVideoMixer.obj
 0001:0001e8c0       ?_Execute@CD3D9Dxva2HDVideoMixer@DispSvr@@MAGJPAUIDirect3DSurface9@@ABUtagRECT@@1@Z 1001f8c0 f   D3D9Dxva2HDVideoMixer.obj
 0001:0001e8e0       ?VideoProcessBltHD@CD3D9Dxva2HDVideoMixer@DispSvr@@IAEJPAUIDirect3DSurface9@@ABUtagRECT@@1@Z 1001f8e0 f   D3D9Dxva2HDVideoMixer.obj
 0001:0001ece0       ?SetSingleVideoStreamStates@CD3D9Dxva2HDVideoMixer@DispSvr@@IAEJHAAUDXVAHDVP_StreamState@2@I@Z 1001fce0 f   D3D9Dxva2HDVideoMixer.obj
 0001:0001f2f0       ?SetSingleStreamStates@CD3D9Dxva2HDVideoMixer@DispSvr@@IAEJHAAUDXVAHDVP_StreamState@2@@Z 100202f0 f   D3D9Dxva2HDVideoMixer.obj
 0001:0001f490       ?SetSingleStereoStreamStates@CD3D9Dxva2HDVideoMixer@DispSvr@@IAEJHAAUDXVAHDVP_StreamState@2@@Z 10020490 f   D3D9Dxva2HDVideoMixer.obj
 0001:0001f530       ??0?$CComQIPtr@UIDirect3DSurface9@@$1?_GUID_0cfbaf3a_9ff6_429a_99b3_a2796af8b89b@@3U__s_GUID@@B@ATL@@QAE@PAUIUnknown@@@Z 10020530 f i D3D9Dxva2HDVideoMixer.obj
 0001:0001f550       ??E?$_Deque_const_iterator@UVideoReferenceSample@DispSvr@@V?$allocator@UVideoReferenceSample@DispSvr@@@std@@$00@std@@QAEAAV01@XZ 10020550 f i D3D9Dxva2HDVideoMixer.obj
 0001:0001f580       ??9?$_Deque_const_iterator@UVideoReferenceSample@DispSvr@@V?$allocator@UVideoReferenceSample@DispSvr@@@std@@$00@std@@QBE_NABV01@@Z 10020580 f i D3D9Dxva2HDVideoMixer.obj
 0001:0001f5a0       ?Execute@CD3D9VideoMixerBase@DispSvr@@$2PPPPPPPM@7AGJXZ 100205a0 f i D3D9Dxva2HDVideoMixer.obj
 0001:0001f5c0       ?AddRef@CD3D9VideoMixerBase@DispSvr@@$4PPPPPPPM@EM@AGKXZ 100205c0 f i D3D9Dxva2HDVideoMixer.obj
 0001:0001f5e0       ?SetFilterValue@CD3D9VideoMixerBase@DispSvr@@$2PPPPPPPM@7AGJW4VIDEO_FILTER@2@M@Z 100205e0 f i D3D9Dxva2HDVideoMixer.obj
 0001:0001f600       ?SetProperty@CD3D9VideoMixerBase@DispSvr@@$2PPPPPPPM@7AGJPBUMixerProperty@2@@Z 10020600 f i D3D9Dxva2HDVideoMixer.obj
 0001:0001f620       ?SetClearRectangles@CD3D9Dxva2HDVideoMixer@DispSvr@@$4PPPPPPPM@A@AGJIPAUClearRect@2@@Z 10020620 f i D3D9Dxva2HDVideoMixer.obj
 0001:0001f630       ?Release@CD3D9VideoMixerBase@DispSvr@@$4PPPPPPPM@DM@AGKXZ 10020630 f i D3D9Dxva2HDVideoMixer.obj
 0001:0001f650       ?QueryInterface@CD3D9VideoMixerBase@DispSvr@@$4PPPPPPPM@EE@AGJABU_GUID@@PAPAX@Z 10020650 f i D3D9Dxva2HDVideoMixer.obj
 0001:0001f670       ?GetLumaKey@CD3D9VideoMixerBase@DispSvr@@$2PPPPPPPM@7AGJPAULumaKey@2@@Z 10020670 f i D3D9Dxva2HDVideoMixer.obj
 0001:0001f690       ?QueryPlaneFormat@CD3D9VideoMixerBase@DispSvr@@$2PPPPPPPM@7AGJHPAW4PLANE_FORMAT@2@@Z 10020690 f i D3D9Dxva2HDVideoMixer.obj
 0001:0001f6b0       ?QueryInterface@CD3D9VideoMixerBase@DispSvr@@$4PPPPPPPM@7AGJABU_GUID@@PAPAX@Z 100206b0 f i D3D9Dxva2HDVideoMixer.obj
 0001:0001f6d0       ?AddRef@CD3D9VideoMixerBase@DispSvr@@$4PPPPPPPM@DE@AGKXZ 100206d0 f i D3D9Dxva2HDVideoMixer.obj
 0001:0001f6f0       ?_SetDevice@CD3D9Dxva2HDVideoMixer@DispSvr@@$2PPPPPPPM@A@AGJPAUIUnknown@@@Z 100206f0 f i D3D9Dxva2HDVideoMixer.obj
 0001:0001f700       ?GetPlaneConfig@CD3D9VideoMixerBase@DispSvr@@$2PPPPPPPM@7AEABUD3D9PlaneConfig@2@H@Z 10020700 f i D3D9Dxva2HDVideoMixer.obj
 0001:0001f710       ?AddRef@CD3D9VideoMixerBase@DispSvr@@$4PPPPPPPM@FE@AGKXZ 10020710 f i D3D9Dxva2HDVideoMixer.obj
 0001:0001f730       ?GetVideoProcessorMode@CD3D9VideoMixerBase@DispSvr@@$2PPPPPPPM@7AGJPAU_GUID@@@Z 10020730 f i D3D9Dxva2HDVideoMixer.obj
 0001:0001f750       ?SetLumaKey@CD3D9VideoMixerBase@DispSvr@@$2PPPPPPPM@7AGJPBULumaKey@2@@Z 10020750 f i D3D9Dxva2HDVideoMixer.obj
 0001:0001f770       ?GetFilterValue@CD3D9VideoMixerBase@DispSvr@@$2PPPPPPPM@7AGJW4VIDEO_FILTER@2@PAM@Z 10020770 f i D3D9Dxva2HDVideoMixer.obj
 0001:0001f790       ?QueryPlaneCaps@CD3D9VideoMixerBase@DispSvr@@$2PPPPPPPM@7AGJHW4PLANE_FORMAT@2@PAUPlaneCaps@2@@Z 10020790 f i D3D9Dxva2HDVideoMixer.obj
 0001:0001f7b0       ?QueryPlaneFormatCount@CD3D9VideoMixerBase@DispSvr@@$2PPPPPPPM@7AGJHPAI@Z 100207b0 f i D3D9Dxva2HDVideoMixer.obj
 0001:0001f7d0       ?ProcessMessage@CD3D9VideoMixerBase@DispSvr@@$4PPPPPPPM@7AGJW4RESOURCE_MESSAGE_TYPE@@PAX@Z 100207d0 f i D3D9Dxva2HDVideoMixer.obj
 0001:0001f7f0       ?SetDestination@CD3D9VideoMixerBase@DispSvr@@$2PPPPPPPM@7AGJPAUIUnknown@@PBU_NORMALIZEDRECT@@@Z 100207f0 f i D3D9Dxva2HDVideoMixer.obj
 0001:0001f810       ?Release@CD3D9VideoMixerBase@DispSvr@@$4PPPPPPPM@EE@AGKXZ 10020810 f i D3D9Dxva2HDVideoMixer.obj
 0001:0001f830       ?GetAvailableVideoProcessorModes@CD3D9VideoMixerBase@DispSvr@@$2PPPPPPPM@7AGJPAU_GUID@@@Z 10020830 f i D3D9Dxva2HDVideoMixer.obj
 0001:0001f850       ?OnNotify@CD3D9VideoMixerBase@DispSvr@@$2PPPPPPPM@7AGJKABU_GUID@@W4XVE_EVENT_TYPE@XVE@@K@Z 10020850 f i D3D9Dxva2HDVideoMixer.obj
 0001:0001f870       ?QueryInterface@CD3D9VideoMixerBase@DispSvr@@$4PPPPPPPM@EM@AGJABU_GUID@@PAPAX@Z 10020870 f i D3D9Dxva2HDVideoMixer.obj
 0001:0001f890       ?GetBackgroundColor@CD3D9VideoMixerBase@DispSvr@@$2PPPPPPPM@7AGJPAK@Z 10020890 f i D3D9Dxva2HDVideoMixer.obj
 0001:0001f8b0       ?Release@CD3D9VideoMixerBase@DispSvr@@$4PPPPPPPM@7AGKXZ 100208b0 f i D3D9Dxva2HDVideoMixer.obj
 0001:0001f8d0       ?OnDestroyPlane@CD3D9VideoMixerBase@DispSvr@@$2PPPPPPPM@7AGXH@Z 100208d0 f i D3D9Dxva2HDVideoMixer.obj
 0001:0001f8f0       ?GetAvailableVideoProcessorModeCount@CD3D9VideoMixerBase@DispSvr@@$2PPPPPPPM@7AGJPAI@Z 100208f0 f i D3D9Dxva2HDVideoMixer.obj
 0001:0001f910       ?AddRef@CD3D9VideoMixerBase@DispSvr@@$4PPPPPPPM@DM@AGKXZ 10020910 f i D3D9Dxva2HDVideoMixer.obj
 0001:0001f930       ?Release@CD3D9VideoMixerBase@DispSvr@@$4PPPPPPPM@EM@AGKXZ 10020930 f i D3D9Dxva2HDVideoMixer.obj
 0001:0001f950       ?QueryInterface@CD3D9VideoMixerBase@DispSvr@@$4PPPPPPPM@DE@AGJABU_GUID@@PAPAX@Z 10020950 f i D3D9Dxva2HDVideoMixer.obj
 0001:0001f970       ?QueryInterface@CD3D9VideoMixerBase@DispSvr@@$4PPPPPPPM@FE@AGJABU_GUID@@PAPAX@Z 10020970 f i D3D9Dxva2HDVideoMixer.obj
 0001:0001f990       ?GetVideoProcessorCaps@CD3D9VideoMixerBase@DispSvr@@$2PPPPPPPM@7AGJPBU_GUID@@PAUVideoProcessorCaps@2@@Z 10020990 f i D3D9Dxva2HDVideoMixer.obj
 0001:0001f9b0       ?CreatePlane@CD3D9VideoMixerBase@DispSvr@@$2PPPPPPPM@7AGJPAUPlaneInit@2@ABU_GUID@@PAPAX@Z 100209b0 f i D3D9Dxva2HDVideoMixer.obj
 0001:0001f9d0       ?GetFilterValueRange@CD3D9VideoMixerBase@DispSvr@@$2PPPPPPPM@7AGJW4VIDEO_FILTER@2@PAUValueRange@2@@Z 100209d0 f i D3D9Dxva2HDVideoMixer.obj
 0001:0001f9f0       ?AddRef@CD3D9VideoMixerBase@DispSvr@@$4PPPPPPPM@EE@AGKXZ 100209f0 f i D3D9Dxva2HDVideoMixer.obj
 0001:0001fa10       ?SetVideoProcessorMode@CD3D9VideoMixerBase@DispSvr@@$2PPPPPPPM@7AGJPBU_GUID@@@Z 10020a10 f i D3D9Dxva2HDVideoMixer.obj
 0001:0001fa30       ?OnCreatePlane@CD3D9VideoMixerBase@DispSvr@@$2PPPPPPPM@7AGJABUPlaneInit@2@@Z 10020a30 f i D3D9Dxva2HDVideoMixer.obj
 0001:0001fa50       ?SetBackgroundColor@CD3D9VideoMixerBase@DispSvr@@$2PPPPPPPM@7AGJK@Z 10020a50 f i D3D9Dxva2HDVideoMixer.obj
 0001:0001fa70       ?GetVideoEffectManager@CD3D9VideoMixerBase@DispSvr@@$2PPPPPPPM@7AGJPAPAUIUnknown@@@Z 10020a70 f i D3D9Dxva2HDVideoMixer.obj
 0001:0001fa90       ?QueryCaps@CD3D9VideoMixerBase@DispSvr@@$2PPPPPPPM@7AGJPAUMixerCaps@2@@Z 10020a90 f i D3D9Dxva2HDVideoMixer.obj
 0001:0001fab0       ??_ECD3D9Dxva2HDVideoMixer@DispSvr@@$4PPPPPPPM@A@AEPAXI@Z 10020ab0 f i D3D9Dxva2HDVideoMixer.obj
 0001:0001fac0       ?AddRef@CD3D9VideoMixerBase@DispSvr@@$4PPPPPPPM@7AGKXZ 10020ac0 f i D3D9Dxva2HDVideoMixer.obj
 0001:0001fae0       ?SetVideoEffectManager@CD3D9VideoMixerBase@DispSvr@@$2PPPPPPPM@7AGJPAUIUnknown@@@Z 10020ae0 f i D3D9Dxva2HDVideoMixer.obj
 0001:0001fb00       ?Release@CD3D9VideoMixerBase@DispSvr@@$4PPPPPPPM@DE@AGKXZ 10020b00 f i D3D9Dxva2HDVideoMixer.obj
 0001:0001fb20       ?_ReleaseDevice@CD3D9Dxva2HDVideoMixer@DispSvr@@$2PPPPPPPM@A@AGJXZ 10020b20 f i D3D9Dxva2HDVideoMixer.obj
 0001:0001fb30       ?OnVideoPositionChange@CD3D9VideoMixerBase@DispSvr@@$2PPPPPPPM@7AGXXZ 10020b30 f i D3D9Dxva2HDVideoMixer.obj
 0001:0001fb50       ?Release@CD3D9VideoMixerBase@DispSvr@@$4PPPPPPPM@FE@AGKXZ 10020b50 f i D3D9Dxva2HDVideoMixer.obj
 0001:0001fb70       ?QueryInterface@CD3D9VideoMixerBase@DispSvr@@$4PPPPPPPM@DM@AGJABU_GUID@@PAPAX@Z 10020b70 f i D3D9Dxva2HDVideoMixer.obj
 0001:0001fb90       ?GetProperty@CD3D9VideoMixerBase@DispSvr@@$2PPPPPPPM@7AGJPAUMixerProperty@2@@Z 10020b90 f i D3D9Dxva2HDVideoMixer.obj
 0001:0001fbb0       ??0CD3D9Dxva2VideoMixer@DispSvr@@QAE@XZ 10020bb0 f   D3D9Dxva2VideoMixer.obj
 0001:0001fcc0       ??_ECD3D9Dxva2VideoMixer@DispSvr@@UAEPAXI@Z 10020cc0 f i  CIL library: CIL module
 0001:0001fcc0       ??_GCD3D9Dxva2VideoMixer@DispSvr@@UAEPAXI@Z 10020cc0 f i D3D9Dxva2VideoMixer.obj
 0001:0001fcf0       ??_DCD3D9Dxva2VideoMixer@DispSvr@@QAEXXZ 10020cf0 f i D3D9Dxva2VideoMixer.obj
 0001:0001fd00       ??1CD3D9Dxva2VideoMixer@DispSvr@@UAE@XZ 10020d00 f   D3D9Dxva2VideoMixer.obj
 0001:0001fe10       ?_SetDevice@CD3D9Dxva2VideoMixer@DispSvr@@MAGJPAUIUnknown@@@Z 10020e10 f   D3D9Dxva2VideoMixer.obj
 0001:0001fe50       ?AddRef@CD3D9VideoMixerBase@DispSvr@@$4PPPPPPPM@OA@AGKXZ 10020e50 f i D3D9Dxva2VideoMixer.obj
 0001:0001fe70       ?OnCreatePlane@CD3D9VideoMixerBase@DispSvr@@$2PPPPPPPM@KE@AGJABUPlaneInit@2@@Z 10020e70 f i D3D9Dxva2VideoMixer.obj
 0001:0001fe90       ?SetBackgroundColor@CD3D9VideoMixerBase@DispSvr@@$2PPPPPPPM@KE@AGJK@Z 10020e90 f i D3D9Dxva2VideoMixer.obj
 0001:0001feb0       ?GetVideoEffectManager@CD3D9VideoMixerBase@DispSvr@@$2PPPPPPPM@KE@AGJPAPAUIUnknown@@@Z 10020eb0 f i D3D9Dxva2VideoMixer.obj
 0001:0001fed0       ?QueryCaps@CD3D9VideoMixerBase@DispSvr@@$2PPPPPPPM@KE@AGJPAUMixerCaps@2@@Z 10020ed0 f i D3D9Dxva2VideoMixer.obj
 0001:0001fef0       ?AddRef@CD3D9VideoMixerBase@DispSvr@@$4PPPPPPPM@KE@AGKXZ 10020ef0 f i D3D9Dxva2VideoMixer.obj
 0001:0001ff10       ?SetVideoEffectManager@CD3D9VideoMixerBase@DispSvr@@$2PPPPPPPM@KE@AGJPAUIUnknown@@@Z 10020f10 f i D3D9Dxva2VideoMixer.obj
 0001:0001ff30       ?GetFilterValueRange@CD3D9VideoMixerBase@DispSvr@@$2PPPPPPPM@KE@AGJW4VIDEO_FILTER@2@PAUValueRange@2@@Z 10020f30 f i D3D9Dxva2VideoMixer.obj
 0001:0001ff50       ?Release@CD3D9VideoMixerBase@DispSvr@@$4PPPPPPPM@NA@AGKXZ 10020f50 f i D3D9Dxva2VideoMixer.obj
 0001:0001ff70       ?OnVideoPositionChange@CD3D9VideoMixerBase@DispSvr@@$2PPPPPPPM@KE@AGXXZ 10020f70 f i D3D9Dxva2VideoMixer.obj
 0001:0001ff90       ?Release@CD3D9VideoMixerBase@DispSvr@@$4PPPPPPPM@PA@AGKXZ 10020f90 f i D3D9Dxva2VideoMixer.obj
 0001:0001ffb0       ?SetVideoProcessorMode@CD3D9VideoMixerBase@DispSvr@@$2PPPPPPPM@KE@AGJPBU_GUID@@@Z 10020fb0 f i D3D9Dxva2VideoMixer.obj
 0001:0001ffd0       ?QueryInterface@CD3D9VideoMixerBase@DispSvr@@$4PPPPPPPM@NI@AGJABU_GUID@@PAPAX@Z 10020fd0 f i D3D9Dxva2VideoMixer.obj
 0001:0001fff0       ?GetProperty@CD3D9VideoMixerBase@DispSvr@@$2PPPPPPPM@KE@AGJPAUMixerProperty@2@@Z 10020ff0 f i D3D9Dxva2VideoMixer.obj
 0001:00020010       ?Execute@CD3D9VideoMixerBase@DispSvr@@$2PPPPPPPM@KE@AGJXZ 10021010 f i D3D9Dxva2VideoMixer.obj
 0001:00020030       ?AddRef@CD3D9VideoMixerBase@DispSvr@@$4PPPPPPPM@OI@AGKXZ 10021030 f i D3D9Dxva2VideoMixer.obj
 0001:00020050       ?SetProperty@CD3D9VideoMixerBase@DispSvr@@$2PPPPPPPM@KE@AGJPBUMixerProperty@2@@Z 10021050 f i D3D9Dxva2VideoMixer.obj
 0001:00020070       ?Release@CD3D9VideoMixerBase@DispSvr@@$4PPPPPPPM@NI@AGKXZ 10021070 f i D3D9Dxva2VideoMixer.obj
 0001:00020090       ?QueryInterface@CD3D9VideoMixerBase@DispSvr@@$4PPPPPPPM@OA@AGJABU_GUID@@PAPAX@Z 10021090 f i D3D9Dxva2VideoMixer.obj
 0001:000200b0       ?SetFilterValue@CD3D9VideoMixerBase@DispSvr@@$2PPPPPPPM@KE@AGJW4VIDEO_FILTER@2@M@Z 100210b0 f i D3D9Dxva2VideoMixer.obj
 0001:000200d0       ?GetLumaKey@CD3D9VideoMixerBase@DispSvr@@$2PPPPPPPM@KE@AGJPAULumaKey@2@@Z 100210d0 f i D3D9Dxva2VideoMixer.obj
 0001:000200f0       ?QueryPlaneFormat@CD3D9VideoMixerBase@DispSvr@@$2PPPPPPPM@KE@AGJHPAW4PLANE_FORMAT@2@@Z 100210f0 f i D3D9Dxva2VideoMixer.obj
 0001:00020110       ?QueryInterface@CD3D9VideoMixerBase@DispSvr@@$4PPPPPPPM@KE@AGJABU_GUID@@PAPAX@Z 10021110 f i D3D9Dxva2VideoMixer.obj
 0001:00020130       ?AddRef@CD3D9VideoMixerBase@DispSvr@@$4PPPPPPPM@NA@AGKXZ 10021130 f i D3D9Dxva2VideoMixer.obj
 0001:00020150       ?GetPlaneConfig@CD3D9VideoMixerBase@DispSvr@@$2PPPPPPPM@KE@AEABUD3D9PlaneConfig@2@H@Z 10021150 f i D3D9Dxva2VideoMixer.obj
 0001:00020160       ?AddRef@CD3D9VideoMixerBase@DispSvr@@$4PPPPPPPM@PA@AGKXZ 10021160 f i D3D9Dxva2VideoMixer.obj
 0001:00020180       ?GetVideoProcessorMode@CD3D9VideoMixerBase@DispSvr@@$2PPPPPPPM@KE@AGJPAU_GUID@@@Z 10021180 f i D3D9Dxva2VideoMixer.obj
 0001:000201a0       ?SetLumaKey@CD3D9VideoMixerBase@DispSvr@@$2PPPPPPPM@KE@AGJPBULumaKey@2@@Z 100211a0 f i D3D9Dxva2VideoMixer.obj
 0001:000201c0       ?QueryPlaneCaps@CD3D9VideoMixerBase@DispSvr@@$2PPPPPPPM@KE@AGJHW4PLANE_FORMAT@2@PAUPlaneCaps@2@@Z 100211c0 f i D3D9Dxva2VideoMixer.obj
 0001:000201e0       ?QueryPlaneFormatCount@CD3D9VideoMixerBase@DispSvr@@$2PPPPPPPM@KE@AGJHPAI@Z 100211e0 f i D3D9Dxva2VideoMixer.obj
 0001:00020200       ?ProcessMessage@CD3D9VideoMixerBase@DispSvr@@$4PPPPPPPM@KE@AGJW4RESOURCE_MESSAGE_TYPE@@PAX@Z 10021200 f i D3D9Dxva2VideoMixer.obj
 0001:00020220       ?Release@CD3D9VideoMixerBase@DispSvr@@$4PPPPPPPM@OA@AGKXZ 10021220 f i D3D9Dxva2VideoMixer.obj
 0001:00020240       ?GetAvailableVideoProcessorModes@CD3D9VideoMixerBase@DispSvr@@$2PPPPPPPM@KE@AGJPAU_GUID@@@Z 10021240 f i D3D9Dxva2VideoMixer.obj
 0001:00020260       ?OnNotify@CD3D9VideoMixerBase@DispSvr@@$2PPPPPPPM@KE@AGJKABU_GUID@@W4XVE_EVENT_TYPE@XVE@@K@Z 10021260 f i D3D9Dxva2VideoMixer.obj
 0001:00020280       ?QueryInterface@CD3D9VideoMixerBase@DispSvr@@$4PPPPPPPM@OI@AGJABU_GUID@@PAPAX@Z 10021280 f i D3D9Dxva2VideoMixer.obj
 0001:000202a0       ?GetBackgroundColor@CD3D9VideoMixerBase@DispSvr@@$2PPPPPPPM@KE@AGJPAK@Z 100212a0 f i D3D9Dxva2VideoMixer.obj
 0001:000202c0       ?GetFilterValue@CD3D9VideoMixerBase@DispSvr@@$2PPPPPPPM@KE@AGJW4VIDEO_FILTER@2@PAM@Z 100212c0 f i D3D9Dxva2VideoMixer.obj
 0001:000202e0       ??_ECD3D9Dxva2VideoMixer@DispSvr@@$4PPPPPPPM@A@AEPAXI@Z 100212e0 f i D3D9Dxva2VideoMixer.obj
 0001:000202f0       ?Release@CD3D9VideoMixerBase@DispSvr@@$4PPPPPPPM@KE@AGKXZ 100212f0 f i D3D9Dxva2VideoMixer.obj
 0001:00020310       ?OnDestroyPlane@CD3D9VideoMixerBase@DispSvr@@$2PPPPPPPM@KE@AGXH@Z 10021310 f i D3D9Dxva2VideoMixer.obj
 0001:00020330       ?GetAvailableVideoProcessorModeCount@CD3D9VideoMixerBase@DispSvr@@$2PPPPPPPM@KE@AGJPAI@Z 10021330 f i D3D9Dxva2VideoMixer.obj
 0001:00020350       ?AddRef@CD3D9VideoMixerBase@DispSvr@@$4PPPPPPPM@NI@AGKXZ 10021350 f i D3D9Dxva2VideoMixer.obj
 0001:00020370       ?_ReleaseDevice@CD3D9VideoMixer@DispSvr@@$2PPPPPPPM@A@AGJXZ 10021370 f i D3D9Dxva2VideoMixer.obj
 0001:00020380       ?Release@CD3D9VideoMixerBase@DispSvr@@$4PPPPPPPM@OI@AGKXZ 10021380 f i D3D9Dxva2VideoMixer.obj
 0001:000203a0       ?QueryInterface@CD3D9VideoMixerBase@DispSvr@@$4PPPPPPPM@NA@AGJABU_GUID@@PAPAX@Z 100213a0 f i D3D9Dxva2VideoMixer.obj
 0001:000203c0       ?QueryInterface@CD3D9VideoMixerBase@DispSvr@@$4PPPPPPPM@PA@AGJABU_GUID@@PAPAX@Z 100213c0 f i D3D9Dxva2VideoMixer.obj
 0001:000203e0       ?GetVideoProcessorCaps@CD3D9VideoMixerBase@DispSvr@@$2PPPPPPPM@KE@AGJPBU_GUID@@PAUVideoProcessorCaps@2@@Z 100213e0 f i D3D9Dxva2VideoMixer.obj
 0001:00020400       ?CreatePlane@CD3D9VideoMixerBase@DispSvr@@$2PPPPPPPM@KE@AGJPAUPlaneInit@2@ABU_GUID@@PAPAX@Z 10021400 f i D3D9Dxva2VideoMixer.obj
 0001:00020420       ?SetDestination@CD3D9VideoMixer@DispSvr@@$4PPPPPPPM@A@AGJPAUIUnknown@@PBU_NORMALIZEDRECT@@@Z 10021420 f i D3D9Dxva2VideoMixer.obj
 0001:00020430       ?_SetDevice@CD3D9Dxva2VideoMixer@DispSvr@@$2PPPPPPPM@A@AGJPAUIUnknown@@@Z 10021430 f i D3D9Dxva2VideoMixer.obj
 0001:00020440       ?SetClearRectangles@CD3D9VideoMixer@DispSvr@@$4PPPPPPPM@A@AGJIPAUClearRect@2@@Z 10021440 f i D3D9Dxva2VideoMixer.obj
 0001:00020450       ??0CD3D9VideoMixer@DispSvr@@QAE@XZ 10021450 f   D3D9VideoMixer.obj
 0001:00020660       ??_ECD3D9VideoMixer@DispSvr@@UAEPAXI@Z 10021660 f i  CIL library: CIL module
 0001:00020660       ??_GCD3D9VideoMixer@DispSvr@@UAEPAXI@Z 10021660 f i D3D9VideoMixer.obj
 0001:00020690       ??_DCD3D9VideoMixer@DispSvr@@QAEXXZ 10021690 f i D3D9VideoMixer.obj
 0001:000206a0       ??1CD3D9VideoMixer@DispSvr@@UAE@XZ 100216a0 f   D3D9VideoMixer.obj
 0001:000207d0       ?_SetDevice@CD3D9VideoMixer@DispSvr@@MAGJPAUIUnknown@@@Z 100217d0 f   D3D9VideoMixer.obj
 0001:00020820       ?_ReleaseDevice@CD3D9VideoMixer@DispSvr@@MAGJXZ 10021820 f   D3D9VideoMixer.obj
 0001:00020870       ?_QueryPlaneCaps@CD3D9VideoMixer@DispSvr@@MAGJHW4PLANE_FORMAT@2@PAUPlaneCaps@2@@Z 10021870 f   D3D9VideoMixer.obj
 0001:00020880       ?SetDestination@CD3D9VideoMixer@DispSvr@@UAGJPAUIUnknown@@PBU_NORMALIZEDRECT@@@Z 10021880 f   D3D9VideoMixer.obj
 0001:000208f0       ?SetClearRectangles@CD3D9VideoMixer@DispSvr@@UAGJIPAUClearRect@2@@Z 100218f0 f   D3D9VideoMixer.obj
 0001:00020a50       ?_Execute@CD3D9VideoMixer@DispSvr@@MAGJPAUIDirect3DSurface9@@ABUtagRECT@@1@Z 10021a50 f   D3D9VideoMixer.obj
 0001:00020ef0       ?DrawVideoPlane@CD3D9VideoMixer@DispSvr@@IAEJPAUIDirect3DSurface9@@ABUtagRECT@@1@Z 10021ef0 f   D3D9VideoMixer.obj
 0001:000213c0       ?DrawSubVideoPlane@CD3D9VideoMixer@DispSvr@@IAEJPAUIDirect3DSurface9@@ABUtagRECT@@1@Z 100223c0 f   D3D9VideoMixer.obj
 0001:00021880       ?DrawTexturePlane@CD3D9VideoMixer@DispSvr@@IAEJHABUtagRECT@@0@Z 10022880 f   D3D9VideoMixer.obj
 0001:00022010       ?AdjustVertexBuffer@CD3D9VideoMixer@DispSvr@@IAEXABUD3D9Plane@2@ABUtagRECT@@PAUIDirect3DTexture9@@11AAT?$PlaneVB@UD3D9VideoMixerVertex@DispSvr@@@2@@Z 10023010 f   D3D9VideoMixer.obj
 0001:000221c0       ?LoadPixelShader@CD3D9VideoMixer@DispSvr@@IAEJXZ 100231c0 f   D3D9VideoMixer.obj
 0001:00022220       ?CheckStretchRectFormula@CD3D9VideoMixer@DispSvr@@IAEJXZ 10023220 f   D3D9VideoMixer.obj
 0001:00022390       ?SetupClearRectStage@CD3D9VideoMixer@DispSvr@@IAEJXZ 10023390 f   D3D9VideoMixer.obj
 0001:00022620       ??0?$list@T?$PlaneVB@UD3D9ClearRectVertex@DispSvr@@@DispSvr@@V?$allocator@T?$PlaneVB@UD3D9ClearRectVertex@DispSvr@@@DispSvr@@@std@@@std@@QAE@XZ 10023620 f i D3D9VideoMixer.obj
 0001:00022640       ?push_back@?$list@T?$PlaneVB@UD3D9ClearRectVertex@DispSvr@@@DispSvr@@V?$allocator@T?$PlaneVB@UD3D9ClearRectVertex@DispSvr@@@DispSvr@@@std@@@std@@QAEXABT?$PlaneVB@UD3D9ClearRectVertex@DispSvr@@@DispSvr@@@Z 10023640 f i D3D9VideoMixer.obj
 0001:00022670       ??E?$_Const_iterator@$00@?$list@PAUHINSTANCE__@@V?$allocator@PAUHINSTANCE__@@@std@@@std@@QAEAAV012@XZ 10023670 f i DynLibManager.obj
 0001:00022670       ??E?$_Iterator@$00@?$list@UD3D9Texture@CD3D9TexturePool@DispSvr@@V?$allocator@UD3D9Texture@CD3D9TexturePool@DispSvr@@@std@@@std@@QAEAAV012@XZ 10023670 f i D3D9TexturePool.obj
 0001:00022670       ??E?$_Iterator@$00@?$list@UPlugin@CResourceManager@DispSvr@@V?$allocator@UPlugin@CResourceManager@DispSvr@@@std@@@std@@QAEAAV012@XZ 10023670 f i ResourceManager.obj
 0001:00022670       ??E?$_Const_iterator@$00@?$list@UClearRect@DispSvr@@V?$allocator@UClearRect@DispSvr@@@std@@@std@@QAEAAV012@XZ 10023670 f i AMDPCOMMixerPresenter.obj
 0001:00022670       ??E?$_Const_iterator@$00@?$list@UVideoProcessorStub@DispSvr@@V?$allocator@UVideoProcessorStub@DispSvr@@@std@@@std@@QAEAAV012@XZ 10023670 f i AMDPCOMMixerPresenter.obj
 0001:00022670       ??E?$_Const_iterator@$00@?$list@UD3D9Texture@CD3D9TexturePool@DispSvr@@V?$allocator@UD3D9Texture@CD3D9TexturePool@DispSvr@@@std@@@std@@QAEAAV012@XZ 10023670 f i D3D9TexturePool.obj
 0001:00022670       ??E?$_Const_iterator@$00@?$list@UPlugin@CResourceManager@DispSvr@@V?$allocator@UPlugin@CResourceManager@DispSvr@@@std@@@std@@QAEAAV012@XZ 10023670 f i ResourceManager.obj
 0001:00022670       ??E?$_Const_iterator@$00@?$list@T?$PlaneVB@UD3D9ClearRectVertex@DispSvr@@@DispSvr@@V?$allocator@T?$PlaneVB@UD3D9ClearRectVertex@DispSvr@@@DispSvr@@@std@@@std@@QAEAAV012@XZ 10023670 f i D3D9VideoMixer.obj
 0001:00022670       ??E?$_Iterator@$00@?$list@UVideoProcessorStub@DispSvr@@V?$allocator@UVideoProcessorStub@DispSvr@@@std@@@std@@QAEAAV012@XZ 10023670 f i AMDPCOMMixerPresenter.obj
 0001:000226a0       ?_Insert@?$list@T?$PlaneVB@UD3D9ClearRectVertex@DispSvr@@@DispSvr@@V?$allocator@T?$PlaneVB@UD3D9ClearRectVertex@DispSvr@@@DispSvr@@@std@@@std@@QAEXV?$_Iterator@$00@12@ABT?$PlaneVB@UD3D9ClearRectVertex@DispSvr@@@DispSvr@@@Z 100236a0 f i D3D9VideoMixer.obj
 0001:000226d0       ?_Buynode@?$list@T?$PlaneVB@UD3D9ClearRectVertex@DispSvr@@@DispSvr@@V?$allocator@T?$PlaneVB@UD3D9ClearRectVertex@DispSvr@@@DispSvr@@@std@@@std@@IAEPAU_Node@?$_List_nod@T?$PlaneVB@UD3D9ClearRectVertex@DispSvr@@@DispSvr@@V?$allocator@T?$PlaneVB@UD3D9ClearRectVertex@DispSvr@@@DispSvr@@@std@@@2@XZ 100236d0 f i D3D9VideoMixer.obj
 0001:000226f0       ?_Buynode@?$list@T?$PlaneVB@UD3D9ClearRectVertex@DispSvr@@@DispSvr@@V?$allocator@T?$PlaneVB@UD3D9ClearRectVertex@DispSvr@@@DispSvr@@@std@@@std@@IAEPAU_Node@?$_List_nod@T?$PlaneVB@UD3D9ClearRectVertex@DispSvr@@@DispSvr@@V?$allocator@T?$PlaneVB@UD3D9ClearRectVertex@DispSvr@@@DispSvr@@@std@@@2@PAU342@0ABT?$PlaneVB@UD3D9ClearRectVertex@DispSvr@@@DispSvr@@@Z 100236f0 f i D3D9VideoMixer.obj
 0001:00022730       ?_Incsize@?$list@T?$PlaneVB@UD3D9ClearRectVertex@DispSvr@@@DispSvr@@V?$allocator@T?$PlaneVB@UD3D9ClearRectVertex@DispSvr@@@DispSvr@@@std@@@std@@IAEXI@Z 10023730 f i D3D9VideoMixer.obj
 0001:000227c0       ?allocate@?$allocator@U_Node@?$_List_nod@T?$PlaneVB@UD3D9ClearRectVertex@DispSvr@@@DispSvr@@V?$allocator@T?$PlaneVB@UD3D9ClearRectVertex@DispSvr@@@DispSvr@@@std@@@std@@@std@@QAEPAU_Node@?$_List_nod@T?$PlaneVB@UD3D9ClearRectVertex@DispSvr@@@DispSvr@@V?$allocator@T?$PlaneVB@UD3D9ClearRectVertex@DispSvr@@@DispSvr@@@std@@@2@I@Z 100237c0 f i D3D9VideoMixer.obj
 0001:000227d0       ?max_size@?$list@T?$PlaneVB@UD3D9ClearRectVertex@DispSvr@@@DispSvr@@V?$allocator@T?$PlaneVB@UD3D9ClearRectVertex@DispSvr@@@DispSvr@@@std@@@std@@QBEIXZ 100237d0 f i D3D9VideoMixer.obj
 0001:000227d0       ?max_size@?$allocator@T?$PlaneVB@UD3D9ClearRectVertex@DispSvr@@@DispSvr@@@std@@QBEIXZ 100237d0 f i D3D9VideoMixer.obj
 0001:000227e0       ??$_Allocate@U_Node@?$_List_nod@T?$PlaneVB@UD3D9ClearRectVertex@DispSvr@@@DispSvr@@V?$allocator@T?$PlaneVB@UD3D9ClearRectVertex@DispSvr@@@DispSvr@@@std@@@std@@@std@@YAPAU_Node@?$_List_nod@T?$PlaneVB@UD3D9ClearRectVertex@DispSvr@@@DispSvr@@V?$allocator@T?$PlaneVB@UD3D9ClearRectVertex@DispSvr@@@DispSvr@@@std@@@0@IPAU120@@Z 100237e0 f i D3D9VideoMixer.obj
 0001:00022840       ?construct@?$allocator@T?$PlaneVB@UD3D9ClearRectVertex@DispSvr@@@DispSvr@@@std@@QAEXPAT?$PlaneVB@UD3D9ClearRectVertex@DispSvr@@@DispSvr@@ABT34@@Z 10023840 f i D3D9VideoMixer.obj
 0001:00022840       ??$_Construct@T?$PlaneVB@UD3D9ClearRectVertex@DispSvr@@@DispSvr@@T12@@std@@YAXPAT?$PlaneVB@UD3D9ClearRectVertex@DispSvr@@@DispSvr@@ABT12@@Z 10023840 f i D3D9VideoMixer.obj
 0001:00022860       ??_ECD3D9VideoMixer@DispSvr@@$4PPPPPPPM@A@AEPAXI@Z 10023860 f i D3D9VideoMixer.obj
 0001:00022870       ?_SetDevice@CD3D9VideoMixer@DispSvr@@$2PPPPPPPM@A@AGJPAUIUnknown@@@Z 10023870 f i D3D9VideoMixer.obj
 0001:00022940       ?GetAspectRatio@D3D9Plane@DispSvr@@QBEMXZ 10023940 f i D3D9VideoMixerBase.obj
 0001:00022980       ??0CPROPVARIANT@@QAE@W4VARENUM@@@Z 10023980 f i D3D9VideoMixerBase.obj
 0001:000229a0       ?XVESetAttributeUINT32@@YAJPAUIXVEAttributes@@ABU_GUID@@I@Z 100239a0 f i D3D9VideoMixerBase.obj
 0001:000229e0       ?XVESetAttributeUINT64@@YAJPAUIXVEAttributes@@ABU_GUID@@_K@Z 100239e0 f i D3D9VideoMixerBase.obj
 0001:00022a20       ?XVEGetTypeMultipleOutput@@YAJPAUIXVEType@@AAI@Z 10023a20 f i D3D9VideoMixerBase.obj
 0001:00022a20       ?XVEGetAttributeUINT32@@YAJPAUIXVEAttributes@@ABU_GUID@@AAI@Z 10023a20 f i D3D9VideoMixerBase.obj
 0001:00022a60       ?XVESetSampleViewID@@YAJPAUIXVESample@@ABI@Z 10023a60 f i D3D9VideoMixerBase.obj
 0001:00022aa0       ?XVESetSampleDisplayTimeStamp@@YAJPAUIXVESample@@AB_K@Z 10023aa0 f i D3D9VideoMixerBase.obj
 0001:00022ae0       ?XVESetSampleRepeatFrame@@YAJPAUIXVESample@@ABI@Z 10023ae0 f i D3D9VideoMixerBase.obj
 0001:00022b20       ?XVESetSampleRestrictedContent@@YAJPAUIXVESample@@ABI@Z 10023b20 f i D3D9VideoMixerBase.obj
 0001:00022b60       ?CreateVBltFromVPStub@DispSvr@@YAPAUID3D9VBlt@1@PAUD3D9Plane@1@PAUVideoProcessorStub@1@PAVCD3D9TexturePool@1@@Z 10023b60 f   D3D9VideoMixerBase.obj
 0001:00022b90       ??0CD3D9VideoMixerBase@DispSvr@@QAE@XZ 10023b90 f   D3D9VideoMixerBase.obj
 0001:00022d70       ??1CD3D9VideoMixerBase@DispSvr@@UAE@XZ 10023d70 f   D3D9VideoMixerBase.obj
 0001:00022e90       ?QueryInterface@CD3D9VideoMixerBase@DispSvr@@UAGJABU_GUID@@PAPAX@Z 10023e90 f   D3D9VideoMixerBase.obj
 0001:00023000       ?ProcessMessage@CD3D9VideoMixerBase@DispSvr@@UAGJW4RESOURCE_MESSAGE_TYPE@@PAX@Z 10024000 f   D3D9VideoMixerBase.obj
 0001:00023130       ?_SetDevice@CD3D9VideoMixerBase@DispSvr@@MAGJPAUIUnknown@@@Z 10024130 f   D3D9VideoMixerBase.obj
 0001:000232b0       ?_ResetDevice@CD3D9VideoMixerBase@DispSvr@@MAGJXZ 100242b0 f   D3D9VideoMixerBase.obj
 0001:00023320       ?_ReleaseDevice@CD3D9VideoMixerBase@DispSvr@@MAGJXZ 10024320 f   D3D9VideoMixerBase.obj
 0001:00023380       ?SetDestination@CD3D9VideoMixerBase@DispSvr@@MAGJPAUIUnknown@@PBU_NORMALIZEDRECT@@@Z 10024380 f   D3D9VideoMixerBase.obj
 0001:00023470       ?Execute@CD3D9VideoMixerBase@DispSvr@@MAGJXZ 10024470 f   D3D9VideoMixerBase.obj
 0001:00023620       ?QueryCaps@CD3D9VideoMixerBase@DispSvr@@MAGJPAUMixerCaps@2@@Z 10024620 f   D3D9VideoMixerBase.obj
 0001:00023650       ?GetPlaneConfig@CD3D9VideoMixerBase@DispSvr@@MAEABUD3D9PlaneConfig@2@H@Z 10024650 f   D3D9VideoMixerBase.obj
 0001:00023660       ?CreatePlane@CD3D9VideoMixerBase@DispSvr@@MAGJPAUPlaneInit@2@ABU_GUID@@PAPAX@Z 10024660 f   D3D9VideoMixerBase.obj
 0001:000236b0       ?SetClearRectangles@CD3D9VideoMixerBase@DispSvr@@MAGJIPAUClearRect@2@@Z 100246b0 f   D3D9VideoMixerBase.obj
 0001:00023700       ?SetBackgroundColor@CD3D9VideoMixerBase@DispSvr@@MAGJK@Z 10024700 f   D3D9VideoMixerBase.obj
 0001:00023750       ?GetBackgroundColor@CD3D9VideoMixerBase@DispSvr@@MAGJPAK@Z 10024750 f   D3D9VideoMixerBase.obj
 0001:000237a0       ?SetLumaKey@CD3D9VideoMixerBase@DispSvr@@MAGJPBULumaKey@2@@Z 100247a0 f   D3D9VideoMixerBase.obj
 0001:000237f0       ?GetLumaKey@CD3D9VideoMixerBase@DispSvr@@MAGJPAULumaKey@2@@Z 100247f0 f   D3D9VideoMixerBase.obj
 0001:00023840       ?SetProperty@CD3D9VideoMixerBase@DispSvr@@MAGJPBUMixerProperty@2@@Z 10024840 f   D3D9VideoMixerBase.obj
 0001:00023890       ?GetProperty@CD3D9VideoMixerBase@DispSvr@@MAGJPAUMixerProperty@2@@Z 10024890 f   D3D9VideoMixerBase.obj
 0001:000238c0       ?GetVideoEffectManager@CD3D9VideoMixerBase@DispSvr@@MAGJPAPAUIUnknown@@@Z 100248c0 f   D3D9VideoMixerBase.obj
 0001:00023960       ?SetVideoEffectManager@CD3D9VideoMixerBase@DispSvr@@MAGJPAUIUnknown@@@Z 10024960 f   D3D9VideoMixerBase.obj
 0001:00023a20       ?QueryPlaneFormatCount@CD3D9VideoMixerBase@DispSvr@@MAGJHPAI@Z 10024a20 f   D3D9VideoMixerBase.obj
 0001:00023a50       ?QueryPlaneFormat@CD3D9VideoMixerBase@DispSvr@@MAGJHPAW4PLANE_FORMAT@2@@Z 10024a50 f   D3D9VideoMixerBase.obj
 0001:00023a80       ?QueryPlaneCaps@CD3D9VideoMixerBase@DispSvr@@MAGJHW4PLANE_FORMAT@2@PAUPlaneCaps@2@@Z 10024a80 f   D3D9VideoMixerBase.obj
 0001:00023b10       ?OnDestroyPlane@CD3D9VideoMixerBase@DispSvr@@MAGXH@Z 10024b10 f   D3D9VideoMixerBase.obj
 0001:00023b40       ?_OnMoveWindow@CD3D9VideoMixerBase@DispSvr@@MAGJXZ 10024b40 f   D3D9VideoMixerBase.obj
 0001:00023e60       ?NotifyListeners@CD3D9VideoMixerBase@DispSvr@@IAEJW4EVENT_VIDEO_MIXING@2@KK@Z 10024e60 f   D3D9VideoMixerBase.obj
 0001:00023ec0       ?IsBackgroundVisible@CD3D9VideoMixerBase@DispSvr@@IBE_NXZ 10024ec0 f   D3D9VideoMixerBase.obj
 0001:00023f50       ?ClearNonVideoArea@CD3D9VideoMixerBase@DispSvr@@IAEXXZ 10024f50 f   D3D9VideoMixerBase.obj
 0001:00024050       ?VidProcSelectingPredicate@@YA_NABUVideoProcessorStub@DispSvr@@0@Z 10025050 f   D3D9VideoMixerBase.obj
 0001:00024120       ?SelectVideoProcessor@CD3D9VideoMixerBase@DispSvr@@IAEXPAUVideoProcessorStub@2@0@Z 10025120 f   D3D9VideoMixerBase.obj
 0001:00024290       ?GenerateDxva2VPList@CD3D9VideoMixerBase@DispSvr@@IAEJXZ 10025290 f   D3D9VideoMixerBase.obj
 0001:00024450       ?PlaneToScreen@CD3D9VideoMixerBase@DispSvr@@IAEJABUD3D9Plane@2@AAUtagRECT@@1ABU4@@Z 10025450 f   D3D9VideoMixerBase.obj
 0001:00024560       ?StereoPlaneToScreen@CD3D9VideoMixerBase@DispSvr@@IAEJIABUD3D9Plane@2@AAUtagRECT@@1ABU4@@Z 10025560 f   D3D9VideoMixerBase.obj
 0001:000246e0       ?GetAvailableVideoProcessorModeCount@CD3D9VideoMixerBase@DispSvr@@MAGJPAI@Z 100256e0 f   D3D9VideoMixerBase.obj
 0001:00024720       ?GetAvailableVideoProcessorModes@CD3D9VideoMixerBase@DispSvr@@MAGJPAU_GUID@@@Z 10025720 f   D3D9VideoMixerBase.obj
 0001:000247e0       ?GetVideoProcessorCaps@CD3D9VideoMixerBase@DispSvr@@MAGJPBU_GUID@@PAUVideoProcessorCaps@2@@Z 100257e0 f   D3D9VideoMixerBase.obj
 0001:000248d0       ?GetVideoProcessorMode@CD3D9VideoMixerBase@DispSvr@@MAGJPAU_GUID@@@Z 100258d0 f   D3D9VideoMixerBase.obj
 0001:00024940       ?SetVideoProcessorMode@CD3D9VideoMixerBase@DispSvr@@MAGJPBU_GUID@@@Z 10025940 f   D3D9VideoMixerBase.obj
 0001:00024a50       ?GetFilterValueRange@CD3D9VideoMixerBase@DispSvr@@MAGJW4VIDEO_FILTER@2@PAUValueRange@2@@Z 10025a50 f   D3D9VideoMixerBase.obj
 0001:00024ae0       ?SetFilterValue@CD3D9VideoMixerBase@DispSvr@@MAGJW4VIDEO_FILTER@2@M@Z 10025ae0 f   D3D9VideoMixerBase.obj
 0001:00024b70       ?GetFilterValue@CD3D9VideoMixerBase@DispSvr@@MAGJW4VIDEO_FILTER@2@PAM@Z 10025b70 f   D3D9VideoMixerBase.obj
 0001:00024bf0       ?GetMappedFilterValue@CD3D9VideoMixerBase@DispSvr@@MAGJW4VIDEO_FILTER@2@PAM@Z 10025bf0 f   D3D9VideoMixerBase.obj
 0001:00024e60       ?OnNotify@CD3D9VideoMixerBase@DispSvr@@MAGJKABU_GUID@@W4XVE_EVENT_TYPE@XVE@@K@Z 10025e60 f   D3D9VideoMixerBase.obj
 0001:00024ea0       ?CheckXVEManager@CD3D9VideoMixerBase@DispSvr@@IAEJXZ 10025ea0 f   D3D9VideoMixerBase.obj
 0001:00024f80       ?ProcessVideoEffect@CD3D9VideoMixerBase@DispSvr@@IAEJHPA_NAAUtagRECT@@ABU3@W4PLANE_FORMAT@2@PAPAUIUnknown@@I@Z 10025f80 f   D3D9VideoMixerBase.obj
 0001:000258a0       ?GetStereoOffset@CD3D9VideoMixerBase@DispSvr@@IBEHABUD3D9Plane@2@@Z 100268a0 f   D3D9VideoMixerBase.obj
 0001:00025900       ?OnVideoPositionChange@CD3D9VideoMixerBase@DispSvr@@MAGXXZ 10026900 f   D3D9VideoMixerBase.obj
 0001:00025910       ??0?$list@UVideoProcessorStub@DispSvr@@V?$allocator@UVideoProcessorStub@DispSvr@@@std@@@std@@QAE@XZ 10026910 f i D3D9VideoMixerBase.obj
 0001:00025930       ??1?$list@UVideoProcessorStub@DispSvr@@V?$allocator@UVideoProcessorStub@DispSvr@@@std@@@std@@QAE@XZ 10026930 f i D3D9VideoMixerBase.obj
 0001:00025940       ?front@?$list@UD3D9Texture@CD3D9TexturePool@DispSvr@@V?$allocator@UD3D9Texture@CD3D9TexturePool@DispSvr@@@std@@@std@@QAEAAUD3D9Texture@CD3D9TexturePool@DispSvr@@XZ 10026940 f i D3D9TexturePool.obj
 0001:00025940       ?front@?$list@UVideoProcessorStub@DispSvr@@V?$allocator@UVideoProcessorStub@DispSvr@@@std@@@std@@QAEAAUVideoProcessorStub@DispSvr@@XZ 10026940 f i D3D9VideoMixerBase.obj
 0001:00025960       ??4?$CComPtr@UIDirect3DTexture9@@@ATL@@QAEPAUIDirect3DTexture9@@ABV01@@Z 10026960 f i D3D9VideoMixerBase.obj
 0001:00025960       ??4?$CComPtr@UIMFSample@@@ATL@@QAEPAUIMFSample@@ABV01@@Z 10026960 f i EvrPresentScheduler.obj
 0001:00025960       ??4?$CComPtr@UIDirect3DSurface9@@@ATL@@QAEPAUIDirect3DSurface9@@ABV01@@Z 10026960 f i D3D9VideoMixerBase.obj
 0001:00025990       ??$_Checked_base@PAPAUIDisplayVideoSource@@@std@@YAPAPAUIDisplayVideoSource@@AAPAPAU1@@Z 10026990 f i VideoSourceMgr.obj
 0001:00025990       ??B?$CComPtrBase@UIDisplayLock@@@ATL@@QBEPAUIDisplayLock@@XZ 10026990 f i RenderEngine.obj
 0001:00025990       ?GetHWND@CFlipExWindow@@QBEPAUHWND__@@XZ 10026990 f i D3D9Helper.obj
 0001:00025990       ??C?$CComPtrBase@UIDirect3DQuery9@@@ATL@@QBEPAV?$_NoAddRefReleaseOnCComPtr@UIDirect3DQuery9@@@1@XZ 10026990 f i D3D9VideoPresenter.obj
 0001:00025990       ??C?$CComPtrBase@UIXVEType@@@ATL@@QBEPAV?$_NoAddRefReleaseOnCComPtr@UIXVEType@@@1@XZ 10026990 f i D3D9VideoMixerBase.obj
 0001:00025990       ??B?$CComPtrBase@UIVMRMixerControl9@@@ATL@@QBEPAUIVMRMixerControl9@@XZ 10026990 f i VideoSource.obj
 0001:00025990       ??$_Checked_base@PAPAUIDisplayVideoSource@@@std@@YAPAPAUIDisplayVideoSource@@AAPAPAU1@U_Unchanged_checked_iterator_base_type_tag@0@@Z 10026990 f i VideoSourceMgr.obj
 0001:00025990       ??C?$CComPtrBase@UIEnumPins@@@ATL@@QBEPAV?$_NoAddRefReleaseOnCComPtr@UIEnumPins@@@1@XZ 10026990 f i VideoSource.obj
 0001:00025990       ??B?$CComPtrBase@UIDisplayServer@@@ATL@@QBEPAUIDisplayServer@@XZ 10026990 f i RenderEngine.obj
 0001:00025990       ??C?$CComPtrBase@UIDirect3D9@@@ATL@@QBEPAV?$_NoAddRefReleaseOnCComPtr@UIDirect3D9@@@1@XZ 10026990 f i AMDPCOMMixerPresenter.obj
 0001:00025990       ??C?$CComPtrBase@UIMFGetService@@@ATL@@QBEPAV?$_NoAddRefReleaseOnCComPtr@UIMFGetService@@@1@XZ 10026990 f i VideoSourceEvr.obj
 0001:00025990       ??B?$CComPtrBase@UIDirect3DDeviceManager9@@@ATL@@QBEPAUIDirect3DDeviceManager9@@XZ 10026990 f i VideoSourceEvr.obj
 0001:00025990       ??C?$CComPtrBase@UIDisplayVideoSink@@@ATL@@QBEPAV?$_NoAddRefReleaseOnCComPtr@UIDisplayVideoSink@@@1@XZ 10026990 f i VideoSource.obj
 0001:00025990       ??$_Checked_base@PAPAUIDispSvrRenderEngineNotify@@@std@@YAPAPAUIDispSvrRenderEngineNotify@@AAPAPAU1@@Z 10026990 f i RenderEngine.obj
 0001:00025990       ??C?$CComPtrBase@UIDispSvrXVEManagerWrapper@@@ATL@@QBEPAV?$_NoAddRefReleaseOnCComPtr@UIDispSvrXVEManagerWrapper@@@1@XZ 10026990 f i D3D9VideoMixerBase.obj
 0001:00025990       ??C?$CComPtrBase@UICUIExternal8@@@ATL@@QBEPAV?$_NoAddRefReleaseOnCComPtr@UICUIExternal8@@@1@XZ 10026990 f i IntelCUISDKHelper.obj
 0001:00025990       ??B?$CComPtrBase@UIXVideoEffectManager@@@ATL@@QBEPAUIXVideoEffectManager@@XZ 10026990 f i D3D9VideoMixerBase.obj
 0001:00025990       ??B?$CComPtrBase@UIDirect3DVertexShader9@@@ATL@@QBEPAUIDirect3DVertexShader9@@XZ 10026990 f i StereoVideoMixer.obj
 0001:00025990       ??B?$CComPtrBase@UIUnknown@@@ATL@@QBEPAUIUnknown@@XZ 10026990 f i MixerControl.obj
 0001:00025990       ??C?$CComPtrBase@UIDisplayRenderEngine@@@ATL@@QBEPAV?$_NoAddRefReleaseOnCComPtr@UIDisplayRenderEngine@@@1@XZ 10026990 f i MixerControl.obj
 0001:00025990       ??B?$CComPtrBase@UIDispSvrVideoEffectManager@@@ATL@@QBEPAUIDispSvrVideoEffectManager@@XZ 10026990 f i VideoSourceDO.obj
 0001:00025990       ??C?$CComPtrBase@UIMFSample@@@ATL@@QBEPAV?$_NoAddRefReleaseOnCComPtr@UIMFSample@@@1@XZ 10026990 f i VideoSourceEvr.obj
 0001:00025990       ??B?$CComPtrBase@UIDirect3DDevice9@@@ATL@@QBEPAUIDirect3DDevice9@@XZ 10026990 f i D3D9Helper.obj
 0001:00025990       ??B?$CA2WEX@$0IA@@ATL@@QBEPA_WXZ 10026990 f i DispSvrDebug.obj
 0001:00025990       ??C?$CComPtrBase@UIDirectXVideoProcessorService@@@ATL@@QBEPAV?$_NoAddRefReleaseOnCComPtr@UIDirectXVideoProcessorService@@@1@XZ 10026990 f i DXVA2VideoProcessor.obj
 0001:00025990       ??C?$CComPtrBase@UIDirect3DDeviceManager9@@@ATL@@QBEPAV?$_NoAddRefReleaseOnCComPtr@UIDirect3DDeviceManager9@@@1@XZ 10026990 f i VideoSourceEvr.obj
 0001:00025990       ??C?$CComPtrBase@UIMFVideoRenderer@@@ATL@@QBEPAV?$_NoAddRefReleaseOnCComPtr@UIMFVideoRenderer@@@1@XZ 10026990 f i VideoSourceEvr.obj
 0001:00025990       ??B?$CComPtrBase@UIDispSvrDriverExtension@@@ATL@@QBEPAUIDispSvrDriverExtension@@XZ 10026990 f i RenderEngine.obj
 0001:00025990       ??B?$CComPtrBase@UIXVESample@@@ATL@@QBEPAUIXVESample@@XZ 10026990 f i D3D9VideoMixerBase.obj
 0001:00025990       ??C?$CComPtrBase@UIDirect3D9ExOverlayExtension@@@ATL@@QBEPAV?$_NoAddRefReleaseOnCComPtr@UIDirect3D9ExOverlayExtension@@@1@XZ 10026990 f i D3D9Helper.obj
 0001:00025990       ??B?$CComPtrBase@UIDisplayProperties@@@ATL@@QBEPAUIDisplayProperties@@XZ 10026990 f i CompositeDO.obj
 0001:00025990       ??C?$CComPtrBase@UIFilterGraph@@@ATL@@QBEPAV?$_NoAddRefReleaseOnCComPtr@UIFilterGraph@@@1@XZ 10026990 f i VideoSource.obj
 0001:00025990       ??C?$CComPtrBase@UIDirectXVideoDecoderService@@@ATL@@QBEPAV?$_NoAddRefReleaseOnCComPtr@UIDirectXVideoDecoderService@@@1@XZ 10026990 f i IntelDxva2Device.obj
 0001:00025990       ??B?$CComPtrBase@UIMFGetService@@@ATL@@QBEPAUIMFGetService@@XZ 10026990 f i VideoSourceEvr.obj
 0001:00025990       ??C?$CComPtrBase@UIDirectXVideoDecoder@@@ATL@@QBEPAV?$_NoAddRefReleaseOnCComPtr@UIDirectXVideoDecoder@@@1@XZ 10026990 f i ScreenCaptureDefense.obj
 0001:00025990       ??B?$CComPtrBase@UICUIExternal8@@@ATL@@QBEPAUICUIExternal8@@XZ 10026990 f i IntelCUISDKHelper.obj
 0001:00025990       ??C?$CComPtrBase@UIDispSvrVideoMixerVideoPlane@@@ATL@@QBEPAV?$_NoAddRefReleaseOnCComPtr@UIDispSvrVideoMixerVideoPlane@@@1@XZ 10026990 f i VideoSourceDO.obj
 0001:00025990       ??B?$CComPtrBase@UIDirect3D9@@@ATL@@QBEPAUIDirect3D9@@XZ 10026990 f i D3D9Helper.obj
 0001:00025990       ??C?$CComPtrBase@UIDisplayOptimizedRender@@@ATL@@QBEPAV?$_NoAddRefReleaseOnCComPtr@UIDisplayOptimizedRender@@@1@XZ 10026990 f i CompositeDO.obj
 0001:00025990       ??$_Checked_base@PAPAPAUIMFSample@@@std@@YAPAPAPAUIMFSample@@AAPAPAPAU1@U_Unchanged_checked_iterator_base_type_tag@0@@Z 10026990 f i VideoSourceEvr.obj
 0001:00025990       ??$_Checked_base@PAPAUVideoReferenceSample@DispSvr@@@std@@YAPAPAUVideoReferenceSample@DispSvr@@AAPAPAU12@@Z 10026990 f i D3D9VideoPlane.obj
 0001:00025990       ??B?$CComPtrBase@UIDisplayVideoSourcePropertyExtension@@@ATL@@QBEPAUIDisplayVideoSourcePropertyExtension@@XZ 10026990 f i VideoSourceDO.obj
 0001:00025990       ??B?$CComPtrBase@UIMFSample@@@ATL@@QBEPAUIMFSample@@XZ 10026990 f i EvrPresentScheduler.obj
 0001:00025990       ??B?$CComPtrBase@UIDisplayServerStateEventSink@@@ATL@@QBEPAUIDisplayServerStateEventSink@@XZ 10026990 f i VideoSourceEvr.obj
 0001:00025990       ??C?$CComPtrBase@UIVMRFilterConfig9@@@ATL@@QBEPAV?$_NoAddRefReleaseOnCComPtr@UIVMRFilterConfig9@@@1@XZ 10026990 f i VideoSource.obj
 0001:00025990       ??$_Checked_base@PAUDisplayObjectInfo@IParentDisplayObjectImpl@@@std@@YAPAUDisplayObjectInfo@IParentDisplayObjectImpl@@AAPAU12@@Z 10026990 f i CompositeDO.obj
 0001:00025990       ??C?$CComPtrBase@UIDisplayObject@@@ATL@@QBEPAV?$_NoAddRefReleaseOnCComPtr@UIDisplayObject@@@1@XZ 10026990 f i RenderEngine.obj
 0001:00025990       ??B?$CComPtrBase@UIDirect3D9Ex@@@ATL@@QBEPAUIDirect3D9Ex@@XZ 10026990 f i D3D9Helper.obj
 0001:00025990       ??C?$CComPtrBase@UIVMRSurfaceAllocatorNotify9@@@ATL@@QBEPAV?$_NoAddRefReleaseOnCComPtr@UIVMRSurfaceAllocatorNotify9@@@1@XZ 10026990 f i VideoSource.obj
 0001:00025990       ??B?$CComPtrBase@UIDirect3DPixelShader9@@@ATL@@QBEPAUIDirect3DPixelShader9@@XZ 10026990 f i D3D9VideoMixer.obj
 0001:00025990       ??C?$CComPtrBase@UIDispSvrVideoEffectManager@@@ATL@@QBEPAV?$_NoAddRefReleaseOnCComPtr@UIDispSvrVideoEffectManager@@@1@XZ 10026990 f i VideoSourceDO.obj
 0001:00025990       ??B?$CComPtrBase@UIDispSvrVideoMixerVideoPlane@@@ATL@@QBEPAUIDispSvrVideoMixerVideoPlane@@XZ 10026990 f i VideoSourceDO.obj
 0001:00025990       ??C?$CComPtrBase@UIUnknown@@@ATL@@QBEPAV?$_NoAddRefReleaseOnCComPtr@UIUnknown@@@1@XZ 10026990 f i AMDPCOMMixerPresenter.obj
 0001:00025990       ??C?$CComPtrBase@UIDisplayVideoSourcePropertyExtension@@@ATL@@QBEPAV?$_NoAddRefReleaseOnCComPtr@UIDisplayVideoSourcePropertyExtension@@@1@XZ 10026990 f i VideoSourceDO.obj
 0001:00025990       ??C?$CComPtrBase@UIDisplayVideoSourceFRCControl@@@ATL@@QBEPAV?$_NoAddRefReleaseOnCComPtr@UIDisplayVideoSourceFRCControl@@@1@XZ 10026990 f i VideoSourceDO.obj
 0001:00025990       ??$_Checked_base@PAPAPAUIMFSample@@@std@@YAPAPAPAUIMFSample@@AAPAPAPAU1@@Z 10026990 f i VideoSourceEvr.obj
 0001:00025990       ??B?$CComPtrBase@UIDisplayVideoSource@@@ATL@@QBEPAUIDisplayVideoSource@@XZ 10026990 f i MixerControl.obj
 0001:00025990       ??B?$CComPtrBase@UIBaseFilter@@@ATL@@QBEPAUIBaseFilter@@XZ 10026990 f i VideoSource.obj
 0001:00025990       ??B?$CComPtrBase@UIXVEType@@@ATL@@QBEPAUIXVEType@@XZ 10026990 f i D3D9VideoMixerBase.obj
 0001:00025990       ??C?$CComPtrBase@UIDispSvrVideoEffect3DManager@@@ATL@@QBEPAV?$_NoAddRefReleaseOnCComPtr@UIDispSvrVideoEffect3DManager@@@1@XZ 10026990 f i DynLibManager.obj
 0001:00025990       ??C?$CComPtrBase@UIDirect3DDevice9@@@ATL@@QBEPAV?$_NoAddRefReleaseOnCComPtr@UIDirect3DDevice9@@@1@XZ 10026990 f i D3D9Helper.obj
 0001:00025990       ??C?$CComPtrBase@UIXVESample@@@ATL@@QBEPAV?$_NoAddRefReleaseOnCComPtr@UIXVESample@@@1@XZ 10026990 f i D3D9VideoMixerBase.obj
 0001:00025990       ??B?$CComPtrBase@UIDirect3DSurface9@@@ATL@@QBEPAUIDirect3DSurface9@@XZ 10026990 f i DXVAHDVideoProcessor.obj
 0001:00025990       ??C?$CComPtrBase@UIDirect3D9Ex@@@ATL@@QBEPAV?$_NoAddRefReleaseOnCComPtr@UIDirect3D9Ex@@@1@XZ 10026990 f i D3D9Helper.obj
 0001:00025990       ??C?$CComPtrBase@UIMFClock@@@ATL@@QBEPAV?$_NoAddRefReleaseOnCComPtr@UIMFClock@@@1@XZ 10026990 f i EvrPresentScheduler.obj
 0001:00025990       ??C?$CComPtrBase@UIDisplayProperties@@@ATL@@QBEPAV?$_NoAddRefReleaseOnCComPtr@UIDisplayProperties@@@1@XZ 10026990 f i VideoSourceEvr.obj
 0001:00025990       ??B?$CComPtrBase@UIDisplayVideoSink@@@ATL@@QBEPAUIDisplayVideoSink@@XZ 10026990 f i VideoSource.obj
 0001:00025990       ??$_Checked_base@PAPAVCVideoFrame@@@std@@YAPAPAVCVideoFrame@@AAPAPAV1@U_Unchanged_checked_iterator_base_type_tag@0@@Z 10026990 f i MixerControl.obj
 0001:00025990       ??B?$CComPtrBase@UIDirect3DDevice9Ex@@@ATL@@QBEPAUIDirect3DDevice9Ex@@XZ 10026990 f i D3D9Helper.obj
 0001:00025990       ??C?$CComPtrBase@UIDirect3DTexture9@@@ATL@@QBEPAV?$_NoAddRefReleaseOnCComPtr@UIDirect3DTexture9@@@1@XZ 10026990 f i MixerControl.obj
 0001:00025990       ??$_Checked_base@PAPAUVideoReferenceSample@DispSvr@@@std@@YAPAPAUVideoReferenceSample@DispSvr@@AAPAPAU12@U_Unchanged_checked_iterator_base_type_tag@0@@Z 10026990 f i D3D9VideoPlane.obj
 0001:00025990       ??B?$CComPtrBase@UIDisplayVideoSourceFRCControl@@@ATL@@QBEPAUIDisplayVideoSourceFRCControl@@XZ 10026990 f i VideoSourceDO.obj
 0001:00025990       ??$_Checked_base@PAUEventHandler@CRenderEngine@@@std@@YAPAUEventHandler@CRenderEngine@@AAPAU12@@Z 10026990 f i RenderEngine.obj
 0001:00025990       ??B?$CComPtrBase@UIFilterGraph@@@ATL@@QBEPAUIFilterGraph@@XZ 10026990 f i VideoSource.obj
 0001:00025990       ??B?$CComPtrBase@UIPin@@@ATL@@QBEPAUIPin@@XZ 10026990 f i VideoSource.obj
 0001:00025990       ??B?$CComPtrBase@UIDisplayRenderEngine@@@ATL@@QBEPAUIDisplayRenderEngine@@XZ 10026990 f i MixerControl.obj
 0001:00025990       ??C?$CComPtrBase@UIDirectXVideoAccelerationService@@@ATL@@QBEPAV?$_NoAddRefReleaseOnCComPtr@UIDirectXVideoAccelerationService@@@1@XZ 10026990 f i NvDxva2HDMixerRender.obj
 0001:00025990       ??C?$CComPtrBase@UIDispSvrDriverExtension@@@ATL@@QBEPAV?$_NoAddRefReleaseOnCComPtr@UIDispSvrDriverExtension@@@1@XZ 10026990 f i D3D9Helper.obj
 0001:00025990       ??B?$CComPtrBase@UIDispSvrVideoPresenter@@@ATL@@QBEPAUIDispSvrVideoPresenter@@XZ 10026990 f i RenderEngine.obj
 0001:00025990       ??B?$CComPtrBase@UIMFTransform@@@ATL@@QBEPAUIMFTransform@@XZ 10026990 f i VideoSourceEvr.obj
 0001:00025990       ??C?$CComPtrBase@UIBaseFilter@@@ATL@@QBEPAV?$_NoAddRefReleaseOnCComPtr@UIBaseFilter@@@1@XZ 10026990 f i VideoSource.obj
 0001:00025990       ??$_Checked_base@PAUEffect@CD3D9VideoEffect3DManager@DispSvr@@@std@@YAPAUEffect@CD3D9VideoEffect3DManager@DispSvr@@AAPAU123@@Z 10026990 f i D3D9VideoEffect3DManager.obj
 0001:00025990       ??B?$CComPtrBase@UIDirectXVideoAccelerationService@@@ATL@@QBEPAUIDirectXVideoAccelerationService@@XZ 10026990 f i EvrSamplePool.obj
 0001:00025990       ??C?$CComPtrBase@UIMediaEventSink@@@ATL@@QBEPAV?$_NoAddRefReleaseOnCComPtr@UIMediaEventSink@@@1@XZ 10026990 f i EvrCustomMixer.obj
 0001:00025990       ??B?$CComPtrBase@UIMFClock@@@ATL@@QBEPAUIMFClock@@XZ 10026990 f i EvrPresentScheduler.obj
 0001:00025990       ??B?$CComPtrBase@UIDisplayEventHandler@@@ATL@@QBEPAUIDisplayEventHandler@@XZ 10026990 f i VideoSourceDO.obj
 0001:00025990       ??C?$CComPtrBase@UIMFMediaType@@@ATL@@QBEPAV?$_NoAddRefReleaseOnCComPtr@UIMFMediaType@@@1@XZ 10026990 f i VideoSourceEvr.obj
 0001:00025990       ??B?$CComPtrBase@UIMFMediaBuffer@@@ATL@@QBEPAUIMFMediaBuffer@@XZ 10026990 f i VideoSourceEvr.obj
 0001:00025990       ??C?$CComPtrBase@UIDisplayVideoSource@@@ATL@@QBEPAV?$_NoAddRefReleaseOnCComPtr@UIDisplayVideoSource@@@1@XZ 10026990 f i MixerControl.obj
 0001:00025990       ??B?$CComPtrBase@UIDispSvrVideoMixer@@@ATL@@QBEPAUIDispSvrVideoMixer@@XZ 10026990 f i CompositeDO.obj
 0001:00025990       ??C?$CComPtrBase@UIDisplayServer@@@ATL@@QBEPAV?$_NoAddRefReleaseOnCComPtr@UIDisplayServer@@@1@XZ 10026990 f i RenderEngine.obj
 0001:00025990       ??$_Checked_base@PAUEventHandler@CRenderEngine@@@std@@YAPAUEventHandler@CRenderEngine@@AAPAU12@U_Unchanged_checked_iterator_base_type_tag@0@@Z 10026990 f i RenderEngine.obj
 0001:00025990       ??C?$CComPtrBase@UIDispSvrVideoPresenter@@@ATL@@QBEPAV?$_NoAddRefReleaseOnCComPtr@UIDispSvrVideoPresenter@@@1@XZ 10026990 f i RenderEngine.obj
 0001:00025990       ??C?$CComPtrBase@UIMediaControl@@@ATL@@QBEPAV?$_NoAddRefReleaseOnCComPtr@UIMediaControl@@@1@XZ 10026990 f i VideoSource.obj
 0001:00025990       ??$_Checked_base@PAUDisplayObjectInfo@IParentDisplayObjectImpl@@@std@@YAPAUDisplayObjectInfo@IParentDisplayObjectImpl@@AAPAU12@U_Unchanged_checked_iterator_base_type_tag@0@@Z 10026990 f i CompositeDO.obj
 0001:00025990       ??C?$CComPtrBase@UIDirect3DSurface9@@@ATL@@QBEPAV?$_NoAddRefReleaseOnCComPtr@UIDirect3DSurface9@@@1@XZ 10026990 f i DXVA2VideoProcessor.obj
 0001:00025990       ??B?$CComPtrBase@UIDispSvrXVEManagerWrapper@@@ATL@@QBEPAUIDispSvrXVEManagerWrapper@@XZ 10026990 f i D3D9VideoMixerBase.obj
 0001:00025990       ??B?$CComPtrBase@UIMediaEventSink@@@ATL@@QBEPAUIMediaEventSink@@XZ 10026990 f i VideoSourceEvr.obj
 0001:00025990       ??C?$CComPtrBase@UIDispSvrVideoMixer@@@ATL@@QBEPAV?$_NoAddRefReleaseOnCComPtr@UIDispSvrVideoMixer@@@1@XZ 10026990 f i RenderEngine.obj
 0001:00025990       ??C?$CComPtrBase@UIVMRMixerControl9@@@ATL@@QBEPAV?$_NoAddRefReleaseOnCComPtr@UIVMRMixerControl9@@@1@XZ 10026990 f i VideoSource.obj
 0001:00025990       ??C?$CComPtrBase@UIPin@@@ATL@@QBEPAV?$_NoAddRefReleaseOnCComPtr@UIPin@@@1@XZ 10026990 f i VideoSource.obj
 0001:00025990       ??$_Checked_base@PAUEffect@CD3D9VideoEffect3DManager@DispSvr@@@std@@YAPAUEffect@CD3D9VideoEffect3DManager@DispSvr@@AAPAU123@U_Unchanged_checked_iterator_base_type_tag@0@@Z 10026990 f i D3D9VideoEffect3DManager.obj
 0001:00025990       ??B?$CComPtrBase@UIMFVideoRenderer@@@ATL@@QBEPAUIMFVideoRenderer@@XZ 10026990 f i VideoSourceMgr.obj
 0001:00025990       ??C?$CComPtrBase@UIDirect3DDevice9Ex@@@ATL@@QBEPAV?$_NoAddRefReleaseOnCComPtr@UIDirect3DDevice9Ex@@@1@XZ 10026990 f i D3D9Helper.obj
 0001:00025990       ??C?$CComPtrBase@UIDirect3DSwapChain9@@@ATL@@QBEPAV?$_NoAddRefReleaseOnCComPtr@UIDirect3DSwapChain9@@@1@XZ 10026990 f i AMDPCOMMixerPresenter.obj
 0001:00025990       ??C?$CComPtrBase@UIMFTransform@@@ATL@@QBEPAV?$_NoAddRefReleaseOnCComPtr@UIMFTransform@@@1@XZ 10026990 f i VideoSourceEvr.obj
 0001:00025990       ??B?$CComPtrBase@UIDirect3DTexture9@@@ATL@@QBEPAUIDirect3DTexture9@@XZ 10026990 f i DXVAHDVideoProcessor.obj
 0001:00025990       ??B?$CComPtrBase@UIDirect3DVertexBuffer9@@@ATL@@QBEPAUIDirect3DVertexBuffer9@@XZ 10026990 f i MixerControl.obj
 0001:00025990       ??B?$CComPtrBase@UIMFMediaType@@@ATL@@QBEPAUIMFMediaType@@XZ 10026990 f i VideoSourceEvr.obj
 0001:00025990       ??B?$CComPtrBase@UIVMRSurfaceAllocatorNotify9@@@ATL@@QBEPAUIVMRSurfaceAllocatorNotify9@@XZ 10026990 f i VideoSource.obj
 0001:00025990       ??B?$CComPtrBase@UIDisplayObject@@@ATL@@QBEPAUIDisplayObject@@XZ 10026990 f i RenderEngine.obj
 0001:00025990       ??C?$CComPtrBase@UIXVideoEffectManager@@@ATL@@QBEPAV?$_NoAddRefReleaseOnCComPtr@UIXVideoEffectManager@@@1@XZ 10026990 f i D3D9VideoMixerBase.obj
 0001:00025990       ??C?$CComPtrBase@UIDirect3DVertexBuffer9@@@ATL@@QBEPAV?$_NoAddRefReleaseOnCComPtr@UIDirect3DVertexBuffer9@@@1@XZ 10026990 f i MixerControl.obj
 0001:00025990       ??C?$CComPtrBase@UIDisplayServerStateEventSink@@@ATL@@QBEPAV?$_NoAddRefReleaseOnCComPtr@UIDisplayServerStateEventSink@@@1@XZ 10026990 f i VideoSourceEvr.obj
 0001:00025990       ??$_Checked_base@PAPAVCVideoFrame@@@std@@YAPAPAVCVideoFrame@@AAPAPAV1@@Z 10026990 f i MixerControl.obj
 0001:00025990       ??C?$CComPtrBase@UIDisplayEventHandler@@@ATL@@QBEPAV?$_NoAddRefReleaseOnCComPtr@UIDisplayEventHandler@@@1@XZ 10026990 f i VideoSourceDO.obj
 0001:00025990       ??$_Checked_base@PAPAUIDispSvrRenderEngineNotify@@@std@@YAPAPAUIDispSvrRenderEngineNotify@@AAPAPAU1@U_Unchanged_checked_iterator_base_type_tag@0@@Z 10026990 f i RenderEngine.obj
 0001:000259a0       ??0?$CComQIPtr@UIXVideoEffectManager@@$1?_GUID_36694ab9_f360_4092_8bdd_831840488c71@@3U__s_GUID@@B@ATL@@QAE@PAUIUnknown@@@Z 100269a0 f i D3D9VideoMixerBase.obj
 0001:000259c0       ??4?$CComPtr@UIXVEType@@@ATL@@QAEPAUIXVEType@@PAU2@@Z 100269c0 f i D3D9VideoMixerBase.obj
 0001:000259c0       ??4?$CComPtr@UIDirect3DTexture9@@@ATL@@QAEPAUIDirect3DTexture9@@PAU2@@Z 100269c0 f i D3D9VideoMixerBase.obj
 0001:000259c0       ??4?$CComPtr@UIDirect3DSurface9@@@ATL@@QAEPAUIDirect3DSurface9@@PAU2@@Z 100269c0 f i D3D9VideoMixerBase.obj
 0001:000259e0       ?_Buynode@?$list@UVideoProcessorStub@DispSvr@@V?$allocator@UVideoProcessorStub@DispSvr@@@std@@@std@@IAEPAU_Node@?$_List_nod@UVideoProcessorStub@DispSvr@@V?$allocator@UVideoProcessorStub@DispSvr@@@std@@@2@XZ 100269e0 f i D3D9VideoMixerBase.obj
 0001:00025a00       ??9?$CComPtrBase@UIXVEType@@@ATL@@QBE_NPAUIXVEType@@@Z 10026a00 f i D3D9VideoMixerBase.obj
 0001:00025a10       ??$sort@P6A_NABUVideoProcessorStub@DispSvr@@0@Z@?$list@UVideoProcessorStub@DispSvr@@V?$allocator@UVideoProcessorStub@DispSvr@@@std@@@std@@QAEXP6A_NABUVideoProcessorStub@DispSvr@@0@Z@Z 10026a10 f i D3D9VideoMixerBase.obj
 0001:00025c80       ??0?$list@UVideoProcessorStub@DispSvr@@V?$allocator@UVideoProcessorStub@DispSvr@@@std@@@std@@QAE@ABV?$allocator@UVideoProcessorStub@DispSvr@@@1@@Z 10026c80 f i D3D9VideoMixerBase.obj
 0001:00025ca0       ?swap@?$list@UVideoProcessorStub@DispSvr@@V?$allocator@UVideoProcessorStub@DispSvr@@@std@@@std@@QAEXAAV12@@Z 10026ca0 f i D3D9VideoMixerBase.obj
 0001:00025cc0       ?splice@?$list@UVideoProcessorStub@DispSvr@@V?$allocator@UVideoProcessorStub@DispSvr@@@std@@@std@@QAEXV?$_Iterator@$00@12@AAV12@@Z 10026cc0 f i D3D9VideoMixerBase.obj
 0001:00025cf0       ?_Splice@?$list@UVideoProcessorStub@DispSvr@@V?$allocator@UVideoProcessorStub@DispSvr@@@std@@@std@@QAEXV?$_Iterator@$00@12@AAV12@00I_N@Z 10026cf0 f i D3D9VideoMixerBase.obj
 0001:00025d40       ?erase@?$list@UVideoProcessorStub@DispSvr@@V?$allocator@UVideoProcessorStub@DispSvr@@@std@@@std@@QAE?AV?$_Iterator@$00@12@V312@0@Z 10026d40 f i D3D9VideoMixerBase.obj
 0001:00025e10       ?splice@?$list@UVideoProcessorStub@DispSvr@@V?$allocator@UVideoProcessorStub@DispSvr@@@std@@@std@@QAEXV?$_Iterator@$00@12@AAV12@00@Z 10026e10 f i D3D9VideoMixerBase.obj
 0001:00025f20       ?erase@?$list@UD3D9Texture@CD3D9TexturePool@DispSvr@@V?$allocator@UD3D9Texture@CD3D9TexturePool@DispSvr@@@std@@@std@@QAE?AV?$_Iterator@$00@12@V312@@Z 10026f20 f i D3D9TexturePool.obj
 0001:00025f20       ?erase@?$list@UPlugin@CResourceManager@DispSvr@@V?$allocator@UPlugin@CResourceManager@DispSvr@@@std@@@std@@QAE?AV?$_Iterator@$00@12@V312@@Z 10026f20 f i ResourceManager.obj
 0001:00025f20       ?erase@?$list@UVideoProcessorStub@DispSvr@@V?$allocator@UVideoProcessorStub@DispSvr@@@std@@@std@@QAE?AV?$_Iterator@$00@12@V312@@Z 10026f20 f i D3D9VideoMixerBase.obj
 0001:00025f80       ??E?$_Iterator@$00@?$list@UD3D9Texture@CD3D9TexturePool@DispSvr@@V?$allocator@UD3D9Texture@CD3D9TexturePool@DispSvr@@@std@@@std@@QAE?AV012@H@Z 10026f80 f i D3D9TexturePool.obj
 0001:00025f80       ??E?$_Const_iterator@$00@?$list@UVideoProcessorStub@DispSvr@@V?$allocator@UVideoProcessorStub@DispSvr@@@std@@@std@@QAE?AV012@H@Z 10026f80 f i D3D9VideoMixerBase.obj
 0001:00025f80       ??E?$_Iterator@$00@?$list@UVideoProcessorStub@DispSvr@@V?$allocator@UVideoProcessorStub@DispSvr@@@std@@@std@@QAE?AV012@H@Z 10026f80 f i D3D9VideoMixerBase.obj
 0001:00025f80       ??E?$_Iterator@$00@?$list@UPlugin@CResourceManager@DispSvr@@V?$allocator@UPlugin@CResourceManager@DispSvr@@@std@@@std@@QAE?AV012@H@Z 10026f80 f i ResourceManager.obj
 0001:00025fb0       ??$merge@P6A_NABUVideoProcessorStub@DispSvr@@0@Z@?$list@UVideoProcessorStub@DispSvr@@V?$allocator@UVideoProcessorStub@DispSvr@@@std@@@std@@QAEXAAV01@P6A_NABUVideoProcessorStub@DispSvr@@1@Z@Z 10026fb0 f i D3D9VideoMixerBase.obj
 0001:000260e0       ??$swap@PAU_Node@?$_List_nod@UVideoProcessorStub@DispSvr@@V?$allocator@UVideoProcessorStub@DispSvr@@@std@@@std@@@std@@YAXAAPAU_Node@?$_List_nod@UVideoProcessorStub@DispSvr@@V?$allocator@UVideoProcessorStub@DispSvr@@@std@@@0@0@Z 100270e0 f i D3D9VideoMixerBase.obj
 0001:000260e0       ??$swap@PAUVE3DBuffer@DispSvr@@@std@@YAXAAPAUVE3DBuffer@DispSvr@@0@Z 100270e0 f i D3D9VideoEffect3DManager.obj
 0001:000260e0       ??$swap@I@std@@YAXAAI0@Z   100270e0 f i D3D9VideoMixerBase.obj
 0001:000260f0       ??$insert@V?$_Iterator@$00@?$list@UVideoProcessorStub@DispSvr@@V?$allocator@UVideoProcessorStub@DispSvr@@@std@@@std@@@?$list@UVideoProcessorStub@DispSvr@@V?$allocator@UVideoProcessorStub@DispSvr@@@std@@@std@@QAEXV?$_Iterator@$00@01@00@Z 100270f0 f i D3D9VideoMixerBase.obj
 0001:00026120       ??$_Distance@V?$_Iterator@$00@?$list@UVideoProcessorStub@DispSvr@@V?$allocator@UVideoProcessorStub@DispSvr@@@std@@@std@@I@std@@YAXV?$_Iterator@$00@?$list@UVideoProcessorStub@DispSvr@@V?$allocator@UVideoProcessorStub@DispSvr@@@std@@@0@0AAI@Z 10027120 f i D3D9VideoMixerBase.obj
 0001:00026150       ??$_Insert@V?$_Iterator@$00@?$list@UVideoProcessorStub@DispSvr@@V?$allocator@UVideoProcessorStub@DispSvr@@@std@@@std@@@?$list@UVideoProcessorStub@DispSvr@@V?$allocator@UVideoProcessorStub@DispSvr@@@std@@@std@@QAEXV?$_Iterator@$00@01@00Uforward_iterator_tag@1@@Z 10027150 f i D3D9VideoMixerBase.obj
 0001:00026270       ??$_Distance2@V?$_Iterator@$00@?$list@UVideoProcessorStub@DispSvr@@V?$allocator@UVideoProcessorStub@DispSvr@@@std@@@std@@I@std@@YAXV?$_Iterator@$00@?$list@UVideoProcessorStub@DispSvr@@V?$allocator@UVideoProcessorStub@DispSvr@@@std@@@0@0AAIUbidirectional_iterator_tag@0@@Z 10027270 f i D3D9VideoMixerBase.obj
 0001:000262b0       ??F?$_Iterator@$00@?$list@UPlugin@CResourceManager@DispSvr@@V?$allocator@UPlugin@CResourceManager@DispSvr@@@std@@@std@@QAEAAV012@XZ 100272b0 f i ResourceManager.obj
 0001:000262b0       ??F?$_Iterator@$00@?$list@UVideoProcessorStub@DispSvr@@V?$allocator@UVideoProcessorStub@DispSvr@@@std@@@std@@QAEAAV012@XZ 100272b0 f i D3D9VideoMixerBase.obj
 0001:000262b0       ??F?$_Const_iterator@$00@?$list@UVideoProcessorStub@DispSvr@@V?$allocator@UVideoProcessorStub@DispSvr@@@std@@@std@@QAEAAV012@XZ 100272b0 f i D3D9VideoMixerBase.obj
 0001:000262b0       ??F?$_Const_iterator@$00@?$list@UPlugin@CResourceManager@DispSvr@@V?$allocator@UPlugin@CResourceManager@DispSvr@@@std@@@std@@QAEAAV012@XZ 100272b0 f i ResourceManager.obj
 0001:00026510       _PropVariantInit           10027510 f i D3D9VideoMixerBase.obj
 0001:00026520       ?WriterLock@CReaderWriterLock@@QAEXXZ 10027520 f i D3D9VideoMixerBase.obj
 0001:00026520       ?ReaderLock@CReaderWriterLock@@QAEXXZ 10027520 f i D3D9VideoPlane.obj
 0001:00026520       ?Lock@CCritSec@@QAEXXZ     10027520 f i MixerControl.obj
 0001:00026530       ?WriterUnlock@CReaderWriterLock@@QAEXXZ 10027530 f i D3D9VideoMixerBase.obj
 0001:00026530       ?Unlock@CCritSec@@QAEXXZ   10027530 f i MixerControl.obj
 0001:00026530       ?ReaderUnlock@CReaderWriterLock@@QAEXXZ 10027530 f i D3D9VideoPlane.obj
 0001:00026550       ?IsVideoPlane@CD3D9VideoMixerPlane@DispSvr@@IBE_NXZ 10027550 f i D3D9VideoPlane.obj
 0001:00026570       ?Create@CD3D9VideoMixerPlane@DispSvr@@SAJABUPlaneInit@2@PAPAV12@@Z 10027570 f   D3D9VideoPlane.obj
 0001:00026640       ??0CD3D9VideoMixerPlane@DispSvr@@IAE@ABUPlaneInit@1@@Z 10027640 f   D3D9VideoPlane.obj
 0001:00026730       ??_GCD3D9VideoMixerPlane@DispSvr@@UAEPAXI@Z 10027730 f i D3D9VideoPlane.obj
 0001:00026730       ??_ECD3D9VideoMixerPlane@DispSvr@@UAEPAXI@Z 10027730 f i  CIL library: CIL module
 0001:00026750       ??1CD3D9VideoMixerPlane@DispSvr@@UAE@XZ 10027750 f   D3D9VideoPlane.obj
 0001:00026a10       ?Init@CD3D9VideoMixerPlane@DispSvr@@IAEJXZ 10027a10 f   D3D9VideoPlane.obj
 0001:00026e40       ?QueryInterface@CD3D9VideoMixerPlane@DispSvr@@UAGJABU_GUID@@PAPAX@Z 10027e40 f   D3D9VideoPlane.obj
 0001:00026f60       ?AddRef@CD3D9VideoMixerPlane@DispSvr@@UAGKXZ 10027f60 f   D3D9VideoPlane.obj
 0001:00026f80       ?Release@CD3D9VideoMixerPlane@DispSvr@@UAGKXZ 10027f80 f   D3D9VideoPlane.obj
 0001:00026fb0       ?GetPlaneDesc@CD3D9VideoMixerPlane@DispSvr@@UAGJPAUPlaneDesc@2@@Z 10027fb0 f   D3D9VideoPlane.obj
 0001:00027030       ?SetExternalSurface@CD3D9VideoMixerPlane@DispSvr@@UAGJPBUExternalSurfaceDesc@2@@Z 10028030 f   D3D9VideoPlane.obj
 0001:00027080       ?UpdateFromBuffer@CD3D9VideoMixerPlane@DispSvr@@UAGJPAUUpdateBuffer@2@@Z 10028080 f   D3D9VideoPlane.obj
 0001:000270a0       ?LockBuffer@CD3D9VideoMixerPlane@DispSvr@@UAGJPAULockedRect@2@PBUtagRECT@@K@Z 100280a0 f   D3D9VideoPlane.obj
 0001:00027130       ?UnlockBuffer@CD3D9VideoMixerPlane@DispSvr@@UAGJXZ 10028130 f   D3D9VideoPlane.obj
 0001:000271d0       ?SetPlanarAlpha@CD3D9VideoMixerPlane@DispSvr@@UAGJM@Z 100281d0 f   D3D9VideoPlane.obj
 0001:00027240       ?GetPlanarAlpha@CD3D9VideoMixerPlane@DispSvr@@UAGJPAM@Z 10028240 f   D3D9VideoPlane.obj
 0001:000272a0       ?SetPosition@CD3D9VideoMixerPlane@DispSvr@@UAGJPBU_NORMALIZEDRECT@@PBUtagRECT@@0M@Z 100282a0 f   D3D9VideoPlane.obj
 0001:00027420       ?GetPosition@CD3D9VideoMixerPlane@DispSvr@@UAGJPAU_NORMALIZEDRECT@@PAUtagRECT@@0PAM@Z 10028420 f   D3D9VideoPlane.obj
 0001:000274f0       ?SetDirtyRect@CD3D9VideoMixerPlane@DispSvr@@UAGJPBUtagRECT@@@Z 100284f0 f   D3D9VideoPlane.obj
 0001:00027560       ?SetVideoProperty@CD3D9VideoMixerPlane@DispSvr@@UAGJPBUVideoProperty@2@@Z 10028560 f   D3D9VideoPlane.obj
 0001:00027750       ?GetVideoProperty@CD3D9VideoMixerPlane@DispSvr@@UAGJPAUVideoProperty@2@@Z 10028750 f   D3D9VideoPlane.obj
 0001:000277b0       ?SetDeptViewExternalSurface@CD3D9VideoMixerPlane@DispSvr@@UAGJIPBUExternalSurfaceDesc@2@@Z 100287b0 f   D3D9VideoPlane.obj
 0001:00027820       ?UpdateDeptViewFromBuffer@CD3D9VideoMixerPlane@DispSvr@@UAGJIPAUUpdateBuffer@2@@Z 10028820 f   D3D9VideoPlane.obj
 0001:00027840       ?LockDeptViewBuffer@CD3D9VideoMixerPlane@DispSvr@@UAGJIPAULockedRect@2@PBUtagRECT@@K@Z 10028840 f   D3D9VideoPlane.obj
 0001:00027920       ?UnlockDeptViewBuffer@CD3D9VideoMixerPlane@DispSvr@@UAGJI@Z 10028920 f   D3D9VideoPlane.obj
 0001:000279a0       ?PrepareDeptViewBuffer@CD3D9VideoMixerPlane@DispSvr@@IAEJHI@Z 100289a0 f   D3D9VideoPlane.obj
 0001:00027ac0       ?SetPlaneMetaData@CD3D9VideoMixerPlane@DispSvr@@UAGJQAEK@Z 10028ac0 f   D3D9VideoPlane.obj
 0001:00027bb0       ?SetStereoStreamMode@CD3D9VideoMixerPlane@DispSvr@@UAGJW4STEREO_STREAM_MODE@2@@Z 10028bb0 f   D3D9VideoPlane.obj
 0001:00027c10       ?GetStereoStreamMode@CD3D9VideoMixerPlane@DispSvr@@UAGJPAW4STEREO_STREAM_MODE@2@@Z 10028c10 f   D3D9VideoPlane.obj
 0001:00027c60       ?SetOffsetProperty@CD3D9VideoMixerPlane@DispSvr@@UAGJPBUStereoOffsetProperty@2@@Z 10028c60 f   D3D9VideoPlane.obj
 0001:00027cb0       ?GetOffsetProperty@CD3D9VideoMixerPlane@DispSvr@@UAGJPAUStereoOffsetProperty@2@@Z 10028cb0 f   D3D9VideoPlane.obj
 0001:00027d00       ?_QueryStatusOfExternalSurface@CD3D9VideoMixerPlane@DispSvr@@MAGJHPBUExternalSurfaceDesc@2@I@Z 10028d00 f   D3D9VideoPlane.obj
 0001:00027f20       ?_SetExternalSurface@CD3D9VideoMixerPlane@DispSvr@@MAGJHPBUExternalSurfaceDesc@2@I@Z 10028f20 f   D3D9VideoPlane.obj
 0001:000283b0       ?front@?$deque@UVideoReferenceSample@DispSvr@@V?$allocator@UVideoReferenceSample@DispSvr@@@std@@@std@@QAEAAUVideoReferenceSample@DispSvr@@XZ 100293b0 f i D3D9VideoPlane.obj
 0001:000283f0       ?back@?$deque@UVideoReferenceSample@DispSvr@@V?$allocator@UVideoReferenceSample@DispSvr@@@std@@@std@@QAEAAUVideoReferenceSample@DispSvr@@XZ 100293f0 f i D3D9VideoPlane.obj
 0001:00028450       ?push_front@?$deque@UVideoReferenceSample@DispSvr@@V?$allocator@UVideoReferenceSample@DispSvr@@@std@@@std@@QAEXABUVideoReferenceSample@DispSvr@@@Z 10029450 f i D3D9VideoPlane.obj
 0001:000284b0       ?_Growmap@?$deque@UVideoReferenceSample@DispSvr@@V?$allocator@UVideoReferenceSample@DispSvr@@@std@@@std@@IAEXI@Z 100294b0 f i D3D9VideoPlane.obj
 0001:00028610       ?allocate@?$allocator@UVideoReferenceSample@DispSvr@@@std@@QAEPAUVideoReferenceSample@DispSvr@@I@Z 10029610 f i D3D9VideoPlane.obj
 0001:00028620       ?_Xlen@?$deque@UVideoReferenceSample@DispSvr@@V?$allocator@UVideoReferenceSample@DispSvr@@@std@@@std@@KAXXZ 10029620 f i D3D9VideoPlane.obj
 0001:00028620       ?_Xlen@?$deque@PAUIMFSample@@V?$allocator@PAUIMFSample@@@std@@@std@@KAXXZ 10029620 f i VideoSourceEvr.obj
 0001:00028690       ?max_size@?$allocator@UVideoReferenceSample@DispSvr@@@std@@QBEIXZ 10029690 f i D3D9VideoPlane.obj
 0001:00028690       ?max_size@?$deque@UVideoReferenceSample@DispSvr@@V?$allocator@UVideoReferenceSample@DispSvr@@@std@@@std@@QBEIXZ 10029690 f i D3D9VideoPlane.obj
 0001:000286a0       ??$_Allocate@UVideoReferenceSample@DispSvr@@@std@@YAPAUVideoReferenceSample@DispSvr@@IPAU12@@Z 100296a0 f i D3D9VideoPlane.obj
 0001:000286f0       ?construct@?$allocator@UVideoReferenceSample@DispSvr@@@std@@QAEXPAUVideoReferenceSample@DispSvr@@ABU34@@Z 100296f0 f i D3D9VideoPlane.obj
 0001:000286f0       ??$_Construct@UVideoReferenceSample@DispSvr@@U12@@std@@YAXPAUVideoReferenceSample@DispSvr@@ABU12@@Z 100296f0 f i D3D9VideoPlane.obj
 0001:00028710       ?Release@CD3D9VideoMixerPlane@DispSvr@@W3AGKXZ 10029710 f i D3D9VideoPlane.obj
 0001:00028720       ?Release@CD3D9VideoMixerPlane@DispSvr@@W7AGKXZ 10029720 f i D3D9VideoPlane.obj
 0001:00028730       ?AddRef@CD3D9VideoMixerPlane@DispSvr@@W3AGKXZ 10029730 f i D3D9VideoPlane.obj
 0001:00028740       ?AddRef@CD3D9VideoMixerPlane@DispSvr@@W7AGKXZ 10029740 f i D3D9VideoPlane.obj
 0001:00028750       ?QueryInterface@CD3D9VideoMixerPlane@DispSvr@@W3AGJABU_GUID@@PAPAX@Z 10029750 f i D3D9VideoPlane.obj
 0001:00028760       ?QueryInterface@CD3D9VideoMixerPlane@DispSvr@@W7AGJABU_GUID@@PAPAX@Z 10029760 f i D3D9VideoPlane.obj
 0001:00028770       ?GetNumBackwardSamples@CIntelFastCompositingService@DispSvr@@QBEHXZ 10029770 f i IntelFastCompositingMixer.obj
 0001:00028780       ?GetNumForwardSamples@CIntelFastCompositingService@DispSvr@@QBEHXZ 10029780 f i IntelFastCompositingMixer.obj
 0001:00028790       ?GetRegistrationHandle@CIntelSCDService@DispSvr@@QBEPAXXZ 10029790 f i IntelFastCompositingMixer.obj
 0001:00028790       ?GetRegistrationHandle@CIntelFastCompositingService@DispSvr@@QBEPAXXZ 10029790 f i IntelFastCompositingMixer.obj
 0001:000287a0       ?GetMaxFlipRate@CIntelFastCompositingService@DispSvr@@QBEHXZ 100297a0 f i IntelFastCompositingMixer.obj
 0001:000287b0       ?IsSCDOverlay@CIntelSCDService@DispSvr@@QBE_NXZ 100297b0 f i IntelFastCompositingMixer.obj
 0001:000287c0       ?IsSCDExtension@CIntelSCDService@DispSvr@@QBE_NXZ 100297c0 f i IntelFastCompositingMixer.obj
 0001:000287d0       ??1CIntelScrambleFilter@@UAE@XZ 100297d0 f i IntelFastCompositingMixer.obj
 0001:000287d0       ??1ITextureFilter@DispSvr@@UAE@XZ 100297d0 f i IntelFastCompositingMixer.obj
 0001:000287e0       ??_GITextureFilter@DispSvr@@UAEPAXI@Z 100297e0 f i IntelFastCompositingMixer.obj
 0001:000287e0       ??_GCIntelScrambleFilter@@UAEPAXI@Z 100297e0 f i IntelFastCompositingMixer.obj
 0001:000287e0       ??_EITextureFilter@DispSvr@@UAEPAXI@Z 100297e0 f i  CIL library: CIL module
 0001:000287e0       ??_ECIntelScrambleFilter@@UAEPAXI@Z 100297e0 f i  CIL library: CIL module
 0001:00028800       ?GetBackgroundColor@CD3D9VideoMixerModel@DispSvr@@QBEABU_DXVA2_AYUVSample16@@XZ 10029800 f i IntelFastCompositingMixer.obj
 0001:00028810       ?AddRef@CIntelFastCompositingMixer@DispSvr@@UAGKXZ 10029810 f i IntelFastCompositingMixer.obj
 0001:00028830       ?Release@CIntelFastCompositingMixer@DispSvr@@UAGKXZ 10029830 f i IntelFastCompositingMixer.obj
 0001:00028850       ??0CIntelScrambleFilter@@QAE@PAUD3D9Plane@DispSvr@@@Z 10029850 f i IntelFastCompositingMixer.obj
 0001:00028860       ?Process@CIntelScrambleFilter@@UAEJABUtagRECT@@ABULockedRect@DispSvr@@@Z 10029860 f i IntelFastCompositingMixer.obj
 0001:00028990       ??0ITextureFilter@DispSvr@@QAE@XZ 10029990 f i IntelFastCompositingMixer.obj
 0001:000289a0       ??0CIntelFastCompositingMixer@DispSvr@@QAE@XZ 100299a0 f   IntelFastCompositingMixer.obj
 0001:00028b50       ??_GCIntelFastCompositingMixer@DispSvr@@UAEPAXI@Z 10029b50 f i IntelFastCompositingMixer.obj
 0001:00028b50       ??_ECIntelFastCompositingMixer@DispSvr@@UAEPAXI@Z 10029b50 f i  CIL library: CIL module
 0001:00028b90       ??_DCIntelFastCompositingMixer@DispSvr@@QAEXXZ 10029b90 f i IntelFastCompositingMixer.obj
 0001:00028bb0       ??1CIntelFastCompositingMixer@DispSvr@@UAE@XZ 10029bb0 f   IntelFastCompositingMixer.obj
 0001:00028cc0       ?QueryInterface@CIntelFastCompositingMixer@DispSvr@@UAGJABU_GUID@@PAPAX@Z 10029cc0 f   IntelFastCompositingMixer.obj
 0001:00028d30       ?ProcessMessage@CIntelFastCompositingMixer@DispSvr@@UAGJW4RESOURCE_MESSAGE_TYPE@@PAX@Z 10029d30 f   IntelFastCompositingMixer.obj
 0001:00028d50       ?_SetDevice@CIntelFastCompositingMixer@DispSvr@@EAGJPAUIUnknown@@@Z 10029d50 f   IntelFastCompositingMixer.obj
 0001:00028fe0       ?_ReleaseDevice@CIntelFastCompositingMixer@DispSvr@@EAGJXZ 10029fe0 f   IntelFastCompositingMixer.obj
 0001:00029060       ?FastCompositingBlt@CIntelFastCompositingMixer@DispSvr@@AAEJABUtagFASTCOMP_BLT_PARAMS@@@Z 1002a060 f   IntelFastCompositingMixer.obj
 0001:00029120       ?_Execute@CIntelFastCompositingMixer@DispSvr@@EAGJPAUIDirect3DSurface9@@ABUtagRECT@@1@Z 1002a120 f   IntelFastCompositingMixer.obj
 0001:00029160       ?ExecuteD3DCompositing@CIntelFastCompositingMixer@DispSvr@@AAEJPAUIDirect3DSurface9@@ABUtagRECT@@1@Z 1002a160 f   IntelFastCompositingMixer.obj
 0001:00029250       ?ExecuteFastCompositing@CIntelFastCompositingMixer@DispSvr@@AAEJPAUIDirect3DSurface9@@ABUtagRECT@@1@Z 1002a250 f   IntelFastCompositingMixer.obj
 0001:000296d0       ?PlaneToSample@CIntelFastCompositingMixer@DispSvr@@AAEJHAAUtagFASTCOMP_VideoSample@@ABUtagRECT@@1@Z 1002a6d0 f   IntelFastCompositingMixer.obj
 0001:00029a70       ?CheckAndUpdateClearRects@CIntelFastCompositingMixer@DispSvr@@AAEJABUtagRECT@@0@Z 1002aa70 f   IntelFastCompositingMixer.obj
 0001:00029c60       ?_QueryPlaneCaps@CIntelFastCompositingMixer@DispSvr@@EAGJHW4PLANE_FORMAT@2@PAUPlaneCaps@2@@Z 1002ac60 f   IntelFastCompositingMixer.obj
 0001:00029c90       ?SetDisplayRect@CIntelFastCompositingMixer@DispSvr@@UAGJPBUtagRECT@@0@Z 1002ac90 f   IntelFastCompositingMixer.obj
 0001:00029e80       ?Present@CIntelFastCompositingMixer@DispSvr@@UAGJPBUPresentHints@2@@Z 1002ae80 f   IntelFastCompositingMixer.obj
 0001:0002a030       ?SetScreenCaptureDefense@CIntelFastCompositingMixer@DispSvr@@UAGJH@Z 1002b030 f   IntelFastCompositingMixer.obj
 0001:0002a080       ?OnCreatePlane@CIntelFastCompositingMixer@DispSvr@@EAGJABUPlaneInit@2@@Z 1002b080 f   IntelFastCompositingMixer.obj
 0001:0002a100       ?UnscrambleSurface@CIntelFastCompositingMixer@DispSvr@@AAEJPAUIDirect3DSurface9@@0AAUContentProtection@2@@Z 1002b100 f   IntelFastCompositingMixer.obj
 0001:0002a190       ?GetColorKey@CD3D9VideoPresenterBase@DispSvr@@$4PPPPPPPM@PPPPPOEI@AGJPAK@Z 1002b190 f i IntelFastCompositingMixer.obj
 0001:0002a1b0       ?OnNotify@CD3D9VideoMixerBase@DispSvr@@$2PPPPPPPM@PPPPPNMM@AGJKABU_GUID@@W4XVE_EVENT_TYPE@XVE@@K@Z 1002b1b0 f i IntelFastCompositingMixer.obj
 0001:0002a1d0       ?GetBackgroundColor@CD3D9VideoMixerBase@DispSvr@@$2PPPPPPPM@PPPPPNMM@AGJPAK@Z 1002b1d0 f i IntelFastCompositingMixer.obj
 0001:0002a1f0       ?Release@CIntelFastCompositingMixer@DispSvr@@$4PPPPPPPM@EE@AGKXZ 1002b1f0 f i IntelFastCompositingMixer.obj
 0001:0002a210       ?QueryInterface@CIntelFastCompositingMixer@DispSvr@@$4PPPPPPPM@CM@AGJABU_GUID@@PAPAX@Z 1002b210 f i IntelFastCompositingMixer.obj
 0001:0002a230       ?QueryInterface@CIntelFastCompositingMixer@DispSvr@@$4PPPPPPPM@EM@AGJABU_GUID@@PAPAX@Z 1002b230 f i IntelFastCompositingMixer.obj
 0001:0002a250       ?_ReleaseDevice@CIntelFastCompositingMixer@DispSvr@@$0PPPPPPPM@A@AGJXZ 1002b250 f i IntelFastCompositingMixer.obj
 0001:0002a260       ?QueryInterface@CIntelFastCompositingMixer@DispSvr@@$4PPPPPPPM@CNI@AGJABU_GUID@@PAPAX@Z 1002b260 f i IntelFastCompositingMixer.obj
 0001:0002a280       ?OnDestroyPlane@CD3D9VideoMixerBase@DispSvr@@$2PPPPPPPM@PPPPPNMM@AGXH@Z 1002b280 f i IntelFastCompositingMixer.obj
 0001:0002a2a0       ?GetAvailableVideoProcessorModeCount@CD3D9VideoMixerBase@DispSvr@@$2PPPPPPPM@PPPPPNMM@AGJPAI@Z 1002b2a0 f i IntelFastCompositingMixer.obj
 0001:0002a2c0       ?Present@CIntelFastCompositingMixer@DispSvr@@$4PPPPPPPM@A@AGJPBUPresentHints@2@@Z 1002b2c0 f i IntelFastCompositingMixer.obj
 0001:0002a2d0       ?GetVideoProcessorCaps@CD3D9VideoMixerBase@DispSvr@@$2PPPPPPPM@PPPPPNMM@AGJPBU_GUID@@PAUVideoProcessorCaps@2@@Z 1002b2d0 f i IntelFastCompositingMixer.obj
 0001:0002a2f0       ?AddRef@CIntelFastCompositingMixer@DispSvr@@$4PPPPPPPM@DM@AGKXZ 1002b2f0 f i IntelFastCompositingMixer.obj
 0001:0002a310       ?AddRef@CIntelFastCompositingMixer@DispSvr@@$4PPPPPPPM@A@AGKXZ 1002b310 f i IntelFastCompositingMixer.obj
 0001:0002a320       ?Release@CIntelFastCompositingMixer@DispSvr@@$4PPPPPPPM@CM@AGKXZ 1002b320 f i IntelFastCompositingMixer.obj
 0001:0002a340       ?SetDisplayRect@CIntelFastCompositingMixer@DispSvr@@$4PPPPPPPM@A@AGJPBUtagRECT@@0@Z 1002b340 f i IntelFastCompositingMixer.obj
 0001:0002a350       ?Release@CIntelFastCompositingMixer@DispSvr@@$4PPPPPPPM@EM@AGKXZ 1002b350 f i IntelFastCompositingMixer.obj
 0001:0002a370       ?QueryInterface@CIntelFastCompositingMixer@DispSvr@@$4PPPPPPPM@DE@AGJABU_GUID@@PAPAX@Z 1002b370 f i IntelFastCompositingMixer.obj
 0001:0002a390       ?CreatePlane@CD3D9VideoMixerBase@DispSvr@@$2PPPPPPPM@PPPPPNMM@AGJPAUPlaneInit@2@ABU_GUID@@PAPAX@Z 1002b390 f i IntelFastCompositingMixer.obj
 0001:0002a3b0       ?Release@CIntelFastCompositingMixer@DispSvr@@$4PPPPPPPM@CNI@AGKXZ 1002b3b0 f i IntelFastCompositingMixer.obj
 0001:0002a3d0       ?GetFilterValueRange@CD3D9VideoMixerBase@DispSvr@@$2PPPPPPPM@PPPPPNMM@AGJW4VIDEO_FILTER@2@PAUValueRange@2@@Z 1002b3d0 f i IntelFastCompositingMixer.obj
 0001:0002a3f0       ?SetColorKey@CD3D9VideoPresenterBase@DispSvr@@$4PPPPPPPM@PPPPPOEI@AGJK@Z 1002b3f0 f i IntelFastCompositingMixer.obj
 0001:0002a410       ?SetVideoProcessorMode@CD3D9VideoMixerBase@DispSvr@@$2PPPPPPPM@PPPPPNMM@AGJPBU_GUID@@@Z 1002b410 f i IntelFastCompositingMixer.obj
 0001:0002a430       ?SetBackgroundColor@CD3D9VideoMixerBase@DispSvr@@$2PPPPPPPM@PPPPPNMM@AGJK@Z 1002b430 f i IntelFastCompositingMixer.obj
 0001:0002a450       ?Clear@CD3D9VideoPresenter@DispSvr@@$R4DAE@CE@PPPPPPPM@BNA@AGJXZ 1002b450 f i IntelFastCompositingMixer.obj
 0001:0002a470       ?AddRef@CIntelFastCompositingMixer@DispSvr@@$4PPPPPPPM@EE@AGKXZ 1002b470 f i IntelFastCompositingMixer.obj
 0001:0002a490       ?GetVideoEffectManager@CD3D9VideoMixerBase@DispSvr@@$2PPPPPPPM@PPPPPNMM@AGJPAPAUIUnknown@@@Z 1002b490 f i IntelFastCompositingMixer.obj
 0001:0002a4b0       ?QueryCaps@CD3D9VideoMixerBase@DispSvr@@$2PPPPPPPM@PPPPPNMM@AGJPAUMixerCaps@2@@Z 1002b4b0 f i IntelFastCompositingMixer.obj
 0001:0002a4d0       ?_Execute@CIntelFastCompositingMixer@DispSvr@@$0PPPPPPPM@A@AGJPAUIDirect3DSurface9@@ABUtagRECT@@1@Z 1002b4d0 f i IntelFastCompositingMixer.obj
 0001:0002a4e0       ?SetVideoEffectManager@CD3D9VideoMixerBase@DispSvr@@$2PPPPPPPM@PPPPPNMM@AGJPAUIUnknown@@@Z 1002b4e0 f i IntelFastCompositingMixer.obj
 0001:0002a500       ?_SetDevice@CIntelFastCompositingMixer@DispSvr@@$0PPPPPPPM@A@AGJPAUIUnknown@@@Z 1002b500 f i IntelFastCompositingMixer.obj
 0001:0002a510       ?OnVideoPositionChange@CD3D9VideoMixerBase@DispSvr@@$2PPPPPPPM@PPPPPNMM@AGXXZ 1002b510 f i IntelFastCompositingMixer.obj
 0001:0002a530       ?GetProperty@CD3D9VideoMixerBase@DispSvr@@$2PPPPPPPM@PPPPPNMM@AGJPAUMixerProperty@2@@Z 1002b530 f i IntelFastCompositingMixer.obj
 0001:0002a550       ?Release@CIntelFastCompositingMixer@DispSvr@@$4PPPPPPPM@DE@AGKXZ 1002b550 f i IntelFastCompositingMixer.obj
 0001:0002a570       ?QueryCaps@CD3D9VideoPresenterBase@DispSvr@@$4PPPPPPPM@PPPPPOEI@AGJPAUPresenterCaps@2@@Z 1002b570 f i IntelFastCompositingMixer.obj
 0001:0002a590       ?QueryInterface@CIntelFastCompositingMixer@DispSvr@@$4PPPPPPPM@DM@AGJABU_GUID@@PAPAX@Z 1002b590 f i IntelFastCompositingMixer.obj
 0001:0002a5b0       ?Execute@CD3D9VideoMixerBase@DispSvr@@$2PPPPPPPM@PPPPPNMM@AGJXZ 1002b5b0 f i IntelFastCompositingMixer.obj
 0001:0002a5d0       ?OnCreatePlane@CIntelFastCompositingMixer@DispSvr@@$0PPPPPPPM@A@AGJABUPlaneInit@2@@Z 1002b5d0 f i IntelFastCompositingMixer.obj
 0001:0002a5e0       ?SetFilterValue@CD3D9VideoMixerBase@DispSvr@@$2PPPPPPPM@PPPPPNMM@AGJW4VIDEO_FILTER@2@M@Z 1002b5e0 f i IntelFastCompositingMixer.obj
 0001:0002a600       ?SetProperty@CD3D9VideoMixerBase@DispSvr@@$2PPPPPPPM@PPPPPNMM@AGJPBUMixerProperty@2@@Z 1002b600 f i IntelFastCompositingMixer.obj
 0001:0002a620       ?QueryInterface@CIntelFastCompositingMixer@DispSvr@@$4PPPPPPPM@A@AGJABU_GUID@@PAPAX@Z 1002b620 f i IntelFastCompositingMixer.obj
 0001:0002a630       ?AddRef@CIntelFastCompositingMixer@DispSvr@@$4PPPPPPPM@CM@AGKXZ 1002b630 f i IntelFastCompositingMixer.obj
 0001:0002a650       ?AddRef@CIntelFastCompositingMixer@DispSvr@@$4PPPPPPPM@EM@AGKXZ 1002b650 f i IntelFastCompositingMixer.obj
 0001:0002a670       ?ProcessMessage@CIntelFastCompositingMixer@DispSvr@@$4PPPPPPPM@A@AGJW4RESOURCE_MESSAGE_TYPE@@PAX@Z 1002b670 f i IntelFastCompositingMixer.obj
 0001:0002a680       ?AddRef@CIntelFastCompositingMixer@DispSvr@@$4PPPPPPPM@CNI@AGKXZ 1002b680 f i IntelFastCompositingMixer.obj
 0001:0002a6a0       ??_ECIntelFastCompositingMixer@DispSvr@@$4PPPPPPPM@A@AEPAXI@Z 1002b6a0 f i IntelFastCompositingMixer.obj
 0001:0002a6b0       ?SetScreenCaptureDefense@CIntelFastCompositingMixer@DispSvr@@$4PPPPPPPM@A@AGJH@Z 1002b6b0 f i IntelFastCompositingMixer.obj
 0001:0002a6c0       ?GetProperty@CD3D9VideoPresenterBase@DispSvr@@$4PPPPPPPM@PPPPPOEI@AGJPAUPresenterProperty@2@@Z 1002b6c0 f i IntelFastCompositingMixer.obj
 0001:0002a6e0       ?GetVideoProcessorMode@CD3D9VideoMixerBase@DispSvr@@$2PPPPPPPM@PPPPPNMM@AGJPAU_GUID@@@Z 1002b6e0 f i IntelFastCompositingMixer.obj
 0001:0002a700       ?GetLumaKey@CD3D9VideoMixerBase@DispSvr@@$2PPPPPPPM@PPPPPNMM@AGJPAULumaKey@2@@Z 1002b700 f i IntelFastCompositingMixer.obj
 0001:0002a720       ?SetGamutMetadata@CD3D9VideoPresenterBase@DispSvr@@$4PPPPPPPM@PPPPPOEI@AGJKPAX@Z 1002b720 f i IntelFastCompositingMixer.obj
 0001:0002a740       ?BeginRender@CD3D9VideoPresenterBase@DispSvr@@$4PPPPPPPM@PPPPPOEI@AGJXZ 1002b740 f i IntelFastCompositingMixer.obj
 0001:0002a760       ?Release@CIntelFastCompositingMixer@DispSvr@@$4PPPPPPPM@DM@AGKXZ 1002b760 f i IntelFastCompositingMixer.obj
 0001:0002a780       ?QueryPlaneFormat@CD3D9VideoMixerBase@DispSvr@@$2PPPPPPPM@PPPPPNMM@AGJHPAW4PLANE_FORMAT@2@@Z 1002b780 f i IntelFastCompositingMixer.obj
 0001:0002a7a0       ?SetDestination@CD3D9VideoMixer@DispSvr@@$R4FI@BM@PPPPPPPM@CLA@AGJPAUIUnknown@@PBU_NORMALIZEDRECT@@@Z 1002b7a0 f i IntelFastCompositingMixer.obj
 0001:0002a7c0       ?EndRender@CD3D9VideoPresenter@DispSvr@@$R4DAE@CE@PPPPPPPM@BNA@AGJXZ 1002b7c0 f i IntelFastCompositingMixer.obj
 0001:0002a7e0       ?_QueryPlaneCaps@CIntelFastCompositingMixer@DispSvr@@$0PPPPPPPM@A@AGJHW4PLANE_FORMAT@2@PAUPlaneCaps@2@@Z 1002b7e0 f i IntelFastCompositingMixer.obj
 0001:0002a7f0       ?QueryInterface@CIntelFastCompositingMixer@DispSvr@@$4PPPPPPPM@EE@AGJABU_GUID@@PAPAX@Z 1002b7f0 f i IntelFastCompositingMixer.obj
 0001:0002a810       ?SetClearRectangles@CD3D9VideoMixer@DispSvr@@$R4FI@BM@PPPPPPPM@CLA@AGJIPAUClearRect@2@@Z 1002b810 f i IntelFastCompositingMixer.obj
 0001:0002a830       ?GetAvailableVideoProcessorModes@CD3D9VideoMixerBase@DispSvr@@$2PPPPPPPM@PPPPPNMM@AGJPAU_GUID@@@Z 1002b830 f i IntelFastCompositingMixer.obj
 0001:0002a850       ?Release@CIntelFastCompositingMixer@DispSvr@@$4PPPPPPPM@A@AGKXZ 1002b850 f i IntelFastCompositingMixer.obj
 0001:0002a860       ?GetPlaneConfig@CD3D9VideoMixerBase@DispSvr@@$2PPPPPPPM@PPPPPNMM@AEABUD3D9PlaneConfig@2@H@Z 1002b860 f i IntelFastCompositingMixer.obj
 0001:0002a870       ?SetLumaKey@CD3D9VideoMixerBase@DispSvr@@$2PPPPPPPM@PPPPPNMM@AGJPBULumaKey@2@@Z 1002b870 f i IntelFastCompositingMixer.obj
 0001:0002a890       ?SetProperty@CD3D9VideoPresenter@DispSvr@@$R4DAE@CE@PPPPPPPM@BNA@AGJPBUPresenterProperty@2@@Z 1002b890 f i IntelFastCompositingMixer.obj
 0001:0002a8b0       ?GetFilterValue@CD3D9VideoMixerBase@DispSvr@@$2PPPPPPPM@PPPPPNMM@AGJW4VIDEO_FILTER@2@PAM@Z 1002b8b0 f i IntelFastCompositingMixer.obj
 0001:0002a8d0       ?AddRef@CIntelFastCompositingMixer@DispSvr@@$4PPPPPPPM@DE@AGKXZ 1002b8d0 f i IntelFastCompositingMixer.obj
 0001:0002a8f0       ?QueryPlaneCaps@CD3D9VideoMixerBase@DispSvr@@$2PPPPPPPM@PPPPPNMM@AGJHW4PLANE_FORMAT@2@PAUPlaneCaps@2@@Z 1002b8f0 f i IntelFastCompositingMixer.obj
 0001:0002a910       ?QueryPlaneFormatCount@CD3D9VideoMixerBase@DispSvr@@$2PPPPPPPM@PPPPPNMM@AGJHPAI@Z 1002b910 f i IntelFastCompositingMixer.obj
 0001:0002a9f0       ?AddRef@CNvDxva2HDMixerRender@DispSvr@@UAGKXZ 1002b9f0 f i NvDxva2HDMixerRender.obj
 0001:0002aa10       ?Release@CNvDxva2HDMixerRender@DispSvr@@UAGKXZ 1002ba10 f i NvDxva2HDMixerRender.obj
 0001:0002aa30       ??0CNvDxva2HDMixerRender@DispSvr@@QAE@XZ 1002ba30 f   NvDxva2HDMixerRender.obj
 0001:0002ac00       ??_ECNvDxva2HDMixerRender@DispSvr@@UAEPAXI@Z 1002bc00 f i  CIL library: CIL module
 0001:0002ac00       ??_GCNvDxva2HDMixerRender@DispSvr@@UAEPAXI@Z 1002bc00 f i NvDxva2HDMixerRender.obj
 0001:0002ac40       ??_DCNvDxva2HDMixerRender@DispSvr@@QAEXXZ 1002bc40 f i NvDxva2HDMixerRender.obj
 0001:0002ac60       ??1CNvDxva2HDMixerRender@DispSvr@@UAE@XZ 1002bc60 f   NvDxva2HDMixerRender.obj
 0001:0002ad70       ?_SetDevice@CNvDxva2HDMixerRender@DispSvr@@MAGJPAUIUnknown@@@Z 1002bd70 f   NvDxva2HDMixerRender.obj
 0001:0002aec0       ?_ReleaseDevice@CNvDxva2HDMixerRender@DispSvr@@MAGJXZ 1002bec0 f   NvDxva2HDMixerRender.obj
 0001:0002af10       ?QueryInterface@CNvDxva2HDMixerRender@DispSvr@@UAGJABU_GUID@@PAPAX@Z 1002bf10 f   NvDxva2HDMixerRender.obj
 0001:0002af80       ?ProcessMessage@CNvDxva2HDMixerRender@DispSvr@@UAGJW4RESOURCE_MESSAGE_TYPE@@PAX@Z 1002bf80 f   NvDxva2HDMixerRender.obj
 0001:0002afa0       ?BeginRender@CNvDxva2HDMixerRender@DispSvr@@UAGJXZ 1002bfa0 f   NvDxva2HDMixerRender.obj
 0001:0002b070       ?CreateOverlay@CNvDxva2HDMixerRender@DispSvr@@MAEJPAU_D3DSURFACE_DESC@@PAUNV_DX_CREATE_VIDEO_PARAMS2@@@Z 1002c070 f   NvDxva2HDMixerRender.obj
 0001:0002b250       ?_Execute@CNvDxva2HDMixerRender@DispSvr@@MAGJPAUIDirect3DSurface9@@ABUtagRECT@@1@Z 1002c250 f   NvDxva2HDMixerRender.obj
 0001:0002b2d0       ?Release@CNvDxva2HDMixerRender@DispSvr@@$4PPPPPPPM@CIA@AGKXZ 1002c2d0 f i NvDxva2HDMixerRender.obj
 0001:0002b2f0       ?Release@CNvDxva2HDMixerRender@DispSvr@@$4PPPPPPPM@CKA@AGKXZ 1002c2f0 f i NvDxva2HDMixerRender.obj
 0001:0002b310       ?QueryInterface@CNvDxva2HDMixerRender@DispSvr@@$4PPPPPPPM@CII@AGJABU_GUID@@PAPAX@Z 1002c310 f i NvDxva2HDMixerRender.obj
 0001:0002b330       ?SetScreenCaptureDefense@CD3D9VideoPresenterBase@DispSvr@@$4PPPPPPPM@PPPPPOEE@AGJH@Z 1002c330 f i NvDxva2HDMixerRender.obj
 0001:0002b350       ?SetProperty@CD3D9VideoPresenterBase@DispSvr@@$4PPPPPPPM@PPPPPOEE@AGJPBUPresenterProperty@2@@Z 1002c350 f i NvDxva2HDMixerRender.obj
 0001:0002b370       ?SetColorKey@CNvAPIPresenter@@$R4DE@M@PPPPPPPM@CHI@AGJK@Z 1002c370 f i NvDxva2HDMixerRender.obj
 0001:0002b390       ?QueryInterface@CNvDxva2HDMixerRender@DispSvr@@$4PPPPPPPM@A@AGJABU_GUID@@PAPAX@Z 1002c390 f i NvDxva2HDMixerRender.obj
 0001:0002b3a0       ?AddRef@CNvDxva2HDMixerRender@DispSvr@@$4PPPPPPPM@CJI@AGKXZ 1002c3a0 f i NvDxva2HDMixerRender.obj
 0001:0002b3c0       ?AddRef@CNvDxva2HDMixerRender@DispSvr@@$4PPPPPPPM@CM@AGKXZ 1002c3c0 f i NvDxva2HDMixerRender.obj
 0001:0002b3e0       ?ProcessMessage@CNvDxva2HDMixerRender@DispSvr@@$4PPPPPPPM@A@AGJW4RESOURCE_MESSAGE_TYPE@@PAX@Z 1002c3e0 f i NvDxva2HDMixerRender.obj
 0001:0002b3f0       ?Release@CNvDxva2HDMixerRender@DispSvr@@$4PPPPPPPM@CII@AGKXZ 1002c3f0 f i NvDxva2HDMixerRender.obj
 0001:0002b410       ?EndRender@CD3D9VideoPresenterBase@DispSvr@@$4PPPPPPPM@PPPPPOEE@AGJXZ 1002c410 f i NvDxva2HDMixerRender.obj
 0001:0002b430       ?_ReleaseDevice@CNvDxva2HDMixerRender@DispSvr@@$2PPPPPPPM@A@AGJXZ 1002c430 f i NvDxva2HDMixerRender.obj
 0001:0002b440       ?QueryInterface@CNvDxva2HDMixerRender@DispSvr@@$4PPPPPPPM@CJA@AGJABU_GUID@@PAPAX@Z 1002c440 f i NvDxva2HDMixerRender.obj
 0001:0002b460       ??_ECNvDxva2HDMixerRender@DispSvr@@$4PPPPPPPM@A@AEPAXI@Z 1002c460 f i NvDxva2HDMixerRender.obj
 0001:0002b470       ?OnCreatePlane@CD3D9VideoMixerBase@DispSvr@@$2PPPPPPPM@PPPPPNMM@AGJABUPlaneInit@2@@Z 1002c470 f i NvDxva2HDMixerRender.obj
 0001:0002b490       ?Release@CNvDxva2HDMixerRender@DispSvr@@$4PPPPPPPM@A@AGKXZ 1002c490 f i NvDxva2HDMixerRender.obj
 0001:0002b4a0       ?AddRef@CNvDxva2HDMixerRender@DispSvr@@$4PPPPPPPM@CIA@AGKXZ 1002c4a0 f i NvDxva2HDMixerRender.obj
 0001:0002b4c0       ?AddRef@CNvDxva2HDMixerRender@DispSvr@@$4PPPPPPPM@CKA@AGKXZ 1002c4c0 f i NvDxva2HDMixerRender.obj
 0001:0002b4e0       ?QueryCaps@CD3D9VideoPresenterBase@DispSvr@@$4PPPPPPPM@PPPPPOEE@AGJPAUPresenterCaps@2@@Z 1002c4e0 f i NvDxva2HDMixerRender.obj
 0001:0002b500       ?Clear@CNvAPIPresenter@@$R4DE@M@PPPPPPPM@CHI@AGJXZ 1002c500 f i NvDxva2HDMixerRender.obj
 0001:0002b520       ?Release@CNvDxva2HDMixerRender@DispSvr@@$4PPPPPPPM@CJA@AGKXZ 1002c520 f i NvDxva2HDMixerRender.obj
 0001:0002b540       ?SetDisplayRect@CNvAPIPresenter@@$R4DE@M@PPPPPPPM@CHI@AGJPBUtagRECT@@0@Z 1002c540 f i NvDxva2HDMixerRender.obj
 0001:0002b560       ?QueryInterface@CNvDxva2HDMixerRender@DispSvr@@$4PPPPPPPM@CJI@AGJABU_GUID@@PAPAX@Z 1002c560 f i NvDxva2HDMixerRender.obj
 0001:0002b580       ?QueryInterface@CNvDxva2HDMixerRender@DispSvr@@$4PPPPPPPM@CM@AGJABU_GUID@@PAPAX@Z 1002c580 f i NvDxva2HDMixerRender.obj
 0001:0002b5a0       ?GetProperty@CD3D9VideoPresenterBase@DispSvr@@$4PPPPPPPM@PPPPPOEE@AGJPAUPresenterProperty@2@@Z 1002c5a0 f i NvDxva2HDMixerRender.obj
 0001:0002b5c0       ?_Execute@CNvDxva2HDMixerRender@DispSvr@@$2PPPPPPPM@A@AGJPAUIDirect3DSurface9@@ABUtagRECT@@1@Z 1002c5c0 f i NvDxva2HDMixerRender.obj
 0001:0002b5d0       ?AddRef@CNvDxva2HDMixerRender@DispSvr@@$4PPPPPPPM@CII@AGKXZ 1002c5d0 f i NvDxva2HDMixerRender.obj
 0001:0002b5f0       ?_SetDevice@CNvDxva2HDMixerRender@DispSvr@@$2PPPPPPPM@A@AGJPAUIUnknown@@@Z 1002c5f0 f i NvDxva2HDMixerRender.obj
 0001:0002b600       ?SetGamutMetadata@CNvAPIPresenter@@$R4DE@M@PPPPPPPM@CHI@AGJKPAX@Z 1002c600 f i NvDxva2HDMixerRender.obj
 0001:0002b620       ?AddRef@CNvDxva2HDMixerRender@DispSvr@@$4PPPPPPPM@A@AGKXZ 1002c620 f i NvDxva2HDMixerRender.obj
 0001:0002b630       ?Release@CNvDxva2HDMixerRender@DispSvr@@$4PPPPPPPM@CJI@AGKXZ 1002c630 f i NvDxva2HDMixerRender.obj
 0001:0002b650       ?QueryInterface@CNvDxva2HDMixerRender@DispSvr@@$4PPPPPPPM@CIA@AGJABU_GUID@@PAPAX@Z 1002c650 f i NvDxva2HDMixerRender.obj
 0001:0002b670       ?Release@CNvDxva2HDMixerRender@DispSvr@@$4PPPPPPPM@CM@AGKXZ 1002c670 f i NvDxva2HDMixerRender.obj
 0001:0002b690       ?QueryInterface@CNvDxva2HDMixerRender@DispSvr@@$4PPPPPPPM@CKA@AGJABU_GUID@@PAPAX@Z 1002c690 f i NvDxva2HDMixerRender.obj
 0001:0002b6b0       ?SetClearRectangles@CD3D9Dxva2HDVideoMixer@DispSvr@@$R4CII@CE@PPPPPPPM@CBE@AGJIPAUClearRect@2@@Z 1002c6b0 f i NvDxva2HDMixerRender.obj
 0001:0002b6d0       ?BeginRender@CNvDxva2HDMixerRender@DispSvr@@$4PPPPPPPM@A@AGJXZ 1002c6d0 f i NvDxva2HDMixerRender.obj
 0001:0002b6e0       ?GetColorKey@CD3D9VideoPresenterBase@DispSvr@@$4PPPPPPPM@PPPPPOEE@AGJPAK@Z 1002c6e0 f i NvDxva2HDMixerRender.obj
 0001:0002b700       ?CreateOverlay@CNvDxva2HDMixerRender@DispSvr@@$2PPPPPPPM@A@AEJPAU_D3DSURFACE_DESC@@PAUNV_DX_CREATE_VIDEO_PARAMS2@@@Z 1002c700 f i NvDxva2HDMixerRender.obj
 0001:0002b710       ?Present@CNvAPIPresenter@@$R4DE@M@PPPPPPPM@CHI@AGJPBUPresentHints@DispSvr@@@Z 1002c710 f i NvDxva2HDMixerRender.obj
 0001:0002b730       ?AddRef@CNvDxva2HDMixerRender@DispSvr@@$4PPPPPPPM@CJA@AGKXZ 1002c730 f i NvDxva2HDMixerRender.obj
 0001:0002b750       ?SetDestination@CD3D9VideoMixerBase@DispSvr@@$2PPPPPPPM@PPPPPNMM@AGJPAUIUnknown@@PBU_NORMALIZEDRECT@@@Z 1002c750 f i NvDxva2HDMixerRender.obj
 0001:0002b790       ?IsValidView@D3D9Plane@DispSvr@@QBE_NI@Z 1002c790 f i StereoVideoMixer.obj
 0001:0002b7e0       ??0CStereoVideoMixer@DispSvr@@QAE@XZ 1002c7e0 f   StereoVideoMixer.obj
 0001:0002bae0       ??_GCStereoVideoMixer@DispSvr@@UAEPAXI@Z 1002cae0 f i StereoVideoMixer.obj
 0001:0002bae0       ??_ECStereoVideoMixer@DispSvr@@UAEPAXI@Z 1002cae0 f i  CIL library: CIL module
 0001:0002bb10       ??_DCStereoVideoMixer@DispSvr@@QAEXXZ 1002cb10 f i StereoVideoMixer.obj
 0001:0002bb20       ??1CStereoVideoMixer@DispSvr@@UAE@XZ 1002cb20 f   StereoVideoMixer.obj
 0001:0002bcb0       ?_ReleaseDevice@CStereoVideoMixer@DispSvr@@MAGJXZ 1002ccb0 f   StereoVideoMixer.obj
 0001:0002bcf0       ?_Execute@CStereoVideoMixer@DispSvr@@MAGJPAUIDirect3DSurface9@@ABUtagRECT@@1@Z 1002ccf0 f   StereoVideoMixer.obj
 0001:0002c190       ?ReleaseResources@CStereoVideoMixer@DispSvr@@IAEXXZ 1002d190 f   StereoVideoMixer.obj
 0001:0002c2b0       ?CheckAndPrepareRenderTarget@CStereoVideoMixer@DispSvr@@IAEJW4MIXER_STEREO_MODE@2@PAPAUIDirect3DSurface9@@AAUtagRECT@@222@Z 1002d2b0 f   StereoVideoMixer.obj
 0001:0002c630       ?PreparePlaneVPSample@CStereoVideoMixer@DispSvr@@IAEJIHAAUPlaneVPSample@2@ABUtagRECT@@1@Z 1002d630 f   StereoVideoMixer.obj
 0001:0002c7f0       ?ProcessViewDXVAHD@CStereoVideoMixer@DispSvr@@IAEJIIPAUIDirect3DSurface9@@PAUPlaneVPSample@2@IABUtagRECT@@2@Z 1002d7f0 f   StereoVideoMixer.obj
 0001:0002c9d0       ?TestOutput@CStereoVideoMixer@DispSvr@@IAEJPAUIDirect3DSurface9@@0ABUtagRECT@@1@Z 1002d9d0 f   StereoVideoMixer.obj
 0001:0002ca00       ?MergeShaderOutput@CStereoVideoMixer@DispSvr@@IAEJPAUIDirect3DPixelShader9@@PAUIDirect3DSurface9@@1ABUtagRECT@@2@Z 1002da00 f   StereoVideoMixer.obj
 0001:0002cdb0       ?NvStereoOutput@CStereoVideoMixer@DispSvr@@IAEJPAUIDirect3DSurface9@@0ABUtagRECT@@1@Z 1002ddb0 f   StereoVideoMixer.obj
 0001:0002cfe0       ?EnableStereoInNvControlSurface@CStereoVideoMixer@DispSvr@@IAEXH@Z 1002dfe0 f   StereoVideoMixer.obj
 0001:0002d100       ?PrepareIntelS3DAuxiliaryDevice@CStereoVideoMixer@DispSvr@@IAEJPAUIDirect3DDevice9@@@Z 1002e100 f   StereoVideoMixer.obj
 0001:0002d1a0       ?PrepareIntelS3DVP@CStereoVideoMixer@DispSvr@@IAEJXZ 1002e1a0 f   StereoVideoMixer.obj
 0001:0002d290       ?IntelS3DOutput@CStereoVideoMixer@DispSvr@@IAEJPAUIDirect3DSurface9@@ABUtagRECT@@1@Z 1002e290 f   StereoVideoMixer.obj
 0001:0002d3d0       ?SetBackgroundColor@CD3D9VideoMixerBase@DispSvr@@$2PPPPPPPM@IM@AGJK@Z 1002e3d0 f i StereoVideoMixer.obj
 0001:0002d3f0       ?QueryCaps@CD3D9VideoMixerBase@DispSvr@@$2PPPPPPPM@IM@AGJPAUMixerCaps@2@@Z 1002e3f0 f i StereoVideoMixer.obj
 0001:0002d410       ?GetFilterValueRange@CD3D9VideoMixerBase@DispSvr@@$2PPPPPPPM@IM@AGJW4VIDEO_FILTER@2@PAUValueRange@2@@Z 1002e410 f i StereoVideoMixer.obj
 0001:0002d430       ?Release@CD3D9VideoMixerBase@DispSvr@@$4PPPPPPPM@MI@AGKXZ 1002e430 f i StereoVideoMixer.obj
 0001:0002d450       ?SetVideoProcessorMode@CD3D9VideoMixerBase@DispSvr@@$2PPPPPPPM@IM@AGJPBU_GUID@@@Z 1002e450 f i StereoVideoMixer.obj
 0001:0002d470       ?GetProperty@CD3D9VideoMixerBase@DispSvr@@$2PPPPPPPM@IM@AGJPAUMixerProperty@2@@Z 1002e470 f i StereoVideoMixer.obj
 0001:0002d490       ?OnCreatePlane@CD3D9VideoMixerBase@DispSvr@@$2PPPPPPPM@IM@AGJABUPlaneInit@2@@Z 1002e490 f i StereoVideoMixer.obj
 0001:0002d4b0       ?GetVideoEffectManager@CD3D9VideoMixerBase@DispSvr@@$2PPPPPPPM@IM@AGJPAPAUIUnknown@@@Z 1002e4b0 f i StereoVideoMixer.obj
 0001:0002d4d0       ?Execute@CD3D9VideoMixerBase@DispSvr@@$2PPPPPPPM@IM@AGJXZ 1002e4d0 f i StereoVideoMixer.obj
 0001:0002d4f0       ?Release@CD3D9VideoMixerBase@DispSvr@@$4PPPPPPPM@IM@AGKXZ 1002e4f0 f i StereoVideoMixer.obj
 0001:0002d510       ?SetVideoEffectManager@CD3D9VideoMixerBase@DispSvr@@$2PPPPPPPM@IM@AGJPAUIUnknown@@@Z 1002e510 f i StereoVideoMixer.obj
 0001:0002d530       ?OnVideoPositionChange@CD3D9VideoMixerBase@DispSvr@@$2PPPPPPPM@IM@AGXXZ 1002e530 f i StereoVideoMixer.obj
 0001:0002d550       ?AddRef@CD3D9VideoMixerBase@DispSvr@@$4PPPPPPPM@MA@AGKXZ 1002e550 f i StereoVideoMixer.obj
 0001:0002d570       ?SetProperty@CD3D9VideoMixerBase@DispSvr@@$2PPPPPPPM@IM@AGJPBUMixerProperty@2@@Z 1002e570 f i StereoVideoMixer.obj
 0001:0002d590       ?SetFilterValue@CD3D9VideoMixerBase@DispSvr@@$2PPPPPPPM@IM@AGJW4VIDEO_FILTER@2@M@Z 1002e590 f i StereoVideoMixer.obj
 0001:0002d5b0       ?GetLumaKey@CD3D9VideoMixerBase@DispSvr@@$2PPPPPPPM@IM@AGJPAULumaKey@2@@Z 1002e5b0 f i StereoVideoMixer.obj
 0001:0002d5d0       ?QueryInterface@CD3D9VideoMixerBase@DispSvr@@$4PPPPPPPM@LI@AGJABU_GUID@@PAPAX@Z 1002e5d0 f i StereoVideoMixer.obj
 0001:0002d5f0       ?QueryPlaneFormat@CD3D9VideoMixerBase@DispSvr@@$2PPPPPPPM@IM@AGJHPAW4PLANE_FORMAT@2@@Z 1002e5f0 f i StereoVideoMixer.obj
 0001:0002d610       ?_ReleaseDevice@CStereoVideoMixer@DispSvr@@$2PPPPPPPM@A@AGJXZ 1002e610 f i StereoVideoMixer.obj
 0001:0002d620       ?AddRef@CD3D9VideoMixerBase@DispSvr@@$4PPPPPPPM@MI@AGKXZ 1002e620 f i StereoVideoMixer.obj
 0001:0002d640       ?GetVideoProcessorMode@CD3D9VideoMixerBase@DispSvr@@$2PPPPPPPM@IM@AGJPAU_GUID@@@Z 1002e640 f i StereoVideoMixer.obj
 0001:0002d660       ?SetLumaKey@CD3D9VideoMixerBase@DispSvr@@$2PPPPPPPM@IM@AGJPBULumaKey@2@@Z 1002e660 f i StereoVideoMixer.obj
 0001:0002d680       ?QueryPlaneCaps@CD3D9VideoMixerBase@DispSvr@@$2PPPPPPPM@IM@AGJHW4PLANE_FORMAT@2@PAUPlaneCaps@2@@Z 1002e680 f i StereoVideoMixer.obj
 0001:0002d6a0       ?QueryPlaneFormatCount@CD3D9VideoMixerBase@DispSvr@@$2PPPPPPPM@IM@AGJHPAI@Z 1002e6a0 f i StereoVideoMixer.obj
 0001:0002d6c0       ?ProcessMessage@CD3D9VideoMixerBase@DispSvr@@$4PPPPPPPM@IM@AGJW4RESOURCE_MESSAGE_TYPE@@PAX@Z 1002e6c0 f i StereoVideoMixer.obj
 0001:0002d6e0       ?SetDestination@CD3D9VideoMixerBase@DispSvr@@$2PPPPPPPM@IM@AGJPAUIUnknown@@PBU_NORMALIZEDRECT@@@Z 1002e6e0 f i StereoVideoMixer.obj
 0001:0002d700       ?AddRef@CD3D9VideoMixerBase@DispSvr@@$4PPPPPPPM@IM@AGKXZ 1002e700 f i StereoVideoMixer.obj
 0001:0002d720       ?GetAvailableVideoProcessorModes@CD3D9VideoMixerBase@DispSvr@@$2PPPPPPPM@IM@AGJPAU_GUID@@@Z 1002e720 f i StereoVideoMixer.obj
 0001:0002d740       ?Release@CD3D9VideoMixerBase@DispSvr@@$4PPPPPPPM@LI@AGKXZ 1002e740 f i StereoVideoMixer.obj
 0001:0002d760       ?GetPlaneConfig@CD3D9VideoMixerBase@DispSvr@@$2PPPPPPPM@IM@AEABUD3D9PlaneConfig@2@H@Z 1002e760 f i StereoVideoMixer.obj
 0001:0002d770       ?QueryInterface@CD3D9VideoMixerBase@DispSvr@@$4PPPPPPPM@MA@AGJABU_GUID@@PAPAX@Z 1002e770 f i StereoVideoMixer.obj
 0001:0002d790       ?GetBackgroundColor@CD3D9VideoMixerBase@DispSvr@@$2PPPPPPPM@IM@AGJPAK@Z 1002e790 f i StereoVideoMixer.obj
 0001:0002d7b0       ?GetFilterValue@CD3D9VideoMixerBase@DispSvr@@$2PPPPPPPM@IM@AGJW4VIDEO_FILTER@2@PAM@Z 1002e7b0 f i StereoVideoMixer.obj
 0001:0002d7d0       ?SetClearRectangles@CD3D9Dxva2HDVideoMixer@DispSvr@@$4PPPPPPPM@IE@AGJIPAUClearRect@2@@Z 1002e7d0 f i StereoVideoMixer.obj
 0001:0002d7f0       ?GetAvailableVideoProcessorModeCount@CD3D9VideoMixerBase@DispSvr@@$2PPPPPPPM@IM@AGJPAI@Z 1002e7f0 f i StereoVideoMixer.obj
 0001:0002d810       ?OnNotify@CD3D9VideoMixerBase@DispSvr@@$2PPPPPPPM@IM@AGJKABU_GUID@@W4XVE_EVENT_TYPE@XVE@@K@Z 1002e810 f i StereoVideoMixer.obj
 0001:0002d830       ??_ECStereoVideoMixer@DispSvr@@$4PPPPPPPM@A@AEPAXI@Z 1002e830 f i StereoVideoMixer.obj
 0001:0002d840       ?OnDestroyPlane@CD3D9VideoMixerBase@DispSvr@@$2PPPPPPPM@IM@AGXH@Z 1002e840 f i StereoVideoMixer.obj
 0001:0002d860       ?Release@CD3D9VideoMixerBase@DispSvr@@$4PPPPPPPM@MA@AGKXZ 1002e860 f i StereoVideoMixer.obj
 0001:0002d880       ?QueryInterface@CD3D9VideoMixerBase@DispSvr@@$4PPPPPPPM@MI@AGJABU_GUID@@PAPAX@Z 1002e880 f i StereoVideoMixer.obj
 0001:0002d8a0       ?GetVideoProcessorCaps@CD3D9VideoMixerBase@DispSvr@@$2PPPPPPPM@IM@AGJPBU_GUID@@PAUVideoProcessorCaps@2@@Z 1002e8a0 f i StereoVideoMixer.obj
 0001:0002d8c0       ?_SetDevice@CD3D9Dxva2HDVideoMixer@DispSvr@@$2PPPPPPPM@IE@AGJPAUIUnknown@@@Z 1002e8c0 f i StereoVideoMixer.obj
 0001:0002d8e0       ?CreatePlane@CD3D9VideoMixerBase@DispSvr@@$2PPPPPPPM@IM@AGJPAUPlaneInit@2@ABU_GUID@@PAPAX@Z 1002e8e0 f i StereoVideoMixer.obj
 0001:0002d900       ?QueryInterface@CD3D9VideoMixerBase@DispSvr@@$4PPPPPPPM@IM@AGJABU_GUID@@PAPAX@Z 1002e900 f i StereoVideoMixer.obj
 0001:0002d920       ?AddRef@CD3D9VideoMixerBase@DispSvr@@$4PPPPPPPM@LI@AGKXZ 1002e920 f i StereoVideoMixer.obj
 0001:0002d940       _HI32                      1002e940 f i EvrCustomMixer.obj
 0001:0002d950       _LO32                      1002e950 f i EvrCustomMixer.obj
 0001:0002d960       _Pack2UINT32AsUINT64       1002e960 f i EvrCustomMixer.obj
 0001:0002d970       _Unpack2UINT32AsUINT64     1002e970 f i EvrCustomMixer.obj
 0001:0002d990       _MFGetAttribute2UINT32asUINT64 1002e990 f i EvrCustomMixer.obj
 0001:0002d990       _MFGetAttributeRatio       1002e990 f i EvrCustomMixer.obj
 0001:0002d9d0       _MFSetAttribute2UINT32asUINT64 1002e9d0 f i EvrCustomMixer.obj
 0001:0002da00       _MFGetAttributeSize        1002ea00 f i EvrCustomMixer.obj
 0001:0002da40       _MFSetAttributeRatio       1002ea40 f i EvrCustomMixer.obj
 0001:0002da70       _MFSetAttributeSize        1002ea70 f i EvrCustomMixer.obj
 0001:0002daa0       ??0CEvrCustomMixer@@QAE@XZ 1002eaa0 f   EvrCustomMixer.obj
 0001:0002db20       ??_ECEvrCustomMixer@@UAEPAXI@Z 1002eb20 f i  CIL library: CIL module
 0001:0002db20       ??_GCEvrCustomMixer@@UAEPAXI@Z 1002eb20 f i EvrCustomMixer.obj
 0001:0002db40       ??1CEvrCustomMixer@@UAE@XZ 1002eb40 f   EvrCustomMixer.obj
 0001:0002dbe0       ?AddRef@CEvrCustomMixer@@UAGKXZ 1002ebe0 f   EvrCustomMixer.obj
 0001:0002dc00       ?Release@CEvrCustomMixer@@UAGKXZ 1002ec00 f   EvrCustomMixer.obj
 0001:0002dc30       ?QueryInterface@CEvrCustomMixer@@UAGJABU_GUID@@PAPAX@Z 1002ec30 f   EvrCustomMixer.obj
 0001:0002dcf0       ?GetDeviceID@CVideoSourceEvrEx@@UAGJPAU_GUID@@@Z 1002ecf0 f   VideoSourceEvrEx.obj
 0001:0002dcf0       ?GetDeviceID@CVideoSourceEvr@@UAGJPAU_GUID@@@Z 1002ecf0 f   VideoSourceEvr.obj
 0001:0002dcf0       ?GetDeviceID@CEvrCustomMixer@@UAGJPAU_GUID@@@Z 1002ecf0 f   EvrCustomMixer.obj
 0001:0002dcf0       ?GetDeviceID@CVideoSourceMSEvr@@UAGJPAU_GUID@@@Z 1002ecf0 f   VideoSourceMSEvr.obj
 0001:0002dd30       ?GetStreamCount@CEvrCustomMixer@@UAGJPAK0@Z 1002ed30 f   EvrCustomMixer.obj
 0001:0002dd60       ?GetStreamIDs@CEvrCustomMixer@@UAGJKPAKK0@Z 1002ed60 f   EvrCustomMixer.obj
 0001:0002dda0       ?GetInputStreamInfo@CEvrCustomMixer@@UAGJKPAU_MFT_INPUT_STREAM_INFO@@@Z 1002eda0 f   EvrCustomMixer.obj
 0001:0002dde0       ?GetOutputStreamInfo@CEvrCustomMixer@@UAGJKPAU_MFT_OUTPUT_STREAM_INFO@@@Z 1002ede0 f   EvrCustomMixer.obj
 0001:0002de40       ?GetInputStreamAttributes@CEvrCustomMixer@@UAGJKPAPAUIMFAttributes@@@Z 1002ee40 f   EvrCustomMixer.obj
 0001:0002def0       ?GetOutputStreamAttributes@CEvrCustomMixer@@UAGJKPAPAUIMFAttributes@@@Z 1002eef0 f   EvrCustomMixer.obj
 0001:0002dff0       ?AddInputStreams@CEvrCustomMixer@@UAGJKPAK@Z 1002eff0 f   EvrCustomMixer.obj
 0001:0002e060       ?GetInputAvailableType@CEvrCustomMixer@@UAGJKKPAPAUIMFMediaType@@@Z 1002f060 f   EvrCustomMixer.obj
 0001:0002e0f0       ?GetOutputAvailableType@CEvrCustomMixer@@UAGJKKPAPAUIMFMediaType@@@Z 1002f0f0 f   EvrCustomMixer.obj
 0001:0002e190       ?SetInputType@CEvrCustomMixer@@UAGJKPAUIMFMediaType@@K@Z 1002f190 f   EvrCustomMixer.obj
 0001:0002e270       ?SetOutputType@CEvrCustomMixer@@UAGJKPAUIMFMediaType@@K@Z 1002f270 f   EvrCustomMixer.obj
 0001:0002e350       ?GetInputCurrentType@CEvrCustomMixer@@UAGJKPAPAUIMFMediaType@@@Z 1002f350 f   EvrCustomMixer.obj
 0001:0002e400       ?GetOutputCurrentType@CEvrCustomMixer@@UAGJKPAPAUIMFMediaType@@@Z 1002f400 f   EvrCustomMixer.obj
 0001:0002e4b0       ?GetInputStatus@CEvrCustomMixer@@UAGJKPAK@Z 1002f4b0 f   EvrCustomMixer.obj
 0001:0002e510       ?GetOutputStatus@CEvrCustomMixer@@UAGJPAK@Z 1002f510 f   EvrCustomMixer.obj
 0001:0002e550       ?RepaintVideo@CVideoSourceEx@@UAGJPAUHWND__@@PAUHDC__@@@Z 1002f550 f   VideoSourceEx.obj
 0001:0002e550       ?EnableHDMIStereoMode@IDriverExtensionAdapter@DispSvr@@UAEJHPAUDriverExtHDMIStereoModeCap@2@PAH@Z 1002f550 f   IntelDxva2Device.obj
 0001:0002e550       ?QueryAdapterInfo@IDriverExtensionAdapter@DispSvr@@UAEJPAUHWND__@@PAUHMONITOR__@@PAUDrvExtAdapterInfo@2@@Z 1002f550 f   IntelDxva2Device.obj
 0001:0002e550       ?SetClearRectangles@CD3D9Dxva2HDVideoMixer@DispSvr@@UAGJIPAUClearRect@2@@Z 1002f550 f   D3D9Dxva2HDVideoMixer.obj
 0001:0002e550       ?SetGamutMetadata@CD3D9VideoPresenterBase@DispSvr@@UAGJKPAX@Z 1002f550 f   D3D9VideoPresenterBase.obj
 0001:0002e550       ?GetParameters@?$CAsyncCallback@VCVideoSourceMSEvr@@@@UAGJPAK0@Z 1002f550 f   VideoSourceMSEvr.obj
 0001:0002e550       ?GetTexture@CVideoSourceMSEvr@@UAGJPAPAUIUnknown@@PAU_NORMALIZEDRECT@@@Z 1002f550 f   VideoSourceMSEvr.obj
 0001:0002e550       ?QueryHDMIStereoModeCaps@IDriverExtensionAdapter@DispSvr@@UAEJPAUHWND__@@PAPAUDriverExtHDMIStereoModeCap@2@PAI@Z 1002f550 f   IntelDxva2Device.obj
 0001:0002e550       ?ProcessEvent@CEvrCustomMixer@@UAGJKPAUIMFMediaEvent@@@Z 1002f550 f   EvrCustomMixer.obj
 0001:0002e550       ?GetMinIdealVideoSize@CVideoSourceEx@@UAGJPAJ0@Z 1002f550 f   VideoSourceEx.obj
 0001:0002e550       ?GetPlaneMetaData@CD3D9VideoMixerPlane@DispSvr@@UAGJPAPAEPAK@Z 1002f550 f   D3D9VideoPlane.obj
 0001:0002e560       ?ProcessMessage@CEvrCustomMixer@@UAGJW4_MFT_MESSAGE_TYPE@@K@Z 1002f560 f   EvrCustomMixer.obj
 0001:0002e580       ?ProcessInput@CEvrCustomMixer@@UAGJKPAUIMFSample@@K@Z 1002f580 f   EvrCustomMixer.obj
 0001:0002e660       ?ProcessOutput@CEvrCustomMixer@@UAGJKKPAU_MFT_OUTPUT_DATA_BUFFER@@PAK@Z 1002f660 f   EvrCustomMixer.obj
 0001:0002e7a0       ?InitServicePointers@CEvrCustomMixer@@UAGJPAUIMFTopologyServiceLookup@@@Z 1002f7a0 f   EvrCustomMixer.obj
 0001:0002e7f0       ?ReleaseServicePointers@CEvrCustomMixer@@UAGJXZ 1002f7f0 f   EvrCustomMixer.obj
 0001:0002e820       ?VerifyInputStreamID@CEvrCustomMixer@@IAEJK@Z 1002f820 f   EvrCustomMixer.obj
 0001:0002e850       ?VerifyOutputStreamID@CEvrCustomMixer@@IAEJK@Z 1002f850 f   EvrCustomMixer.obj
 0001:0002e860       ?CheckInputMediaType@CEvrCustomMixer@@IAEJPAUIMFMediaType@@@Z 1002f860 f   EvrCustomMixer.obj
 0001:0002e950       ?CheckOutputMediaType@CEvrCustomMixer@@IAEJPAUIMFMediaType@@@Z 1002f950 f   EvrCustomMixer.obj
 0001:0002ea40       ?GetInputAvailableType@CEvrCustomMixer@@IAEJKPAPAUIMFMediaType@@@Z 1002fa40 f   EvrCustomMixer.obj
 0001:0002eab0       ?GetOutputAvailableType@CEvrCustomMixer@@IAEJKPAPAUIMFMediaType@@@Z 1002fab0 f   EvrCustomMixer.obj
 0001:0002ebc0       ?OnFlush@CEvrCustomMixer@@IAEJXZ 1002fbc0 f   EvrCustomMixer.obj
 0001:0002ec40       ?QueryInterface@CEvrCustomMixer@@W3AGJABU_GUID@@PAPAX@Z 1002fc40 f i EvrCustomMixer.obj
 0001:0002ec50       ?QueryInterface@CEvrCustomMixer@@W7AGJABU_GUID@@PAPAX@Z 1002fc50 f i EvrCustomMixer.obj
 0001:0002ec60       ?Release@CEvrCustomMixer@@W3AGKXZ 1002fc60 f i EvrCustomMixer.obj
 0001:0002ec70       ?Release@CEvrCustomMixer@@W7AGKXZ 1002fc70 f i EvrCustomMixer.obj
 0001:0002ec80       ?AddRef@CEvrCustomMixer@@W3AGKXZ 1002fc80 f i EvrCustomMixer.obj
 0001:0002ec90       ?AddRef@CEvrCustomMixer@@W7AGKXZ 1002fc90 f i EvrCustomMixer.obj
 0001:0002eca0       _!=                        1002fca0 f i EvrCustomMixer.obj
 0001:0002ecc0       ??RComAutoRelease@@QAEXPAUIUnknown@@@Z 1002fcc0 f i EvrPresentScheduler.obj
 0001:0002ecd0       ??0FrameRateInfo@CEvrPresentScheduler@@QAE@XZ 1002fcd0 f i EvrPresentScheduler.obj
 0001:0002ece0       ??0CEvrPresentScheduler@@QAE@XZ 1002fce0 f   EvrPresentScheduler.obj
 0001:0002eda0       ??_GCEvrPresentScheduler@@UAEPAXI@Z 1002fda0 f i EvrPresentScheduler.obj
 0001:0002eda0       ??_ECEvrPresentScheduler@@UAEPAXI@Z 1002fda0 f i  CIL library: CIL module
 0001:0002edc0       ??0?$ThreadSafeQueue@UIMFSample@@@@QAE@XZ 1002fdc0 f i EvrPresentScheduler.obj
 0001:0002edf0       ??1?$ThreadSafeQueue@UIMFSample@@@@QAE@XZ 1002fdf0 f i EvrPresentScheduler.obj
 0001:0002ee40       ??0?$ComPtrList@UIMFSample@@$0A@@@QAE@XZ 1002fe40 f i EvrPresentScheduler.obj
 0001:0002ee60       ??_E?$ComPtrList@UIMFSample@@$0A@@@UAEPAXI@Z 1002fe60 f i  CIL library: CIL module
 0001:0002ee60       ??_G?$ComPtrList@UIMFSample@@$0A@@@UAEPAXI@Z 1002fe60 f i EvrPresentScheduler.obj
 0001:0002ee80       ??1CEvrPresentScheduler@@UAE@XZ 1002fe80 f   EvrPresentScheduler.obj
 0001:0002ef40       ?SetFrameRate@CEvrPresentScheduler@@QAEXABU_MFRatio@@@Z 1002ff40 f   EvrPresentScheduler.obj
 0001:0002ef50       ?EnableFRC@CEvrPresentScheduler@@QAEXPBU_MFRatio@@@Z 1002ff50 f   EvrPresentScheduler.obj
 0001:0002ef80       ?StartScheduler@CEvrPresentScheduler@@QAEJPAUIMFClock@@@Z 1002ff80 f   EvrPresentScheduler.obj
 0001:0002f140       ?StopScheduler@CEvrPresentScheduler@@QAEJXZ 10030140 f   EvrPresentScheduler.obj
 0001:0002f1f0       ?Flush@CEvrPresentScheduler@@QAEJH@Z 100301f0 f   EvrPresentScheduler.obj
 0001:0002f240       ?ScheduleSample@CEvrPresentScheduler@@QAEJPAUIMFSample@@H@Z 10030240 f   EvrPresentScheduler.obj
 0001:0002f2e0       ?ProcessSamplesInQueue@CEvrPresentScheduler@@AAEJPAJ@Z 100302e0 f   EvrPresentScheduler.obj
 0001:0002f390       ?ProcessSample@CEvrPresentScheduler@@AAEJPAUIMFSample@@PAJABUFrameRateInfo@1@@Z 10030390 f   EvrPresentScheduler.obj
 0001:0002f4e0       ?ProcessSampleFRC@CEvrPresentScheduler@@AAEJPAUIMFSample@@PAJABUFrameRateInfo@1@@Z 100304e0 f   EvrPresentScheduler.obj
 0001:0002f720       ?SchedulerThreadProc@CEvrPresentScheduler@@SGKPAX@Z 10030720 f   EvrPresentScheduler.obj
 0001:0002f740       ?SchedulerThreadProcPrivate@CEvrPresentScheduler@@AAEKXZ 10030740 f   EvrPresentScheduler.obj
 0001:0002f900       ?PeekPresentSample@CEvrPresentScheduler@@QAEJPAPAUIMFSample@@@Z 10030900 f   EvrPresentScheduler.obj
 0001:0002f9a0       ?PeekPresentTexture@CEvrPresentScheduler@@QAEJPAPAUIDirect3DTexture9@@@Z 100309a0 f   EvrPresentScheduler.obj
 0001:0002fa00       ?UpdatePresentSample@CEvrPresentScheduler@@QAEJPAUIMFSample@@_J@Z 10030a00 f   EvrPresentScheduler.obj
 0001:0002faf0       ?Present@CEvrPresentScheduler@@QAEJPAUIMFSample@@_J@Z 10030af0 f   EvrPresentScheduler.obj
 0001:0002fb70       ?get_FramesDrawn@CEvrPresentScheduler@@QAEJPAH@Z 10030b70 f   EvrPresentScheduler.obj
 0001:0002fb80       ?get_AvgFrameRate@CEvrPresentScheduler@@QAEJPAH@Z 10030b80 f   EvrPresentScheduler.obj
 0001:0002fb90       ?get_Jitter@CEvrPresentScheduler@@QAEJPAH@Z 10030b90 f   EvrPresentScheduler.obj
 0001:0002fba0       ?get_AvgSyncOffset@CEvrPresentScheduler@@QAEJPAH@Z 10030ba0 f   EvrPresentScheduler.obj
 0001:0002fbb0       ?get_DevSyncOffset@CEvrPresentScheduler@@QAEJPAH@Z 10030bb0 f   EvrPresentScheduler.obj
 0001:0002fbb0       ?get_FramesDroppedInRenderer@CEvrPresentScheduler@@QAEJPAH@Z 10030bb0 f   EvrPresentScheduler.obj
 0001:0002fbc0       ?SetRate@FrameRateInfo@CEvrPresentScheduler@@QAEXABU_MFRatio@@@Z 10030bc0 f   EvrPresentScheduler.obj
 0001:0002fc20       ?Queue@?$ThreadSafeQueue@UIMFSample@@@@QAEJPAUIMFSample@@@Z 10030c20 f i EvrPresentScheduler.obj
 0001:0002fc90       ?Dequeue@?$ThreadSafeQueue@UIMFSample@@@@QAEJPAPAUIMFSample@@@Z 10030c90 f i EvrPresentScheduler.obj
 0001:0002fd30       ?PutBack@?$ThreadSafeQueue@UIMFSample@@@@QAEJPAUIMFSample@@@Z 10030d30 f i EvrPresentScheduler.obj
 0001:0002fda0       ?Clear@?$ThreadSafeQueue@UIMFSample@@@@QAEXXZ 10030da0 f i EvrPresentScheduler.obj
 0001:0002fe00       ?Clear@?$ComPtrList@UIMFSample@@$0A@@@UAEXXZ 10030e00 f i EvrPresentScheduler.obj
 0001:0002fe10       ??1?$ComPtrList@UIMFSample@@$0A@@@UAE@XZ 10030e10 f i EvrPresentScheduler.obj
 0001:0002fea0       ?InsertAfter@?$ComPtrList@UIMFSample@@$0A@@@MAEJPAUIMFSample@@PAUNode@?$List@PAUIMFSample@@@@@Z 10030ea0 f i EvrPresentScheduler.obj
 0001:0002fee0       ?GetItem@?$ComPtrList@UIMFSample@@$0A@@@MAEJPBUNode@?$List@PAUIMFSample@@@@PAPAUIMFSample@@@Z 10030ee0 f i EvrPresentScheduler.obj
 0001:0002ff10       ?RemoveItem@?$ComPtrList@UIMFSample@@$0A@@@MAEJPAUNode@?$List@PAUIMFSample@@@@PAPAUIMFSample@@@Z 10030f10 f i EvrPresentScheduler.obj
 0001:0002ff80       ?InsertAfter@?$List@PAUIMFSample@@@@MAEJPAUIMFSample@@PAUNode@1@@Z 10030f80 f i EvrPresentScheduler.obj
 0001:0002ffe0       ?GetItem@?$List@PAUIMFSample@@@@MAEJPBUNode@1@PAPAUIMFSample@@@Z 10030fe0 f i EvrPresentScheduler.obj
 0001:00030010       ?RemoveItem@?$List@PAUIMFSample@@@@MAEJPAUNode@1@PAPAUIMFSample@@@Z 10031010 f i EvrPresentScheduler.obj
 0001:00030070       ??0?$List@PAUIMFSample@@@@QAE@XZ 10031070 f i EvrPresentScheduler.obj
 0001:00030090       ??1?$List@PAUIMFSample@@@@UAE@XZ 10031090 f i EvrPresentScheduler.obj
 0001:000300d0       ?Clear@?$List@PAUIMFSample@@@@UAEXXZ 100310d0 f i EvrPresentScheduler.obj
 0001:00030110       ??4?$CComPtr@UIMFMediaType@@@ATL@@QAEPAUIMFMediaType@@PAU2@@Z 10031110 f i VideoSourceEvr.obj
 0001:00030110       ??4?$CComPtr@UIDisplayServerStateEventSink@@@ATL@@QAEPAUIDisplayServerStateEventSink@@PAU2@@Z 10031110 f i VideoSourceEvr.obj
 0001:00030110       ??4?$CComPtr@UIUnknown@@@ATL@@QAEPAUIUnknown@@PAU2@@Z 10031110 f i VideoSourceDO.obj
 0001:00030110       ??4?$CComPtr@UIDirect3DDevice9@@@ATL@@QAEPAUIDirect3DDevice9@@PAU2@@Z 10031110 f i D3D9Helper.obj
 0001:00030110       ??4?$CComPtr@UIDisplayVideoSource@@@ATL@@QAEPAUIDisplayVideoSource@@PAU2@@Z 10031110 f i MixerControl.obj
 0001:00030110       ??4?$CComPtr@UIDisplayServer@@@ATL@@QAEPAUIDisplayServer@@PAU2@@Z 10031110 f i RenderEngine.obj
 0001:00030110       ??4?$CComPtr@UIDisplayObject@@@ATL@@QAEPAUIDisplayObject@@PAU2@@Z 10031110 f i RenderEngine.obj
 0001:00030110       ??4?$CComPtr@UIDisplayLock@@@ATL@@QAEPAUIDisplayLock@@PAU2@@Z 10031110 f i RenderEngine.obj
 0001:00030110       ??4?$CComPtr@UIMFSample@@@ATL@@QAEPAUIMFSample@@PAU2@@Z 10031110 f i EvrPresentScheduler.obj
 0001:00030110       ??4?$CComPtr@UIDisplayVideoSink@@@ATL@@QAEPAUIDisplayVideoSink@@PAU2@@Z 10031110 f i VideoSource.obj
 0001:00030110       ??4?$CComPtr@UIMFClock@@@ATL@@QAEPAUIMFClock@@PAU2@@Z 10031110 f i EvrPresentScheduler.obj
 0001:00030110       ??4?$CComPtr@UIDirect3DDevice9Ex@@@ATL@@QAEPAUIDirect3DDevice9Ex@@PAU2@@Z 10031110 f i D3D9Helper.obj
 0001:00030110       ??4?$CComPtr@UIFilterGraph@@@ATL@@QAEPAUIFilterGraph@@PAU2@@Z 10031110 f i VideoSource.obj
 0001:00030110       ??4?$CComPtr@UIBaseFilter@@@ATL@@QAEPAUIBaseFilter@@PAU2@@Z 10031110 f i VideoSource.obj
 0001:00030110       ??4?$CComPtr@UIDirect3D9@@@ATL@@QAEPAUIDirect3D9@@PAU2@@Z 10031110 f i D3D9Helper.obj
 0001:00030110       ??4?$CComPtr@UIDisplayRenderEngine@@@ATL@@QAEPAUIDisplayRenderEngine@@PAU2@@Z 10031110 f i MixerControl.obj
 0001:00030140       ??_E?$List@PAUIMFSample@@@@UAEPAXI@Z 10031140 f i  CIL library: CIL module
 0001:00030140       ??_G?$List@PAUIMFSample@@@@UAEPAXI@Z 10031140 f i EvrPresentScheduler.obj
 0001:00030190       ?InsertBack@?$List@PAUIMFSample@@@@QAEJPAUIMFSample@@@Z 10031190 f i EvrPresentScheduler.obj
 0001:000301b0       ?InsertFront@?$List@PAUIMFSample@@@@QAEJPAUIMFSample@@@Z 100311b0 f i EvrPresentScheduler.obj
 0001:000301d0       ?RemoveFront@?$List@PAUIMFSample@@@@QAEJPAPAUIMFSample@@@Z 100311d0 f i EvrPresentScheduler.obj
 0001:000301f0       ??0Node@?$List@PAUIMFSample@@@@QAE@PAUIMFSample@@@Z 100311f0 f i EvrPresentScheduler.obj
 0001:00030210       ?size@?$deque@PAUIMFSample@@V?$allocator@PAUIMFSample@@@std@@@std@@QBEIXZ 10031210 f i VideoSourceEvr.obj
 0001:00030210       ?size@?$deque@UVideoReferenceSample@DispSvr@@V?$allocator@UVideoReferenceSample@DispSvr@@@std@@@std@@QBEIXZ 10031210 f i D3D9VBlt.obj
 0001:00030210       ?Size@CPresentQueue@@QBEIXZ 10031210 f i VideoSourceEvr.obj
 0001:00030210       ?GetCount@?$List@PAUIMFSample@@@@QBEKXZ 10031210 f i EvrPresentScheduler.obj
 0001:00030220       ??$Clear@VComAutoRelease@@@?$List@PAUIMFSample@@@@QAEXAAVComAutoRelease@@@Z 10031220 f i EvrPresentScheduler.obj
 0001:00030270       ??$Clear@U?$NoOp@PAUIMFSample@@@@@?$List@PAUIMFSample@@@@QAEXAAU?$NoOp@PAUIMFSample@@@@@Z 10031270 f i EvrPresentScheduler.obj
 0001:000302b0       _HRESULT_FROM_WIN32        100312b0 f i EvrPresentScheduler.obj
 0001:000302c0       ??0CEvrSamplePool@@QAE@I@Z 100312c0 f   EvrSamplePool.obj
 0001:00030300       ??_ECEvrSamplePool@@UAEPAXI@Z 10031300 f i  CIL library: CIL module
 0001:00030300       ??_GCEvrSamplePool@@UAEPAXI@Z 10031300 f i EvrSamplePool.obj
 0001:00030320       ??1CEvrSamplePool@@UAE@XZ  10031320 f   EvrSamplePool.obj
 0001:00030380       ?GetSample@CEvrSamplePool@@QAEJPAPAUIMFSample@@@Z 10031380 f   EvrSamplePool.obj
 0001:000304a0       ?ReturnSample@CEvrSamplePool@@QAEJPAUIMFSample@@@Z 100314a0 f   EvrSamplePool.obj
 0001:00030550       ?AreSamplesPending@CEvrSamplePool@@QAEHXZ 10031550 f   EvrSamplePool.obj
 0001:00030590       ?Initialize@CEvrSamplePool@@QAEJPAUIDirect3DDevice9@@IIIK@Z 10031590 f   EvrSamplePool.obj
 0001:00030830       ?Initialize@CEvrSamplePool@@QAEJAAV?$ComPtrList@UIMFSample@@$0A@@@@Z 10031830 f   EvrSamplePool.obj
 0001:00030990       ?Clear@CEvrSamplePool@@QAEJXZ 10031990 f   EvrSamplePool.obj
 0001:00030a00       ?AllocateSamples@CEvrSamplePool@@QAEJPAUIDirect3DDevice9@@IIAAV?$ComPtrList@UIMFSample@@$0A@@@@Z 10031a00 f   EvrSamplePool.obj
 0001:00030b30       ?GetSamplePendingCount@CEvrSamplePool@@QAEJXZ 10031b30 f   EvrSamplePool.obj
 0001:00030b60       ?FrontPosition@?$List@PAUIMFSample@@@@QAE?AVPOSITION@1@XZ 10031b60 f i EvrSamplePool.obj
 0001:00030b80       ?GetItemPos@?$List@PAUIMFSample@@@@QAEJVPOSITION@1@PAPAUIMFSample@@@Z 10031b80 f i EvrSamplePool.obj
 0001:00030ba0       ?Next@?$List@PAUIMFSample@@@@QAE?AVPOSITION@1@V21@@Z 10031ba0 f i EvrSamplePool.obj
 0001:00030bc0       ??9POSITION@?$List@PAUIMFSample@@@@QBE_NABV01@@Z 10031bc0 f i EvrSamplePool.obj
 0001:00030bd0       ?VerifyID@CVideoSourceEx@@QBEJK@Z 10031bd0 f i VideoSourceEx.obj
 0001:00030bd0       ?VerifyID@CVideoSource@@QAEJK@Z 10031bd0 f i VideoSource.obj
 0001:00030be0       ??0CVideoSource@@QAE@PAUIDisplayLock@@PAUIDisplayVideoSink@@@Z 10031be0 f   VideoSource.obj
 0001:00030cc0       ??_ECVideoSource@@UAEPAXI@Z 10031cc0 f i  CIL library: CIL module
 0001:00030cc0       ??_GCVideoSource@@UAEPAXI@Z 10031cc0 f i VideoSource.obj
 0001:00030ce0       ??1CVideoSource@@UAE@XZ    10031ce0 f   VideoSource.obj
 0001:00030e00       ?Cleanup@CVideoSource@@AAEXXZ 10031e00 f   VideoSource.obj
 0001:00030e70       ?NonDelegatingQueryInterface@CVideoSource@@UAGJABU_GUID@@PAPAX@Z 10031e70 f   VideoSource.obj
 0001:00030f50       ?GetGraph@CVideoSource@@UAGJPAPAUIFilterGraph@@@Z 10031f50 f   VideoSource.obj
 0001:00030f90       ?GetTexture@CVideoSource@@UAGJPAPAUIUnknown@@PAU_NORMALIZEDRECT@@@Z 10031f90 f   VideoSource.obj
 0001:00031010       ?BeginDraw@CVideoSource@@UAGJXZ 10032010 f   VideoSource.obj
 0001:00031010       ?ClearImage@CVideoSourceMSEvr@@UAGJXZ 10032010 f   VideoSourceMSEvr.obj
 0001:00031010       ?BeginDraw@CVideoSourceEvrEx@@UAGJXZ 10032010 f   VideoSourceEvrEx.obj
 0001:00031010       ?Release@CServerStateEventSink@DispSvr@@UAGKXZ 10032010 f   ServerStateEventSink.obj
 0001:00031010       ?EndDraw@CVideoSourceEvrEx@@UAGJXZ 10032010 f   VideoSourceEvrEx.obj
 0001:00031010       ?BeginDraw@CVideoSourceEvr@@UAGJXZ 10032010 f   VideoSourceEvr.obj
 0001:00031010       ?ClearImage@CVideoSourceEvrEx@@UAGJXZ 10032010 f   VideoSourceEvrEx.obj
 0001:00031010       ?ClearImage@CVideoSourceEvr@@UAGJXZ 10032010 f   VideoSourceEvr.obj
 0001:00031010       ?ClearImage@CVideoSource@@UAGJXZ 10032010 f   VideoSource.obj
 0001:00031010       ?AddRef@CServerStateEventSink@DispSvr@@UAGKXZ 10032010 f   ServerStateEventSink.obj
 0001:00031010       ?EndDraw@CVideoSourceMSEvr@@UAGJXZ 10032010 f   VideoSourceMSEvr.obj
 0001:00031010       ?BeginDraw@CVideoSourceEx@@UAGJXZ 10032010 f   VideoSourceEx.obj
 0001:00031010       ?EndDraw@CVideoSource@@UAGJXZ 10032010 f   VideoSource.obj
 0001:00031010       ?EndDraw@CVideoSourceEx@@UAGJXZ 10032010 f   VideoSourceEx.obj
 0001:00031010       ?EndDraw@CVideoSourceEvr@@UAGJXZ 10032010 f   VideoSourceEvr.obj
 0001:00031010       ?BeginDraw@CVideoSourceMSEvr@@UAGJXZ 10032010 f   VideoSourceMSEvr.obj
